(lp0
(lp1
(S'week = '
p2
I0
cnumpy.core.multiarray
scalar
p3
(cnumpy
dtype
p4
(S'f8'
p5
I0
I1
tp6
Rp7
(I3
S'<'
p8
NNNI-1
I-1
I0
tp9
bS'\x84\x84\xa3N\xbc\x1bS@'
p10
tp11
Rp12
tp13
a(g2
I1
g3
(g7
S'bL6\xdf\xde\x94A@'
p14
tp15
Rp16
tp17
a(g2
I2
g3
(g7
S'5\xec\x15\xfc\x9e\xfc=@'
p18
tp19
Rp20
tp21
a(g2
I3
g3
(g7
S'\x82\xf7,\xb3\xcd\xfdD@'
p22
tp23
Rp24
tp25
a(g2
I4
g3
(g7
S'\xa3\x8a+\x07\x1b\x96P@'
p26
tp27
Rp28
tp29
a(g2
I5
g3
(g7
S'[\xeb\xf7\x91\n\xc3R@'
p30
tp31
Rp32
tp33
a(g2
I6
g3
(g7
S'\xae\xd4\xba\x82MOF@'
p34
tp35
Rp36
tp37
a(g2
I7
g3
(g7
S'\x87\x80%pa\xeeD@'
p38
tp39
Rp40
tp41
a(g2
I8
g3
(g7
S'7s_\xe1\xa9 N@'
p42
tp43
Rp44
tp45
a(g2
I9
g3
(g7
S'r\xedPh\x12\x8b7@'
p46
tp47
Rp48
tp49
a(g2
I10
g3
(g7
S'+\xc2\xc02;LN@'
p50
tp51
Rp52
tp53
a(g2
I11
g3
(g7
S'\x1e\xb1S\xe19|Q@'
p54
tp55
Rp56
tp57
a(g2
I12
g3
(g7
S'\xe6 \x8c\xff\xbe\xe2C@'
p58
tp59
Rp60
tp61
a(g2
I13
g3
(g7
S'\xee\x1f\xd5\x0f\xe1!F@'
p62
tp63
Rp64
tp65
a(g2
I14
g3
(g7
S'\x9d\x17H\x03\x93\xe3O@'
p66
tp67
Rp68
tp69
a(g2
I15
g3
(g7
S'}\xcd\x96\xab\xfe\x0eL@'
p70
tp71
Rp72
tp73
a(g2
I16
g3
(g7
S'\xf6s$\xba\xd09L@'
p74
tp75
Rp76
tp77
a(g2
I17
g3
(g7
S'\x8b\x10\xa1\xb9\x90\xa8X@'
p78
tp79
Rp80
tp81
a(g2
I18
g3
(g7
S'\xcd\xae2\x0e\xe4\x95O@'
p82
tp83
Rp84
tp85
a(g2
I19
g3
(g7
S'\xb2\xd0\xe7fl\xc7`@'
p86
tp87
Rp88
tp89
a(g2
I20
g3
(g7
S'\xac\xf1\x85V\x7f\xc2_@'
p90
tp91
Rp92
tp93
a(g2
I21
g3
(g7
S'\x886\x15\x18o\x80c@'
p94
tp95
Rp96
tp97
a(g2
I22
g3
(g7
S'\xd9\xc6H62\xb2G@'
p98
tp99
Rp100
tp101
a(g2
I23
g3
(g7
S'\x16n\x95ZC\x06C@'
p102
tp103
Rp104
tp105
a(g2
I24
g3
(g7
S';\x10R\x1fJ]X@'
p106
tp107
Rp108
tp109
a(g2
I25
g3
(g7
S'XI\x0f\xb2\xfe\xe8W@'
p110
tp111
Rp112
tp113
a(g2
I26
g3
(g7
S'p\x92\xae\x88\xbe\xe1W@'
p114
tp115
Rp116
tp117
a(g2
I27
g3
(g7
S'E\x0b\x9e%eMF@'
p118
tp119
Rp120
tp121
a(g2
I28
g3
(g7
S'\x83\xba\x11\xbd[\x01S@'
p122
tp123
Rp124
tp125
a(g2
I29
g3
(g7
S'\x8c!M\xc4\xcdmX@'
p126
tp127
Rp128
tp129
a(g2
I30
g3
(g7
S'GyF\xa8\x1b\xb3J@'
p130
tp131
Rp132
tp133
a(g2
I31
g3
(g7
S'\x8c+\xdcH\x8d\xf3W@'
p134
tp135
Rp136
tp137
a(g2
I32
g3
(g7
S'\xe3k`Q\x16\xeeQ@'
p138
tp139
Rp140
tp141
a(g2
I33
g3
(g7
S'N0R\x98; M@'
p142
tp143
Rp144
tp145
a(g2
I34
g3
(g7
S'\xb08:\xd3\xe0\xd3H@'
p146
tp147
Rp148
tp149
a(g2
I35
g3
(g7
S'\x08\xb2\x94\xac<\x15b@'
p150
tp151
Rp152
tp153
a(g2
I36
g3
(g7
S'\xa3c)y%\xa6R@'
p154
tp155
Rp156
tp157
a(g2
I37
g3
(g7
S'\xd3SQ\xa9\x9c_f@'
p158
tp159
Rp160
tp161
a(g2
I38
g3
(g7
S'\xc2$\xcd\xa8v\xfdN@'
p162
tp163
Rp164
tp165
a(g2
I39
g3
(g7
S'\x18\x03\xad\xc7\xa0\xc9;@'
p166
tp167
Rp168
tp169
a(g2
I40
g3
(g7
S'{h\xa0};En@'
p170
tp171
Rp172
tp173
a(g2
I41
g3
(g7
S'\xcc\xe4@\xcc\xf5na@'
p174
tp175
Rp176
tp177
a(g2
I42
g3
(g7
S"_\xc6w\xed['R@"
p178
tp179
Rp180
tp181
a(g2
I43
g3
(g7
S'<\xf7\x8d\x80\xd2\xe9`@'
p182
tp183
Rp184
tp185
a(g2
I44
g3
(g7
S'FQ\x02j\xa9\xb6Y@'
p186
tp187
Rp188
tp189
a(g2
I45
g3
(g7
S'f\x9a\x04\xc3\xdc\xd5L@'
p190
tp191
Rp192
tp193
a(g2
I46
g3
(g7
S'0~\xa1#\xb0(X@'
p194
tp195
Rp196
tp197
a(g2
I47
g3
(g7
S'\xd7\xd2\xf0\xb1\xc4\xccI@'
p198
tp199
Rp200
tp201
a(g2
I48
g3
(g7
S'B\x8fm\xc5!\xa8E@'
p202
tp203
Rp204
tp205
a(g2
I49
g3
(g7
S'(\xd3\xa0\xa5O\xb6Z@'
p206
tp207
Rp208
tp209
a(g2
I50
g3
(g7
S'-\x13\xaa\xe6]\x01V@'
p210
tp211
Rp212
tp213
a(g2
I51
g3
(g7
S'\xb9\xa8\x8f\xbc7>c@'
p214
tp215
Rp216
tp217
a(g2
I52
g3
(g7
S'<\x1d\xa7Q\x9d\xf5T@'
p218
tp219
Rp220
tp221
a(g2
I53
g3
(g7
S'\xf1\x11\x16\xcd\xf7,Y@'
p222
tp223
Rp224
tp225
a(g2
I54
g3
(g7
S'l\xcdgL\xe5\x96F@'
p226
tp227
Rp228
tp229
a(g2
I55
g3
(g7
S'_\x0b\x06\xd8J}Y@'
p230
tp231
Rp232
tp233
a(g2
I56
g3
(g7
S'\xe7z\xa1^w\x9fT@'
p234
tp235
Rp236
tp237
a(g2
I57
g3
(g7
S'\xb1\xdaa\x16\xf3\x12\\@'
p238
tp239
Rp240
tp241
a(g2
I58
g3
(g7
S'_!\xb9X\xc8\x7fQ@'
p242
tp243
Rp244
tp245
a(g2
I59
g3
(g7
S'\x85\x00\xb5BI\xceS@'
p246
tp247
Rp248
tp249
a(g2
I60
g3
(g7
S'\t\xe5^\x8f\x9aVX@'
p250
tp251
Rp252
tp253
a(g2
I61
g3
(g7
S'\xcd.\x0b=a\x99S@'
p254
tp255
Rp256
tp257
a(g2
I62
g3
(g7
S'\xbb\xd1\xc8\xb3\x88\xb0X@'
p258
tp259
Rp260
tp261
a(g2
I63
g3
(g7
S'\xc4\xf3\xae\x96\xf1\xebY@'
p262
tp263
Rp264
tp265
a(g2
I64
g3
(g7
S'\xf8S\xcdE|PP@'
p266
tp267
Rp268
tp269
a(g2
I65
g3
(g7
S'\xcbU\xe4\xa6\xa1\xc3U@'
p270
tp271
Rp272
tp273
a(g2
I66
g3
(g7
S'+\xd19\x1ei\x85S@'
p274
tp275
Rp276
tp277
a(g2
I67
g3
(g7
S'r\xa3XT\x96!S@'
p278
tp279
Rp280
tp281
a(g2
I68
g3
(g7
S'\xbcO\xc6\xe1\xb5\x93O@'
p282
tp283
Rp284
tp285
a(g2
I69
g3
(g7
S'\x99d\xdd\x08UwS@'
p286
tp287
Rp288
tp289
a(g2
I70
g3
(g7
S'\xa1\x1dr\xee\xfb\x1e\\@'
p290
tp291
Rp292
tp293
a(g2
I71
g3
(g7
S'\x08\xe9\xc5\x8b\x8f\xf3U@'
p294
tp295
Rp296
tp297
a(g2
I72
g3
(g7
S'\xcc\xe5&U\xdc\xfdQ@'
p298
tp299
Rp300
tp301
a(g2
I73
g3
(g7
S'0\xd5U\x89\x93AT@'
p302
tp303
Rp304
tp305
a(g2
I74
g3
(g7
S'\x08j\xeed#\xa4Q@'
p306
tp307
Rp308
tp309
a(g2
I75
g3
(g7
S'\x05\x8c\xbf\xadX?S@'
p310
tp311
Rp312
tp313
a(g2
I76
g3
(g7
S'\x15\x97\xce\xdc\x84\xd1Q@'
p314
tp315
Rp316
tp317
a(g2
I77
g3
(g7
S'\x89D\x97#\x15\x08T@'
p318
tp319
Rp320
tp321
a(g2
I78
g3
(g7
S'\x8dvb\xea\xc3\xd7R@'
p322
tp323
Rp324
tp325
a(g2
I79
g3
(g7
S'/\x82"w\xfa\xecQ@'
p326
tp327
Rp328
tp329
a(g2
I80
g3
(g7
S'\x04\xe1Q\xe8\xdf\x84R@'
p330
tp331
Rp332
tp333
a(g2
I81
g3
(g7
S'\xa2\xca\x1f\x01\x97\xc0R@'
p334
tp335
Rp336
tp337
a(g2
I82
g3
(g7
S'\xf6\xb9;i\xba\xd3S@'
p338
tp339
Rp340
tp341
a(g2
I83
g3
(g7
S'k\xcd\x0eJ\x98nS@'
p342
tp343
Rp344
tp345
a(g2
I84
g3
(g7
S'\x07t\xb6\xe7M\xa8U@'
p346
tp347
Rp348
tp349
a(g2
I85
g3
(g7
S'\xf82fG\xc8\x0eV@'
p350
tp351
Rp352
tp353
a(g2
I86
g3
(g7
S'\x97\xbd\x91\xa0\xcb,S@'
p354
tp355
Rp356
tp357
a(g2
I87
g3
(g7
S'(\xc1\x91\xf3^\x0bT@'
p358
tp359
Rp360
tp361
a(g2
I88
g3
(g7
S'\x0c^m\xc3\xd3\x88U@'
p362
tp363
Rp364
tp365
a(g2
I89
g3
(g7
S'\xde:\x93\x9d\x05OT@'
p366
tp367
Rp368
tp369
a(g2
I90
g3
(g7
S'\x17[Z\xb8?\x0eQ@'
p370
tp371
Rp372
tp373
a(g2
I91
g3
(g7
S'\xf0V*VlgR@'
p374
tp375
Rp376
tp377
a(g2
I92
g3
(g7
S'\xe8\xa5d\xba\xc4\xceW@'
p378
tp379
Rp380
tp381
a(g2
I93
g3
(g7
S')\x82V\x87t\xddN@'
p382
tp383
Rp384
tp385
a(g2
I94
g3
(g7
S'\xd1\xae \xbb6\xceS@'
p386
tp387
Rp388
tp389
a(g2
I95
g3
(g7
S');Z\x97\xdaYU@'
p390
tp391
Rp392
tp393
a(g2
I96
g3
(g7
S'b\\\x00\x1c`\x11T@'
p394
tp395
Rp396
tp397
a(g2
I97
g3
(g7
S'\xc0\x8d\xb9a\x1e\xb1W@'
p398
tp399
Rp400
tp401
a(g2
I98
g3
(g7
S'\xbe\x024\xd9\x86\xc7S@'
p402
tp403
Rp404
tp405
a(g2
I99
g3
(g7
S'\xec\x89\xf1\xf6\xdfwW@'
p406
tp407
Rp408
tp409
a(g2
I100
g3
(g7
S'F\xeex\xd4\xbakV@'
p410
tp411
Rp412
tp413
a(g2
I101
g3
(g7
S"]'fGb\x7fV@"
p414
tp415
Rp416
tp417
a(g2
I102
g3
(g7
S'\x1c\xb0 Jj\xf4S@'
p418
tp419
Rp420
tp421
a(g2
I103
g3
(g7
S'\xce\x0f\xda\x96\x12\xadV@'
p422
tp423
Rp424
tp425
aa(lp426
(g2
I0
g3
(g7
S'\xc4\x0bgZ\xa9j\x05@'
p427
tp428
Rp429
tp430
a(g2
I1
g3
(g7
S'\xca\xc9\xe0\x85\x05\xb94@'
p431
tp432
Rp433
tp434
a(g2
I2
g3
(g7
S'O\x85\x15\xf7\xc8\x0fP@'
p435
tp436
Rp437
tp438
a(g2
I3
g3
(g7
S'\t\x02\x0cRD\x7f4@'
p439
tp440
Rp441
tp442
a(g2
I4
g3
(g7
S'\xbf)Z\xd4i5\\@'
p443
tp444
Rp445
tp446
a(g2
I5
g3
(g7
S'J\x88\xa7B\xde\xce<@'
p447
tp448
Rp449
tp450
a(g2
I6
g3
(g7
S'8\xa2\xa1\x8d\x87\xe0a@'
p451
tp452
Rp453
tp454
a(g2
I7
g3
(g7
S'\x03\x12\x19\xe2}\xd7X@'
p455
tp456
Rp457
tp458
a(g2
I8
g3
(g7
S'\xfd5\xe4xQKQ@'
p459
tp460
Rp461
tp462
a(g2
I9
g3
(g7
S'\xc7\x8bZ\xc1\x11VX@'
p463
tp464
Rp465
tp466
a(g2
I10
g3
(g7
S'\x90\x89r\x05K9@@'
p467
tp468
Rp469
tp470
a(g2
I11
g3
(g7
S'\x0c\xf8\xc8\xa1w\xebE@'
p471
tp472
Rp473
tp474
a(g2
I12
g3
(g7
S'\x82k\xbf\xadv\x9eS@'
p475
tp476
Rp477
tp478
a(g2
I13
g3
(g7
S'C2\xc5\xab\r\xeas@'
p479
tp480
Rp481
tp482
a(g2
I14
g3
(g7
S'\xa0\x94p G2E@'
p483
tp484
Rp485
tp486
a(g2
I15
g3
(g7
S'\xb1)$\xbd\x90\x9bF@'
p487
tp488
Rp489
tp490
a(g2
I16
g3
(g7
S'cRA(\x17:Y@'
p491
tp492
Rp493
tp494
a(g2
I17
g3
(g7
S'\xfd\x8d-\x1a\xe6eV@'
p495
tp496
Rp497
tp498
a(g2
I18
g3
(g7
S'`\x1a\x0c\xd3N4C@'
p499
tp500
Rp501
tp502
a(g2
I19
g3
(g7
S'su\x8b\x8c\xb5\xbcS@'
p503
tp504
Rp505
tp506
a(g2
I20
g3
(g7
S'\xdf2+\x9e\xd2[W@'
p507
tp508
Rp509
tp510
a(g2
I21
g3
(g7
S'\\\xc1\xca\x97qHC@'
p511
tp512
Rp513
tp514
a(g2
I22
g3
(g7
S'\x84\xa3?\xe7\xd8\x9aU@'
p515
tp516
Rp517
tp518
a(g2
I23
g3
(g7
S'6o\x8e\xc85\xf0D@'
p519
tp520
Rp521
tp522
a(g2
I24
g3
(g7
S'\xa4\xb4\x88F\xdfTL@'
p523
tp524
Rp525
tp526
a(g2
I25
g3
(g7
S'@W\xf8\xa5\x97\x86Y@'
p527
tp528
Rp529
tp530
a(g2
I26
g3
(g7
S'\xfa\xc5Y\xcd\x88\xcad@'
p531
tp532
Rp533
tp534
a(g2
I27
g3
(g7
S'[l\x11\x18\x0b\x97W@'
p535
tp536
Rp537
tp538
a(g2
I28
g3
(g7
S'\x99\x98\xe7\x82\xbf\x84Q@'
p539
tp540
Rp541
tp542
a(g2
I29
g3
(g7
S'\xc0>\xaeo\x92\x947@'
p543
tp544
Rp545
tp546
a(g2
I30
g3
(g7
S'+Nzf\xfe\xb6B@'
p547
tp548
Rp549
tp550
a(g2
I31
g3
(g7
S'~\xc1\x81\xb16[I@'
p551
tp552
Rp553
tp554
a(g2
I32
g3
(g7
S'(\xaa}<\x87,S@'
p555
tp556
Rp557
tp558
a(g2
I33
g3
(g7
S'\x13\xfe\xbe\xea1\xebS@'
p559
tp560
Rp561
tp562
a(g2
I34
g3
(g7
S'\x85\xc4bB\xc9QX@'
p563
tp564
Rp565
tp566
a(g2
I35
g3
(g7
S'\xd6\xa2g\x19\xb8\xb7W@'
p567
tp568
Rp569
tp570
a(g2
I36
g3
(g7
S'_\xdd\x04\xb2\x9fuA@'
p571
tp572
Rp573
tp574
a(g2
I37
g3
(g7
S'1\xde^Pe\x83V@'
p575
tp576
Rp577
tp578
a(g2
I38
g3
(g7
S'/\xe69\xf0vEZ@'
p579
tp580
Rp581
tp582
a(g2
I39
g3
(g7
S'\xfd\x96@\x1e\xf6[Z@'
p583
tp584
Rp585
tp586
a(g2
I40
g3
(g7
S'_\xaa\xf7\xee\x1d\xd5X@'
p587
tp588
Rp589
tp590
a(g2
I41
g3
(g7
S'\x82o\xfbxd\xa0/@'
p591
tp592
Rp593
tp594
a(g2
I42
g3
(g7
S'P\xf6;\x88{\x8cn@'
p595
tp596
Rp597
tp598
a(g2
I43
g3
(g7
S'\x1fr\xcaEk\x9bR@'
p599
tp600
Rp601
tp602
a(g2
I44
g3
(g7
S'S\xdaEh.\x1dV@'
p603
tp604
Rp605
tp606
a(g2
I45
g3
(g7
S'XN1h\xc2Uj@'
p607
tp608
Rp609
tp610
a(g2
I46
g3
(g7
S'\xaf\xd7d\x8c\xb6\xa7L@'
p611
tp612
Rp613
tp614
a(g2
I47
g3
(g7
S'\xdcl\xc3\x03\xba\xedK@'
p615
tp616
Rp617
tp618
a(g2
I48
g3
(g7
S'\xa1\x86\x9c\x98\xc7\xd3O@'
p619
tp620
Rp621
tp622
a(g2
I49
g3
(g7
S'\xd0\xdc\xe8\x83$\x9c]@'
p623
tp624
Rp625
tp626
a(g2
I50
g3
(g7
S'\xc3t\xca\xe4\x05sW@'
p627
tp628
Rp629
tp630
a(g2
I51
g3
(g7
S'\x02+\xd2\x04"\xb9Q@'
p631
tp632
Rp633
tp634
a(g2
I52
g3
(g7
S'lJ\xe5\xc1Y\xf8O@'
p635
tp636
Rp637
tp638
a(g2
I53
g3
(g7
S'\xb2\xe3\x9e+\xdc\x9fE@'
p639
tp640
Rp641
tp642
a(g2
I54
g3
(g7
S'\xd8\xe2\xc8\xd8e\x86W@'
p643
tp644
Rp645
tp646
a(g2
I55
g3
(g7
S'\x14\x85U\xafkU[@'
p647
tp648
Rp649
tp650
a(g2
I56
g3
(g7
S'|\xc6:!\xdc\xd4Y@'
p651
tp652
Rp653
tp654
a(g2
I57
g3
(g7
S'\xcb[\t_&5U@'
p655
tp656
Rp657
tp658
a(g2
I58
g3
(g7
S'P5\xa6\x12[\xe4P@'
p659
tp660
Rp661
tp662
a(g2
I59
g3
(g7
S'\xda\xde\xc3%\xcd\xd2S@'
p663
tp664
Rp665
tp666
a(g2
I60
g3
(g7
S'y\x8b\x9e\xe8\xea\xdeR@'
p667
tp668
Rp669
tp670
a(g2
I61
g3
(g7
S'\xee\x96\x14s\xed\xfdV@'
p671
tp672
Rp673
tp674
a(g2
I62
g3
(g7
S'r;\xf5\x01\xc6\xa9X@'
p675
tp676
Rp677
tp678
a(g2
I63
g3
(g7
S'\xa2p\x8d\x13\xe4\xd4K@'
p679
tp680
Rp681
tp682
a(g2
I64
g3
(g7
S'8S\xd0\x11\xd3\x00T@'
p683
tp684
Rp685
tp686
a(g2
I65
g3
(g7
S'Y;\x0f\xc8\xf9\x8aV@'
p687
tp688
Rp689
tp690
a(g2
I66
g3
(g7
S'g\x90\x0c\xc76-R@'
p691
tp692
Rp693
tp694
a(g2
I67
g3
(g7
S'+\xe7(\x14\xfaTJ@'
p695
tp696
Rp697
tp698
a(g2
I68
g3
(g7
S'\x81\xad^\xf1\xfb\xccP@'
p699
tp700
Rp701
tp702
a(g2
I69
g3
(g7
S'\xae\x9a\x9f\xc4\x10\x9eU@'
p703
tp704
Rp705
tp706
a(g2
I70
g3
(g7
S'\x8a\xc4\xac\xdd\x04\x82R@'
p707
tp708
Rp709
tp710
a(g2
I71
g3
(g7
S'\xe6\xdf\xfcM%EO@'
p711
tp712
Rp713
tp714
a(g2
I72
g3
(g7
S'5\xda}\xdb\xf3\xb5V@'
p715
tp716
Rp717
tp718
a(g2
I73
g3
(g7
S'\x93\xae\xf5\xf8\x8b\xf9W@'
p719
tp720
Rp721
tp722
a(g2
I74
g3
(g7
S'K\xf8\xed\x8cq\x0fR@'
p723
tp724
Rp725
tp726
a(g2
I75
g3
(g7
S'\xa6\xf01\xe5\xa3\tV@'
p727
tp728
Rp729
tp730
a(g2
I76
g3
(g7
S'\x1b\xf5\xa9\xff\x06\xc7U@'
p731
tp732
Rp733
tp734
a(g2
I77
g3
(g7
S'&s\x1eLC\x90Q@'
p735
tp736
Rp737
tp738
a(g2
I78
g3
(g7
S'\x9f\xbb\x9daD\x13Q@'
p739
tp740
Rp741
tp742
a(g2
I79
g3
(g7
S'\xd7\x9bnQ\xa5#T@'
p743
tp744
Rp745
tp746
a(g2
I80
g3
(g7
S'I\x82\x9d\x1aZ\xdfS@'
p747
tp748
Rp749
tp750
a(g2
I81
g3
(g7
S'\x8aE\xc1\xb6\xe1\xf1T@'
p751
tp752
Rp753
tp754
a(g2
I82
g3
(g7
S'R\x89k\xb7\x90%Q@'
p755
tp756
Rp757
tp758
a(g2
I83
g3
(g7
S'\xe8\xbf\x06\xf7g\x0fT@'
p759
tp760
Rp761
tp762
a(g2
I84
g3
(g7
S'\x93\xdd\xfd\x8a\xb6=T@'
p763
tp764
Rp765
tp766
a(g2
I85
g3
(g7
S'\x8aK\x81\x9al\xb6V@'
p767
tp768
Rp769
tp770
a(g2
I86
g3
(g7
S'\x858\xd9J?8W@'
p771
tp772
Rp773
tp774
a(g2
I87
g3
(g7
S'h\xe3A\xce1FT@'
p775
tp776
Rp777
tp778
a(g2
I88
g3
(g7
S'\x1e\x0e\x02\x92W\rR@'
p779
tp780
Rp781
tp782
a(g2
I89
g3
(g7
S'\xe1$1\x04\x16\xb6S@'
p783
tp784
Rp785
tp786
a(g2
I90
g3
(g7
S'\xfcu\x85a\xc02T@'
p787
tp788
Rp789
tp790
a(g2
I91
g3
(g7
S'\xed\xc1\x8b\x88\x97\x0fW@'
p791
tp792
Rp793
tp794
a(g2
I92
g3
(g7
S'\xbc\xf2!!h\xceQ@'
p795
tp796
Rp797
tp798
a(g2
I93
g3
(g7
S'h;\xff\xc8-\x8dV@'
p799
tp800
Rp801
tp802
a(g2
I94
g3
(g7
S'-Z;\xd4\x8a\x04U@'
p803
tp804
Rp805
tp806
a(g2
I95
g3
(g7
S'\x12I7Qb\x8aR@'
p807
tp808
Rp809
tp810
a(g2
I96
g3
(g7
S"\x07\x19'\xff\t\xadR@"
p811
tp812
Rp813
tp814
a(g2
I97
g3
(g7
S'}\x95~\xee\xadzU@'
p815
tp816
Rp817
tp818
a(g2
I98
g3
(g7
S'\xc6N\xa3\x1aq&T@'
p819
tp820
Rp821
tp822
a(g2
I99
g3
(g7
S';1\xeb\xa0\x8b"T@'
p823
tp824
Rp825
tp826
a(g2
I100
g3
(g7
S'\\\xf2\xee\t+pT@'
p827
tp828
Rp829
tp830
a(g2
I101
g3
(g7
S'\xcb\xbeT\xbb\xd4,Q@'
p831
tp832
Rp833
tp834
a(g2
I102
g3
(g7
S'fnH\x9axlR@'
p835
tp836
Rp837
tp838
a(g2
I103
g3
(g7
S'J\x82\xc0<\xb4\x9fW@'
p839
tp840
Rp841
tp842
aa(lp843
(g2
I0
g3
(g7
S'\xdf\x9e\xe49\xd2\xf8V@'
p844
tp845
Rp846
tp847
a(g2
I1
g3
(g7
S'\xd5\xfa@5\xfb\xffK@'
p848
tp849
Rp850
tp851
a(g2
I2
g3
(g7
S'\xfdab8!<h@'
p852
tp853
Rp854
tp855
a(g2
I3
g3
(g7
S'\xda\xa2\xf7\n\xa1\x96J@'
p856
tp857
Rp858
tp859
a(g2
I4
g3
(g7
S'\x8d\x8e T\x1f\x13O@'
p860
tp861
Rp862
tp863
a(g2
I5
g3
(g7
S'\xc7\xda\xadC\x9b\xbaS@'
p864
tp865
Rp866
tp867
a(g2
I6
g3
(g7
S'\x1a$\x86\x18\x1b}^@'
p868
tp869
Rp870
tp871
a(g2
I7
g3
(g7
S'1?4[m\x81V@'
p872
tp873
Rp874
tp875
a(g2
I8
g3
(g7
S'\x08\x82q\x94\xfb\xefH@'
p876
tp877
Rp878
tp879
a(g2
I9
g3
(g7
S'\xc5I=4\xe2Sc@'
p880
tp881
Rp882
tp883
a(g2
I10
g3
(g7
S'\x19\x97\x83\xafS\x83U@'
p884
tp885
Rp886
tp887
a(g2
I11
g3
(g7
S'X\xd6\xe2\x13\x80FB@'
p888
tp889
Rp890
tp891
a(g2
I12
g3
(g7
S'\x1b\xd7\xba\xe2\x93\xb6b@'
p892
tp893
Rp894
tp895
a(g2
I13
g3
(g7
S'/\xb8\xa6H\xb5\xd4k@'
p896
tp897
Rp898
tp899
a(g2
I14
g3
(g7
S'\x8a\x80\xd4\xdb%\xb33@'
p900
tp901
Rp902
tp903
a(g2
I15
g3
(g7
S"\x91\xbd\xd5\x90hO'@"
p904
tp905
Rp906
tp907
a(g2
I16
g3
(g7
S'\xd3\xe2\xe5\xe3C\xad\\@'
p908
tp909
Rp910
tp911
a(g2
I17
g3
(g7
S'\xfc\xa0\xd2u\x07\xeaF@'
p912
tp913
Rp914
tp915
a(g2
I18
g3
(g7
S'2\x1c\xef\xc4\xaaDT@'
p916
tp917
Rp918
tp919
a(g2
I19
g3
(g7
S'a4B3\x9a\x81d@'
p920
tp921
Rp922
tp923
a(g2
I20
g3
(g7
S'\x089\xe5*\xb3\x81B@'
p924
tp925
Rp926
tp927
a(g2
I21
g3
(g7
S'eV{\xad"\xfb\\@'
p928
tp929
Rp930
tp931
a(g2
I22
g3
(g7
S'\x8d\x19\xae8\x10\x0bX@'
p932
tp933
Rp934
tp935
a(g2
I23
g3
(g7
S'm\xe5}~\x89\x127@'
p936
tp937
Rp938
tp939
a(g2
I24
g3
(g7
S'\x1eK\xff\x1d:\x86Y@'
p940
tp941
Rp942
tp943
a(g2
I25
g3
(g7
S'\x1cI`\t\x1aBY@'
p944
tp945
Rp946
tp947
a(g2
I26
g3
(g7
S'\xaaWt\xc2Z\xf9B@'
p948
tp949
Rp950
tp951
a(g2
I27
g3
(g7
S'N\x93T\xb7c\xb5S@'
p952
tp953
Rp954
tp955
a(g2
I28
g3
(g7
S'B\x99S\xbf_\xa9V@'
p956
tp957
Rp958
tp959
a(g2
I29
g3
(g7
S'8+\xbf\xa5\x16\xfa>@'
p960
tp961
Rp962
tp963
a(g2
I30
g3
(g7
S'\xce\x86I\x0eo\xd1S@'
p964
tp965
Rp966
tp967
a(g2
I31
g3
(g7
S'\xd6\xb1)\x88\xc7\xebg@'
p968
tp969
Rp970
tp971
a(g2
I32
g3
(g7
S'\xbd\x96N79\xccM@'
p972
tp973
Rp974
tp975
a(g2
I33
g3
(g7
S'U>\xf2\x87\x926W@'
p976
tp977
Rp978
tp979
a(g2
I34
g3
(g7
S'\xb9S\xcd\\R\x01X@'
p980
tp981
Rp982
tp983
a(g2
I35
g3
(g7
S'\xd4\x8d7)\x7f}U@'
p984
tp985
Rp986
tp987
a(g2
I36
g3
(g7
S'm\x06\xdb\x96\xf9pX@'
p988
tp989
Rp990
tp991
a(g2
I37
g3
(g7
S'\x1b\xd3Kz\xc6\xdf[@'
p992
tp993
Rp994
tp995
a(g2
I38
g3
(g7
S'\xfb\x82\x03\xe6\xa7\xf4P@'
p996
tp997
Rp998
tp999
a(g2
I39
g3
(g7
S'\xa2\xe3\xc2-\x13\xbbS@'
p1000
tp1001
Rp1002
tp1003
a(g2
I40
g3
(g7
S'_\x02\xa4G\xa0\x97Q@'
p1004
tp1005
Rp1006
tp1007
a(g2
I41
g3
(g7
S'\x16\x7f\x12\xdb\x07)M@'
p1008
tp1009
Rp1010
tp1011
a(g2
I42
g3
(g7
S'G6\xf4\xc2\x1d\nD@'
p1012
tp1013
Rp1014
tp1015
a(g2
I43
g3
(g7
S'\xf6\xdaa\xdd"gO@'
p1016
tp1017
Rp1018
tp1019
a(g2
I44
g3
(g7
S'W\xd5Nv\x96&J@'
p1020
tp1021
Rp1022
tp1023
a(g2
I45
g3
(g7
S'\xec\xd9T|8eQ@'
p1024
tp1025
Rp1026
tp1027
a(g2
I46
g3
(g7
S'\xc5?\xb1\xb8c\xf01@'
p1028
tp1029
Rp1030
tp1031
a(g2
I47
g3
(g7
S'U\x0c\xa7\xe5\x02S>@'
p1032
tp1033
Rp1034
tp1035
a(g2
I48
g3
(g7
S'\xb3<\xdb\x01\x11\xcdp@'
p1036
tp1037
Rp1038
tp1039
a(g2
I49
g3
(g7
S's\xabex\xe0\x11;@'
p1040
tp1041
Rp1042
tp1043
a(g2
I50
g3
(g7
S'\xe9\x85\xf2\x18\xfc\xd4D@'
p1044
tp1045
Rp1046
tp1047
a(g2
I51
g3
(g7
S'\x11\xfaC<\x04MM@'
p1048
tp1049
Rp1050
tp1051
a(g2
I52
g3
(g7
S'\x97c|4\xaf\x96]@'
p1052
tp1053
Rp1054
tp1055
a(g2
I53
g3
(g7
S'e\xf88\x9b\x0e[Q@'
p1056
tp1057
Rp1058
tp1059
a(g2
I54
g3
(g7
S'\x9f\xf4kSs\xb2]@'
p1060
tp1061
Rp1062
tp1063
a(g2
I55
g3
(g7
S"'X\x0e8'\xc5w@"
p1064
tp1065
Rp1066
tp1067
a(g2
I56
g3
(g7
S'l\\t\xef\xfa\xf2Q@'
p1068
tp1069
Rp1070
tp1071
a(g2
I57
g3
(g7
S'\xe7\xfd\x0b\x14\xb1YW@'
p1072
tp1073
Rp1074
tp1075
a(g2
I58
g3
(g7
S'\xd3\x00E3\x1b\xa4Y@'
p1076
tp1077
Rp1078
tp1079
a(g2
I59
g3
(g7
S'kV{L\xdb\xf5V@'
p1080
tp1081
Rp1082
tp1083
a(g2
I60
g3
(g7
S'\xfb_\xd4\xb5B\xc5P@'
p1084
tp1085
Rp1086
tp1087
a(g2
I61
g3
(g7
S'\x9f\xfdj\x02Q\xb9I@'
p1088
tp1089
Rp1090
tp1091
a(g2
I62
g3
(g7
S'\xf5\x92\x9c\x11\xbd\xc7Q@'
p1092
tp1093
Rp1094
tp1095
a(g2
I63
g3
(g7
S'vov\xbd$\xd3W@'
p1096
tp1097
Rp1098
tp1099
a(g2
I64
g3
(g7
S'\xe6\xb0r\xf5\x0c>T@'
p1100
tp1101
Rp1102
tp1103
a(g2
I65
g3
(g7
S'q\x99s"\xc2$Q@'
p1104
tp1105
Rp1106
tp1107
a(g2
I66
g3
(g7
S'|\xa8\xd8\xec\x15\xa5R@'
p1108
tp1109
Rp1110
tp1111
a(g2
I67
g3
(g7
S'"g\xf6e(qP@'
p1112
tp1113
Rp1114
tp1115
a(g2
I68
g3
(g7
S'\xa6Z\xefH\xcb\x17S@'
p1116
tp1117
Rp1118
tp1119
a(g2
I69
g3
(g7
S'\xa7b"\xe6D\x11Q@'
p1120
tp1121
Rp1122
tp1123
a(g2
I70
g3
(g7
S'B\xde*\x05\xa4OS@'
p1124
tp1125
Rp1126
tp1127
a(g2
I71
g3
(g7
S'\xfc\xd0|\xae>\xddT@'
p1128
tp1129
Rp1130
tp1131
a(g2
I72
g3
(g7
S'\xce\x9b\x01\x9f\xf6\x14T@'
p1132
tp1133
Rp1134
tp1135
a(g2
I73
g3
(g7
S'\xe5\xaf\x99@\x1d\x0bS@'
p1136
tp1137
Rp1138
tp1139
a(g2
I74
g3
(g7
S'\xd7q\x93\x12\xea\xa0V@'
p1140
tp1141
Rp1142
tp1143
a(g2
I75
g3
(g7
S'\xd6\xd1Q9 \xa4Q@'
p1144
tp1145
Rp1146
tp1147
a(g2
I76
g3
(g7
S'o\x83V\xed\xfdvU@'
p1148
tp1149
Rp1150
tp1151
a(g2
I77
g3
(g7
S'S\xc4vG\xactY@'
p1152
tp1153
Rp1154
tp1155
a(g2
I78
g3
(g7
S'DMI&\\6S@'
p1156
tp1157
Rp1158
tp1159
a(g2
I79
g3
(g7
S'\x0f*\x9c8R-T@'
p1160
tp1161
Rp1162
tp1163
a(g2
I80
g3
(g7
S'\xb0\x8c,8.GT@'
p1164
tp1165
Rp1166
tp1167
a(g2
I81
g3
(g7
S'\x85\x88\xea\xf94\x9aR@'
p1168
tp1169
Rp1170
tp1171
a(g2
I82
g3
(g7
S'\xd6\x88Q\xdf\x87\xd5U@'
p1172
tp1173
Rp1174
tp1175
a(g2
I83
g3
(g7
S'\xb0\x17\xcd\xaf\x0ebU@'
p1176
tp1177
Rp1178
tp1179
a(g2
I84
g3
(g7
S'\x1c\xe4\x02\x9bWuY@'
p1180
tp1181
Rp1182
tp1183
a(g2
I85
g3
(g7
S'\xb0\xa6xiF\xf7S@'
p1184
tp1185
Rp1186
tp1187
a(g2
I86
g3
(g7
S'ku\x9a\xee\x07\xd4V@'
p1188
tp1189
Rp1190
tp1191
a(g2
I87
g3
(g7
S'\x9e\xb2\x87oqsT@'
p1192
tp1193
Rp1194
tp1195
a(g2
I88
g3
(g7
S'\xdc\\\t\xd2\x14\xbcU@'
p1196
tp1197
Rp1198
tp1199
a(g2
I89
g3
(g7
S'$\xcaGVR\xd2S@'
p1200
tp1201
Rp1202
tp1203
a(g2
I90
g3
(g7
S'?u\xcf\xbfPHU@'
p1204
tp1205
Rp1206
tp1207
a(g2
I91
g3
(g7
S'\x95VLP\tRX@'
p1208
tp1209
Rp1210
tp1211
a(g2
I92
g3
(g7
S"\x93\xdb' n\xfeQ@"
p1212
tp1213
Rp1214
tp1215
a(g2
I93
g3
(g7
S'z\x12\xc2\xfey+U@'
p1216
tp1217
Rp1218
tp1219
a(g2
I94
g3
(g7
S"? '\xc3 \x18V@"
p1220
tp1221
Rp1222
tp1223
a(g2
I95
g3
(g7
S'\xf4\xf2\xd8NV\xf8S@'
p1224
tp1225
Rp1226
tp1227
a(g2
I96
g3
(g7
S'\xd80\\\xb3\xccyU@'
p1228
tp1229
Rp1230
tp1231
a(g2
I97
g3
(g7
S'\x8f\xa3$&\xba\x17R@'
p1232
tp1233
Rp1234
tp1235
a(g2
I98
g3
(g7
S'\xf7\xb4\x19\x84:WX@'
p1236
tp1237
Rp1238
tp1239
a(g2
I99
g3
(g7
S'\xa4\xc4k_S\xbaU@'
p1240
tp1241
Rp1242
tp1243
a(g2
I100
g3
(g7
S'/\x12\xbf\xd7\xc0\x15V@'
p1244
tp1245
Rp1246
tp1247
a(g2
I101
g3
(g7
S'\xcdrM\xb44\xa9S@'
p1248
tp1249
Rp1250
tp1251
a(g2
I102
g3
(g7
S'\xfc\x12\xeb(\xf7uR@'
p1252
tp1253
Rp1254
tp1255
a(g2
I103
g3
(g7
S'\xb7\xd5i>\x11\xd1R@'
p1256
tp1257
Rp1258
tp1259
aa.