(lp0
(lp1
(S'Week = '
p2
I0
I6
tp3
a(g2
I1
I7
tp4
a(g2
I2
I8
tp5
a(g2
I3
I12
tp6
a(g2
I4
I7
tp7
a(g2
I5
I18
tp8
a(g2
I6
I13
tp9
a(g2
I7
I14
tp10
a(g2
I8
I13
tp11
a(g2
I9
I20
tp12
a(g2
I10
I15
tp13
a(g2
I11
I18
tp14
a(g2
I12
I11
tp15
a(g2
I13
I14
tp16
a(g2
I14
I14
tp17
a(g2
I15
I15
tp18
a(g2
I16
I28
tp19
a(g2
I17
I26
tp20
a(g2
I18
I23
tp21
a(g2
I19
I17
tp22
a(g2
I20
I28
tp23
a(g2
I21
I37
tp24
a(g2
I22
I38
tp25
a(g2
I23
I27
tp26
a(g2
I24
I36
tp27
a(g2
I25
I38
tp28
a(g2
I26
I48
tp29
a(g2
I27
I48
tp30
a(g2
I28
I56
tp31
a(g2
I29
I63
tp32
a(g2
I30
I47
tp33
a(g2
I31
I77
tp34
a(g2
I32
I66
tp35
a(g2
I33
I62
tp36
a(g2
I34
I72
tp37
a(g2
I35
I66
tp38
a(g2
I36
I83
tp39
a(g2
I37
I74
tp40
a(g2
I38
I80
tp41
a(g2
I39
I86
tp42
a(g2
I40
I93
tp43
a(g2
I41
I113
tp44
a(g2
I42
I97
tp45
a(g2
I43
I128
tp46
a(g2
I44
I107
tp47
a(g2
I45
I142
tp48
a(g2
I46
I128
tp49
a(g2
I47
I139
tp50
a(g2
I48
I147
tp51
a(g2
I49
I164
tp52
a(g2
I50
I161
tp53
a(g2
I51
I170
tp54
a(g2
I52
I196
tp55
a(g2
I53
I189
tp56
a(g2
I54
I210
tp57
a(g2
I55
I207
tp58
a(g2
I56
I217
tp59
a(g2
I57
I248
tp60
a(g2
I58
I242
tp61
a(g2
I59
I247
tp62
a(g2
I60
I271
tp63
a(g2
I61
I269
tp64
a(g2
I62
I267
tp65
a(g2
I63
I257
tp66
a(g2
I64
I283
tp67
a(g2
I65
I268
tp68
a(g2
I66
I263
tp69
a(g2
I67
I289
tp70
a(g2
I68
I281
tp71
a(g2
I69
I298
tp72
a(g2
I70
I314
tp73
a(g2
I71
I306
tp74
a(g2
I72
I290
tp75
a(g2
I73
I323
tp76
a(g2
I74
I313
tp77
a(g2
I75
I325
tp78
a(g2
I76
I352
tp79
a(g2
I77
I349
tp80
a(g2
I78
I353
tp81
a(g2
I79
I365
tp82
a(g2
I80
I369
tp83
a(g2
I81
I365
tp84
a(g2
I82
I387
tp85
a(g2
I83
I387
tp86
a(g2
I84
I366
tp87
a(g2
I85
I384
tp88
a(g2
I86
I394
tp89
a(g2
I87
I402
tp90
a(g2
I88
I397
tp91
a(g2
I89
I410
tp92
a(g2
I90
I416
tp93
a(g2
I91
I422
tp94
a(g2
I92
I414
tp95
a(g2
I93
I425
tp96
a(g2
I94
I421
tp97
a(g2
I95
I408
tp98
a(g2
I96
I410
tp99
a(g2
I97
I423
tp100
a(g2
I98
I415
tp101
a(g2
I99
I417
tp102
a(g2
I100
I410
tp103
a(g2
I101
I448
tp104
a(g2
I102
I436
tp105
a(g2
I103
I426
tp106
aa(lp107
(g2
F466.0
I3
tp108
a(g2
F467.0
I7
tp109
a(g2
F468.0
I9
tp110
a(g2
F469.0
I8
tp111
a(g2
F470.0
I9
tp112
a(g2
F471.0
I12
tp113
a(g2
F472.0
I6
tp114
a(g2
F473.0
I15
tp115
a(g2
F474.0
I10
tp116
a(g2
F475.0
I12
tp117
a(g2
F476.0
I13
tp118
a(g2
F477.0
I10
tp119
a(g2
F478.0
I14
tp120
a(g2
F479.0
I23
tp121
a(g2
F480.0
I23
tp122
a(g2
F481.0
I15
tp123
a(g2
F482.0
I23
tp124
a(g2
F483.0
I30
tp125
a(g2
F484.0
I24
tp126
a(g2
F485.0
I29
tp127
a(g2
F486.0
I27
tp128
a(g2
F487.0
I35
tp129
a(g2
F488.0
I36
tp130
a(g2
F489.0
I35
tp131
a(g2
F490.0
I32
tp132
a(g2
F491.0
I44
tp133
a(g2
F492.0
I49
tp134
a(g2
F493.0
I51
tp135
a(g2
F494.0
I45
tp136
a(g2
F495.0
I42
tp137
a(g2
F496.0
I54
tp138
a(g2
F497.0
I57
tp139
a(g2
F498.0
I67
tp140
a(g2
F499.0
I72
tp141
a(g2
F500.0
I60
tp142
a(g2
F501.0
I71
tp143
a(g2
F502.0
I80
tp144
a(g2
F503.0
I78
tp145
a(g2
F504.0
I90
tp146
a(g2
F505.0
I95
tp147
a(g2
F506.0
I97
tp148
a(g2
F507.0
I101
tp149
a(g2
F508.0
I124
tp150
a(g2
F509.0
I137
tp151
a(g2
F510.0
I128
tp152
a(g2
F511.0
I148
tp153
a(g2
F512.0
I136
tp154
a(g2
F513.0
I161
tp155
a(g2
F514.0
I178
tp156
a(g2
F515.0
I167
tp157
a(g2
F516.0
I165
tp158
a(g2
F517.0
I195
tp159
a(g2
F518.0
I194
tp160
a(g2
F519.0
I191
tp161
a(g2
F520.0
I220
tp162
a(g2
F521.0
I210
tp163
a(g2
F522.0
I231
tp164
a(g2
F523.0
I222
tp165
a(g2
F524.0
I233
tp166
a(g2
F525.0
I236
tp167
a(g2
F526.0
I248
tp168
a(g2
F527.0
I247
tp169
a(g2
F528.0
I251
tp170
a(g2
F529.0
I261
tp171
a(g2
F530.0
I260
tp172
a(g2
F531.0
I257
tp173
a(g2
F532.0
I279
tp174
a(g2
F533.0
I282
tp175
a(g2
F534.0
I288
tp176
a(g2
F535.0
I301
tp177
a(g2
F536.0
I292
tp178
a(g2
F537.0
I301
tp179
a(g2
F538.0
I294
tp180
a(g2
F539.0
I295
tp181
a(g2
F540.0
I299
tp182
a(g2
F541.0
I302
tp183
a(g2
F542.0
I328
tp184
a(g2
F543.0
I316
tp185
a(g2
F544.0
I326
tp186
a(g2
F545.0
I327
tp187
a(g2
F546.0
I332
tp188
a(g2
F547.0
I329
tp189
a(g2
F548.0
I359
tp190
a(g2
F549.0
I354
tp191
a(g2
F550.0
I357
tp192
a(g2
F551.0
I358
tp193
a(g2
F552.0
I374
tp194
a(g2
F553.0
I376
tp195
a(g2
F554.0
I354
tp196
a(g2
F555.0
I367
tp197
a(g2
F556.0
I363
tp198
a(g2
F557.0
I369
tp199
a(g2
F558.0
I367
tp200
a(g2
F559.0
I403
tp201
a(g2
F560.0
I382
tp202
a(g2
F561.0
I399
tp203
a(g2
F562.0
I412
tp204
a(g2
F563.0
I390
tp205
a(g2
F564.0
I401
tp206
a(g2
F565.0
I398
tp207
a(g2
F566.0
I412
tp208
a(g2
F567.0
I403
tp209
a(g2
F568.0
I404
tp210
a(g2
F569.0
I419
tp211
aa(lp212
(g2
F894.0
I6
tp213
a(g2
F895.0
I2
tp214
a(g2
F896.0
I10
tp215
a(g2
F897.0
I9
tp216
a(g2
F898.0
I5
tp217
a(g2
F899.0
I13
tp218
a(g2
F900.0
I8
tp219
a(g2
F901.0
I9
tp220
a(g2
F902.0
I12
tp221
a(g2
F903.0
I14
tp222
a(g2
F904.0
I16
tp223
a(g2
F905.0
I16
tp224
a(g2
F906.0
I17
tp225
a(g2
F907.0
I17
tp226
a(g2
F908.0
I20
tp227
a(g2
F909.0
I25
tp228
a(g2
F910.0
I18
tp229
a(g2
F911.0
I23
tp230
a(g2
F912.0
I21
tp231
a(g2
F913.0
I22
tp232
a(g2
F914.0
I22
tp233
a(g2
F915.0
I31
tp234
a(g2
F916.0
I29
tp235
a(g2
F917.0
I25
tp236
a(g2
F918.0
I35
tp237
a(g2
F919.0
I35
tp238
a(g2
F920.0
I37
tp239
a(g2
F921.0
I38
tp240
a(g2
F922.0
I47
tp241
a(g2
F923.0
I60
tp242
a(g2
F924.0
I48
tp243
a(g2
F925.0
I53
tp244
a(g2
F926.0
I60
tp245
a(g2
F927.0
I70
tp246
a(g2
F928.0
I61
tp247
a(g2
F929.0
I76
tp248
a(g2
F930.0
I82
tp249
a(g2
F931.0
I89
tp250
a(g2
F932.0
I99
tp251
a(g2
F933.0
I79
tp252
a(g2
F934.0
I101
tp253
a(g2
F935.0
I93
tp254
a(g2
F936.0
I110
tp255
a(g2
F937.0
I106
tp256
a(g2
F938.0
I110
tp257
a(g2
F939.0
I113
tp258
a(g2
F940.0
I132
tp259
a(g2
F941.0
I136
tp260
a(g2
F942.0
I142
tp261
a(g2
F943.0
I154
tp262
a(g2
F944.0
I143
tp263
a(g2
F945.0
I152
tp264
a(g2
F946.0
I168
tp265
a(g2
F947.0
I170
tp266
a(g2
F948.0
I184
tp267
a(g2
F949.0
I193
tp268
a(g2
F950.0
I201
tp269
a(g2
F951.0
I191
tp270
a(g2
F952.0
I195
tp271
a(g2
F953.0
I217
tp272
a(g2
F954.0
I240
tp273
a(g2
F955.0
I223
tp274
a(g2
F956.0
I236
tp275
a(g2
F957.0
I237
tp276
a(g2
F958.0
I241
tp277
a(g2
F959.0
I265
tp278
a(g2
F960.0
I257
tp279
a(g2
F961.0
I290
tp280
a(g2
F962.0
I278
tp281
a(g2
F963.0
I289
tp282
a(g2
F964.0
I288
tp283
a(g2
F965.0
I272
tp284
a(g2
F966.0
I286
tp285
a(g2
F967.0
I303
tp286
a(g2
F968.0
I316
tp287
a(g2
F969.0
I313
tp288
a(g2
F970.0
I320
tp289
a(g2
F971.0
I336
tp290
a(g2
F972.0
I338
tp291
a(g2
F973.0
I327
tp292
a(g2
F974.0
I328
tp293
a(g2
F975.0
I361
tp294
a(g2
F976.0
I351
tp295
a(g2
F977.0
I351
tp296
a(g2
F978.0
I365
tp297
a(g2
F979.0
I375
tp298
a(g2
F980.0
I369
tp299
a(g2
F981.0
I382
tp300
a(g2
F982.0
I381
tp301
a(g2
F983.0
I399
tp302
a(g2
F984.0
I402
tp303
a(g2
F985.0
I382
tp304
a(g2
F986.0
I406
tp305
a(g2
F987.0
I405
tp306
a(g2
F988.0
I409
tp307
a(g2
F989.0
I404
tp308
a(g2
F990.0
I401
tp309
a(g2
F991.0
I420
tp310
a(g2
F992.0
I425
tp311
a(g2
F993.0
I420
tp312
a(g2
F994.0
I430
tp313
a(g2
F995.0
I423
tp314
a(g2
F996.0
I433
tp315
a(g2
F997.0
I411
tp316
aa.