(lp0
(lp1
(S'Week = '
p2
I0
I21
tp3
a(g2
I1
I42
tp4
a(g2
I2
I66
tp5
a(g2
I3
I89
tp6
a(g2
I4
I110
tp7
a(g2
I5
I136
tp8
a(g2
I6
I161
tp9
a(g2
I7
I187
tp10
a(g2
I8
I213
tp11
a(g2
I9
I233
tp12
a(g2
I10
I246
tp13
a(g2
I11
I267
tp14
a(g2
I12
I285
tp15
a(g2
I13
I292
tp16
a(g2
I14
I314
tp17
a(g2
I15
I334
tp18
a(g2
I16
I358
tp19
a(g2
I17
I375
tp20
a(g2
I18
I396
tp21
a(g2
I19
I412
tp22
a(g2
I20
I424
tp23
a(g2
I21
I446
tp24
a(g2
I22
I463
tp25
a(g2
I23
I478
tp26
a(g2
I24
I495
tp27
a(g2
I25
I510
tp28
a(g2
I26
I530
tp29
a(g2
I27
I542
tp30
a(g2
I28
I563
tp31
a(g2
I29
I578
tp32
a(g2
I30
I592
tp33
a(g2
I31
I603
tp34
a(g2
I32
I622
tp35
a(g2
I33
I630
tp36
a(g2
I34
I637
tp37
a(g2
I35
I653
tp38
a(g2
I36
I658
tp39
a(g2
I37
I671
tp40
a(g2
I38
I683
tp41
a(g2
I39
I695
tp42
a(g2
I40
I707
tp43
a(g2
I41
I724
tp44
a(g2
I42
I733
tp45
a(g2
I43
I731
tp46
a(g2
I44
I740
tp47
a(g2
I45
I748
tp48
a(g2
I46
I757
tp49
a(g2
I47
I760
tp50
a(g2
I48
I773
tp51
a(g2
I49
I784
tp52
a(g2
I50
I794
tp53
a(g2
I51
I801
tp54
a(g2
I52
I802
tp55
a(g2
I53
I808
tp56
a(g2
I54
I810
tp57
a(g2
I55
I826
tp58
a(g2
I56
I835
tp59
a(g2
I57
I848
tp60
a(g2
I58
I855
tp61
a(g2
I59
I864
tp62
a(g2
I60
I863
tp63
a(g2
I61
I864
tp64
a(g2
I62
I873
tp65
a(g2
I63
I889
tp66
a(g2
I64
I900
tp67
a(g2
I65
I906
tp68
a(g2
I66
I906
tp69
a(g2
I67
I917
tp70
a(g2
I68
I932
tp71
a(g2
I69
I946
tp72
a(g2
I70
I957
tp73
a(g2
I71
I963
tp74
a(g2
I72
I962
tp75
a(g2
I73
I976
tp76
a(g2
I74
I984
tp77
a(g2
I75
I986
tp78
a(g2
I76
I997
tp79
a(g2
I77
I1005
tp80
a(g2
I78
I1007
tp81
a(g2
I79
I1018
tp82
a(g2
I80
I1025
tp83
a(g2
I81
I1022
tp84
a(g2
I82
I1028
tp85
a(g2
I83
I1034
tp86
a(g2
I84
I1035
tp87
a(g2
I85
I1036
tp88
a(g2
I86
I1043
tp89
a(g2
I87
I1043
tp90
a(g2
I88
I1048
tp91
a(g2
I89
I1049
tp92
a(g2
I90
I1051
tp93
a(g2
I91
I1051
tp94
a(g2
I92
I1063
tp95
a(g2
I93
I1058
tp96
a(g2
I94
I1054
tp97
a(g2
I95
I1060
tp98
a(g2
I96
I1050
tp99
a(g2
I97
I1045
tp100
a(g2
I98
I1040
tp101
a(g2
I99
I1044
tp102
a(g2
I100
I1053
tp103
a(g2
I101
I1054
tp104
a(g2
I102
I1050
tp105
a(g2
I103
I1049
tp106
aa(lp107
(g2
F466.0
I15
tp108
a(g2
F467.0
I35
tp109
a(g2
F468.0
I62
tp110
a(g2
F469.0
I80
tp111
a(g2
F470.0
I101
tp112
a(g2
F471.0
I124
tp113
a(g2
F472.0
I144
tp114
a(g2
F473.0
I165
tp115
a(g2
F474.0
I189
tp116
a(g2
F475.0
I211
tp117
a(g2
F476.0
I224
tp118
a(g2
F477.0
I244
tp119
a(g2
F478.0
I262
tp120
a(g2
F479.0
I281
tp121
a(g2
F480.0
I298
tp122
a(g2
F481.0
I322
tp123
a(g2
F482.0
I334
tp124
a(g2
F483.0
I357
tp125
a(g2
F484.0
I373
tp126
a(g2
F485.0
I390
tp127
a(g2
F486.0
I410
tp128
a(g2
F487.0
I422
tp129
a(g2
F488.0
I441
tp130
a(g2
F489.0
I459
tp131
a(g2
F490.0
I475
tp132
a(g2
F491.0
I491
tp133
a(g2
F492.0
I512
tp134
a(g2
F493.0
I525
tp135
a(g2
F494.0
I538
tp136
a(g2
F495.0
I549
tp137
a(g2
F496.0
I565
tp138
a(g2
F497.0
I580
tp139
a(g2
F498.0
I590
tp140
a(g2
F499.0
I596
tp141
a(g2
F500.0
I613
tp142
a(g2
F501.0
I621
tp143
a(g2
F502.0
I639
tp144
a(g2
F503.0
I645
tp145
a(g2
F504.0
I654
tp146
a(g2
F505.0
I660
tp147
a(g2
F506.0
I677
tp148
a(g2
F507.0
I687
tp149
a(g2
F508.0
I702
tp150
a(g2
F509.0
I713
tp151
a(g2
F510.0
I720
tp152
a(g2
F511.0
I727
tp153
a(g2
F512.0
I737
tp154
a(g2
F513.0
I748
tp155
a(g2
F514.0
I759
tp156
a(g2
F515.0
I769
tp157
a(g2
F516.0
I786
tp158
a(g2
F517.0
I804
tp159
a(g2
F518.0
I808
tp160
a(g2
F519.0
I813
tp161
a(g2
F520.0
I818
tp162
a(g2
F521.0
I826
tp163
a(g2
F522.0
I843
tp164
a(g2
F523.0
I848
tp165
a(g2
F524.0
I847
tp166
a(g2
F525.0
I851
tp167
a(g2
F526.0
I860
tp168
a(g2
F527.0
I870
tp169
a(g2
F528.0
I868
tp170
a(g2
F529.0
I868
tp171
a(g2
F530.0
I875
tp172
a(g2
F531.0
I883
tp173
a(g2
F532.0
I887
tp174
a(g2
F533.0
I895
tp175
a(g2
F534.0
I892
tp176
a(g2
F535.0
I893
tp177
a(g2
F536.0
I896
tp178
a(g2
F537.0
I897
tp179
a(g2
F538.0
I897
tp180
a(g2
F539.0
I893
tp181
a(g2
F540.0
I897
tp182
a(g2
F541.0
I905
tp183
a(g2
F542.0
I914
tp184
a(g2
F543.0
I917
tp185
a(g2
F544.0
I922
tp186
a(g2
F545.0
I931
tp187
a(g2
F546.0
I940
tp188
a(g2
F547.0
I947
tp189
a(g2
F548.0
I946
tp190
a(g2
F549.0
I953
tp191
a(g2
F550.0
I954
tp192
a(g2
F551.0
I962
tp193
a(g2
F552.0
I973
tp194
a(g2
F553.0
I976
tp195
a(g2
F554.0
I980
tp196
a(g2
F555.0
I977
tp197
a(g2
F556.0
I981
tp198
a(g2
F557.0
I982
tp199
a(g2
F558.0
I985
tp200
a(g2
F559.0
I997
tp201
a(g2
F560.0
I999
tp202
a(g2
F561.0
I1008
tp203
a(g2
F562.0
I1017
tp204
a(g2
F563.0
I1023
tp205
a(g2
F564.0
I1026
tp206
a(g2
F565.0
I1029
tp207
a(g2
F566.0
I1038
tp208
a(g2
F567.0
I1036
tp209
a(g2
F568.0
I1036
tp210
a(g2
F569.0
I1042
tp211
aa(lp212
(g2
F894.0
I20
tp213
a(g2
F895.0
I38
tp214
a(g2
F896.0
I59
tp215
a(g2
F897.0
I76
tp216
a(g2
F898.0
I94
tp217
a(g2
F899.0
I111
tp218
a(g2
F900.0
I129
tp219
a(g2
F901.0
I148
tp220
a(g2
F902.0
I171
tp221
a(g2
F903.0
I191
tp222
a(g2
F904.0
I216
tp223
a(g2
F905.0
I237
tp224
a(g2
F906.0
I255
tp225
a(g2
F907.0
I271
tp226
a(g2
F908.0
I289
tp227
a(g2
F909.0
I309
tp228
a(g2
F910.0
I332
tp229
a(g2
F911.0
I348
tp230
a(g2
F912.0
I365
tp231
a(g2
F913.0
I386
tp232
a(g2
F914.0
I400
tp233
a(g2
F915.0
I419
tp234
a(g2
F916.0
I432
tp235
a(g2
F917.0
I447
tp236
a(g2
F918.0
I458
tp237
a(g2
F919.0
I479
tp238
a(g2
F920.0
I488
tp239
a(g2
F921.0
I502
tp240
a(g2
F922.0
I512
tp241
a(g2
F923.0
I527
tp242
a(g2
F924.0
I540
tp243
a(g2
F925.0
I550
tp244
a(g2
F926.0
I563
tp245
a(g2
F927.0
I577
tp246
a(g2
F928.0
I587
tp247
a(g2
F929.0
I590
tp248
a(g2
F930.0
I609
tp249
a(g2
F931.0
I611
tp250
a(g2
F932.0
I618
tp251
a(g2
F933.0
I627
tp252
a(g2
F934.0
I639
tp253
a(g2
F935.0
I639
tp254
a(g2
F936.0
I650
tp255
a(g2
F937.0
I672
tp256
a(g2
F938.0
I677
tp257
a(g2
F939.0
I692
tp258
a(g2
F940.0
I707
tp259
a(g2
F941.0
I719
tp260
a(g2
F942.0
I728
tp261
a(g2
F943.0
I747
tp262
a(g2
F944.0
I755
tp263
a(g2
F945.0
I754
tp264
a(g2
F946.0
I766
tp265
a(g2
F947.0
I776
tp266
a(g2
F948.0
I797
tp267
a(g2
F949.0
I804
tp268
a(g2
F950.0
I816
tp269
a(g2
F951.0
I817
tp270
a(g2
F952.0
I828
tp271
a(g2
F953.0
I845
tp272
a(g2
F954.0
I849
tp273
a(g2
F955.0
I846
tp274
a(g2
F956.0
I856
tp275
a(g2
F957.0
I871
tp276
a(g2
F958.0
I875
tp277
a(g2
F959.0
I884
tp278
a(g2
F960.0
I886
tp279
a(g2
F961.0
I892
tp280
a(g2
F962.0
I896
tp281
a(g2
F963.0
I888
tp282
a(g2
F964.0
I895
tp283
a(g2
F965.0
I896
tp284
a(g2
F966.0
I903
tp285
a(g2
F967.0
I915
tp286
a(g2
F968.0
I915
tp287
a(g2
F969.0
I923
tp288
a(g2
F970.0
I937
tp289
a(g2
F971.0
I950
tp290
a(g2
F972.0
I963
tp291
a(g2
F973.0
I972
tp292
a(g2
F974.0
I972
tp293
a(g2
F975.0
I973
tp294
a(g2
F976.0
I975
tp295
a(g2
F977.0
I989
tp296
a(g2
F978.0
I998
tp297
a(g2
F979.0
I1001
tp298
a(g2
F980.0
I997
tp299
a(g2
F981.0
I1006
tp300
a(g2
F982.0
I1007
tp301
a(g2
F983.0
I1013
tp302
a(g2
F984.0
I1011
tp303
a(g2
F985.0
I1009
tp304
a(g2
F986.0
I1014
tp305
a(g2
F987.0
I1024
tp306
a(g2
F988.0
I1028
tp307
a(g2
F989.0
I1022
tp308
a(g2
F990.0
I1016
tp309
a(g2
F991.0
I1015
tp310
a(g2
F992.0
I1020
tp311
a(g2
F993.0
I1020
tp312
a(g2
F994.0
I1019
tp313
a(g2
F995.0
I1020
tp314
a(g2
F996.0
I1019
tp315
a(g2
F997.0
I1019
tp316
aa.