(lp0
(lp1
(S'Week = '
p2
I0
I0
tp3
a(g2
I1
I1
tp4
a(g2
I2
I0
tp5
a(g2
I3
I0
tp6
a(g2
I4
I0
tp7
a(g2
I5
I2
tp8
a(g2
I6
I3
tp9
a(g2
I7
I4
tp10
a(g2
I8
I2
tp11
a(g2
I9
I3
tp12
a(g2
I10
I7
tp13
a(g2
I11
I6
tp14
a(g2
I12
I5
tp15
a(g2
I13
I6
tp16
a(g2
I14
I7
tp17
a(g2
I15
I8
tp18
a(g2
I16
I8
tp19
a(g2
I17
I9
tp20
a(g2
I18
I8
tp21
a(g2
I19
I18
tp22
a(g2
I20
I15
tp23
a(g2
I21
I7
tp24
a(g2
I22
I14
tp25
a(g2
I23
I15
tp26
a(g2
I24
I24
tp27
a(g2
I25
I14
tp28
a(g2
I26
I18
tp29
a(g2
I27
I14
tp30
a(g2
I28
I20
tp31
a(g2
I29
I16
tp32
a(g2
I30
I20
tp33
a(g2
I31
I27
tp34
a(g2
I32
I18
tp35
a(g2
I33
I24
tp36
a(g2
I34
I27
tp37
a(g2
I35
I34
tp38
a(g2
I36
I30
tp39
a(g2
I37
I24
tp40
a(g2
I38
I53
tp41
a(g2
I39
I41
tp42
a(g2
I40
I57
tp43
a(g2
I41
I48
tp44
a(g2
I42
I58
tp45
a(g2
I43
I54
tp46
a(g2
I44
I65
tp47
a(g2
I45
I55
tp48
a(g2
I46
I83
tp49
a(g2
I47
I60
tp50
a(g2
I48
I86
tp51
a(g2
I49
I88
tp52
a(g2
I50
I101
tp53
a(g2
I51
I114
tp54
a(g2
I52
I118
tp55
a(g2
I53
I138
tp56
a(g2
I54
I145
tp57
a(g2
I55
I150
tp58
a(g2
I56
I156
tp59
a(g2
I57
I158
tp60
a(g2
I58
I176
tp61
a(g2
I59
I187
tp62
a(g2
I60
I179
tp63
a(g2
I61
I197
tp64
a(g2
I62
I186
tp65
a(g2
I63
I203
tp66
a(g2
I64
I205
tp67
a(g2
I65
I214
tp68
a(g2
I66
I224
tp69
a(g2
I67
I209
tp70
a(g2
I68
I229
tp71
a(g2
I69
I221
tp72
a(g2
I70
I244
tp73
a(g2
I71
I229
tp74
a(g2
I72
I242
tp75
a(g2
I73
I246
tp76
a(g2
I74
I252
tp77
a(g2
I75
I264
tp78
a(g2
I76
I263
tp79
a(g2
I77
I269
tp80
a(g2
I78
I276
tp81
a(g2
I79
I289
tp82
a(g2
I80
I294
tp83
a(g2
I81
I297
tp84
a(g2
I82
I304
tp85
a(g2
I83
I311
tp86
a(g2
I84
I308
tp87
a(g2
I85
I318
tp88
a(g2
I86
I326
tp89
a(g2
I87
I343
tp90
a(g2
I88
I323
tp91
a(g2
I89
I345
tp92
a(g2
I90
I345
tp93
a(g2
I91
I355
tp94
a(g2
I92
I344
tp95
a(g2
I93
I354
tp96
a(g2
I94
I356
tp97
a(g2
I95
I356
tp98
a(g2
I96
I362
tp99
a(g2
I97
I358
tp100
a(g2
I98
I347
tp101
a(g2
I99
I359
tp102
a(g2
I100
I362
tp103
a(g2
I101
I367
tp104
a(g2
I102
I371
tp105
a(g2
I103
I381
tp106
aa(lp107
(g2
F466.0
I0
tp108
a(g2
F467.0
I0
tp109
a(g2
F468.0
I1
tp110
a(g2
F469.0
I0
tp111
a(g2
F470.0
I2
tp112
a(g2
F471.0
I1
tp113
a(g2
F472.0
I4
tp114
a(g2
F473.0
I4
tp115
a(g2
F474.0
I3
tp116
a(g2
F475.0
I4
tp117
a(g2
F476.0
I2
tp118
a(g2
F477.0
I6
tp119
a(g2
F478.0
I1
tp120
a(g2
F479.0
I7
tp121
a(g2
F480.0
I10
tp122
a(g2
F481.0
I6
tp123
a(g2
F482.0
I11
tp124
a(g2
F483.0
I8
tp125
a(g2
F484.0
I5
tp126
a(g2
F485.0
I5
tp127
a(g2
F486.0
I14
tp128
a(g2
F487.0
I12
tp129
a(g2
F488.0
I13
tp130
a(g2
F489.0
I6
tp131
a(g2
F490.0
I12
tp132
a(g2
F491.0
I15
tp133
a(g2
F492.0
I17
tp134
a(g2
F493.0
I20
tp135
a(g2
F494.0
I15
tp136
a(g2
F495.0
I18
tp137
a(g2
F496.0
I22
tp138
a(g2
F497.0
I17
tp139
a(g2
F498.0
I34
tp140
a(g2
F499.0
I35
tp141
a(g2
F500.0
I32
tp142
a(g2
F501.0
I28
tp143
a(g2
F502.0
I37
tp144
a(g2
F503.0
I39
tp145
a(g2
F504.0
I54
tp146
a(g2
F505.0
I57
tp147
a(g2
F506.0
I52
tp148
a(g2
F507.0
I55
tp149
a(g2
F508.0
I58
tp150
a(g2
F509.0
I65
tp151
a(g2
F510.0
I84
tp152
a(g2
F511.0
I76
tp153
a(g2
F512.0
I91
tp154
a(g2
F513.0
I91
tp155
a(g2
F514.0
I102
tp156
a(g2
F515.0
I103
tp157
a(g2
F516.0
I121
tp158
a(g2
F517.0
I125
tp159
a(g2
F518.0
I134
tp160
a(g2
F519.0
I132
tp161
a(g2
F520.0
I150
tp162
a(g2
F521.0
I153
tp163
a(g2
F522.0
I163
tp164
a(g2
F523.0
I169
tp165
a(g2
F524.0
I165
tp166
a(g2
F525.0
I187
tp167
a(g2
F526.0
I172
tp168
a(g2
F527.0
I201
tp169
a(g2
F528.0
I178
tp170
a(g2
F529.0
I194
tp171
a(g2
F530.0
I195
tp172
a(g2
F531.0
I206
tp173
a(g2
F532.0
I207
tp174
a(g2
F533.0
I213
tp175
a(g2
F534.0
I219
tp176
a(g2
F535.0
I214
tp177
a(g2
F536.0
I225
tp178
a(g2
F537.0
I225
tp179
a(g2
F538.0
I237
tp180
a(g2
F539.0
I247
tp181
a(g2
F540.0
I253
tp182
a(g2
F541.0
I242
tp183
a(g2
F542.0
I256
tp184
a(g2
F543.0
I253
tp185
a(g2
F544.0
I255
tp186
a(g2
F545.0
I271
tp187
a(g2
F546.0
I270
tp188
a(g2
F547.0
I278
tp189
a(g2
F548.0
I277
tp190
a(g2
F549.0
I291
tp191
a(g2
F550.0
I283
tp192
a(g2
F551.0
I297
tp193
a(g2
F552.0
I285
tp194
a(g2
F553.0
I302
tp195
a(g2
F554.0
I301
tp196
a(g2
F555.0
I304
tp197
a(g2
F556.0
I317
tp198
a(g2
F557.0
I319
tp199
a(g2
F558.0
I310
tp200
a(g2
F559.0
I313
tp201
a(g2
F560.0
I309
tp202
a(g2
F561.0
I313
tp203
a(g2
F562.0
I330
tp204
a(g2
F563.0
I328
tp205
a(g2
F564.0
I330
tp206
a(g2
F565.0
I333
tp207
a(g2
F566.0
I333
tp208
a(g2
F567.0
I346
tp209
a(g2
F568.0
I354
tp210
a(g2
F569.0
I360
tp211
aa(lp212
(g2
F894.0
I0
tp213
a(g2
F895.0
I0
tp214
a(g2
F896.0
I0
tp215
a(g2
F897.0
I2
tp216
a(g2
F898.0
I0
tp217
a(g2
F899.0
I3
tp218
a(g2
F900.0
I1
tp219
a(g2
F901.0
I0
tp220
a(g2
F902.0
I2
tp221
a(g2
F903.0
I4
tp222
a(g2
F904.0
I4
tp223
a(g2
F905.0
I4
tp224
a(g2
F906.0
I4
tp225
a(g2
F907.0
I7
tp226
a(g2
F908.0
I6
tp227
a(g2
F909.0
I11
tp228
a(g2
F910.0
I4
tp229
a(g2
F911.0
I8
tp230
a(g2
F912.0
I7
tp231
a(g2
F913.0
I4
tp232
a(g2
F914.0
I19
tp233
a(g2
F915.0
I7
tp234
a(g2
F916.0
I12
tp235
a(g2
F917.0
I7
tp236
a(g2
F918.0
I20
tp237
a(g2
F919.0
I13
tp238
a(g2
F920.0
I15
tp239
a(g2
F921.0
I20
tp240
a(g2
F922.0
I13
tp241
a(g2
F923.0
I22
tp242
a(g2
F924.0
I19
tp243
a(g2
F925.0
I26
tp244
a(g2
F926.0
I27
tp245
a(g2
F927.0
I32
tp246
a(g2
F928.0
I24
tp247
a(g2
F929.0
I34
tp248
a(g2
F930.0
I31
tp249
a(g2
F931.0
I28
tp250
a(g2
F932.0
I44
tp251
a(g2
F933.0
I45
tp252
a(g2
F934.0
I47
tp253
a(g2
F935.0
I54
tp254
a(g2
F936.0
I57
tp255
a(g2
F937.0
I64
tp256
a(g2
F938.0
I64
tp257
a(g2
F939.0
I76
tp258
a(g2
F940.0
I77
tp259
a(g2
F941.0
I91
tp260
a(g2
F942.0
I85
tp261
a(g2
F943.0
I101
tp262
a(g2
F944.0
I93
tp263
a(g2
F945.0
I105
tp264
a(g2
F946.0
I110
tp265
a(g2
F947.0
I99
tp266
a(g2
F948.0
I129
tp267
a(g2
F949.0
I121
tp268
a(g2
F950.0
I137
tp269
a(g2
F951.0
I146
tp270
a(g2
F952.0
I137
tp271
a(g2
F953.0
I158
tp272
a(g2
F954.0
I139
tp273
a(g2
F955.0
I162
tp274
a(g2
F956.0
I176
tp275
a(g2
F957.0
I169
tp276
a(g2
F958.0
I201
tp277
a(g2
F959.0
I187
tp278
a(g2
F960.0
I200
tp279
a(g2
F961.0
I203
tp280
a(g2
F962.0
I216
tp281
a(g2
F963.0
I220
tp282
a(g2
F964.0
I210
tp283
a(g2
F965.0
I225
tp284
a(g2
F966.0
I232
tp285
a(g2
F967.0
I220
tp286
a(g2
F968.0
I235
tp287
a(g2
F969.0
I242
tp288
a(g2
F970.0
I248
tp289
a(g2
F971.0
I273
tp290
a(g2
F972.0
I263
tp291
a(g2
F973.0
I284
tp292
a(g2
F974.0
I269
tp293
a(g2
F975.0
I274
tp294
a(g2
F976.0
I284
tp295
a(g2
F977.0
I284
tp296
a(g2
F978.0
I289
tp297
a(g2
F979.0
I294
tp298
a(g2
F980.0
I311
tp299
a(g2
F981.0
I313
tp300
a(g2
F982.0
I315
tp301
a(g2
F983.0
I322
tp302
a(g2
F984.0
I329
tp303
a(g2
F985.0
I335
tp304
a(g2
F986.0
I333
tp305
a(g2
F987.0
I341
tp306
a(g2
F988.0
I330
tp307
a(g2
F989.0
I343
tp308
a(g2
F990.0
I341
tp309
a(g2
F991.0
I352
tp310
a(g2
F992.0
I334
tp311
a(g2
F993.0
I361
tp312
a(g2
F994.0
I343
tp313
a(g2
F995.0
I354
tp314
a(g2
F996.0
I360
tp315
a(g2
F997.0
I360
tp316
aa.