(lp0
(lp1
(S'week = '
p2
I0
cnumpy.core.multiarray
scalar
p3
(cnumpy
dtype
p4
(S'f8'
p5
I0
I1
tp6
Rp7
(I3
S'<'
p8
NNNI-1
I-1
I0
tp9
bS'\xfd\xc9\x85\x14oDA@'
p10
tp11
Rp12
tp13
a(g2
I1
g3
(g7
S'\x99\xf5s\xd8\xc3ga@'
p14
tp15
Rp16
tp17
a(g2
I2
g3
(g7
S'\xe1\xff\xf0B\xd0\xb3S@'
p18
tp19
Rp20
tp21
a(g2
I3
g3
(g7
S'\xcd7,W\xdeLU@'
p22
tp23
Rp24
tp25
a(g2
I4
g3
(g7
S'Jn\x84\x1c\xf2\xebe@'
p26
tp27
Rp28
tp29
a(g2
I5
g3
(g7
S'\xab\xf4\x0c\xd4MjZ@'
p30
tp31
Rp32
tp33
a(g2
I6
g3
(g7
S'\x80Uq\x83\xdc\x85`@'
p34
tp35
Rp36
tp37
a(g2
I7
g3
(g7
S'\x15\xe4\xe9Yk\x06^@'
p38
tp39
Rp40
tp41
a(g2
I8
g3
(g7
S'\x1bu>\xfd\xdb\xa9f@'
p42
tp43
Rp44
tp45
a(g2
I9
g3
(g7
S'2\xe4b5\x7f\xe8]@'
p46
tp47
Rp48
tp49
a(g2
I10
g3
(g7
S'\xa1Y>\xb3C\x15`@'
p50
tp51
Rp52
tp53
a(g2
I11
g3
(g7
S'\x86~n!8\x84R@'
p54
tp55
Rp56
tp57
a(g2
I12
g3
(g7
S'\x8d\x16-\xb9*G\\@'
p58
tp59
Rp60
tp61
a(g2
I13
g3
(g7
S'\x9e\x8b\xf5\xb1W\x84[@'
p62
tp63
Rp64
tp65
a(g2
I14
g3
(g7
S'?\x9c3\x90r\x05W@'
p66
tp67
Rp68
tp69
a(g2
I15
g3
(g7
S'\x0e\xcb.\x96)!f@'
p70
tp71
Rp72
tp73
a(g2
I16
g3
(g7
S'\xe04Tv>\xede@'
p74
tp75
Rp76
tp77
a(g2
I17
g3
(g7
S'\x19\xe0\xcf/gqZ@'
p78
tp79
Rp80
tp81
a(g2
I18
g3
(g7
S'w\x1b\xe8h\xac4b@'
p82
tp83
Rp84
tp85
a(g2
I19
g3
(g7
S'\x0f\xae\xc8J\xc45D@'
p86
tp87
Rp88
tp89
a(g2
I20
g3
(g7
S'\xf0\x81\xf7M\xc6\xf2Y@'
p90
tp91
Rp92
tp93
a(g2
I21
g3
(g7
S'\xb8uelp\xaa`@'
p94
tp95
Rp96
tp97
a(g2
I22
g3
(g7
S'\\7B\xe9\xe3La@'
p98
tp99
Rp100
tp101
a(g2
I23
g3
(g7
S'\xfe\xe0\x0fgiNi@'
p102
tp103
Rp104
tp105
a(g2
I24
g3
(g7
S'\x80\xdb3Pq\xd8]@'
p106
tp107
Rp108
tp109
a(g2
I25
g3
(g7
S'c\xe7\xc8B\\KV@'
p110
tp111
Rp112
tp113
a(g2
I26
g3
(g7
S'c\xf4\x10P\x9eqi@'
p114
tp115
Rp116
tp117
a(g2
I27
g3
(g7
S'\x91\xe0\x93\xe9\xba\t`@'
p118
tp119
Rp120
tp121
a(g2
I28
g3
(g7
S'\x9aa\xb9\x7f\x1e\x0ee@'
p122
tp123
Rp124
tp125
a(g2
I29
g3
(g7
S'7\xd3:\xb9\x1f\xc6Z@'
p126
tp127
Rp128
tp129
a(g2
I30
g3
(g7
S';\xf4\xf8\x061\xd0\\@'
p130
tp131
Rp132
tp133
a(g2
I31
g3
(g7
S'\r\xd8=\x9e\xaa4h@'
p134
tp135
Rp136
tp137
a(g2
I32
g3
(g7
S')\xa5N/J\x8fa@'
p138
tp139
Rp140
tp141
a(g2
I33
g3
(g7
S'^L\xc8\x1c\x88\x9e^@'
p142
tp143
Rp144
tp145
a(g2
I34
g3
(g7
S'\xb7\xed\xd7\xb1\xe3K^@'
p146
tp147
Rp148
tp149
a(g2
I35
g3
(g7
S'D\xe7\xca\xd4\t\xd9\\@'
p150
tp151
Rp152
tp153
a(g2
I36
g3
(g7
S'it\xd6\x81u\xcb\\@'
p154
tp155
Rp156
tp157
a(g2
I37
g3
(g7
S'\x18\xc1\x0e\x0e=\xda_@'
p158
tp159
Rp160
tp161
a(g2
I38
g3
(g7
S'\xf2\xd9t\x99\x13\xaaa@'
p162
tp163
Rp164
tp165
a(g2
I39
g3
(g7
S'\x16\xc5z\x12\x00jY@'
p166
tp167
Rp168
tp169
a(g2
I40
g3
(g7
S'\x00\x97\xcf\xaa\xda\x1ab@'
p170
tp171
Rp172
tp173
a(g2
I41
g3
(g7
S'\x9b\x97`\x06\x11\xda\\@'
p174
tp175
Rp176
tp177
a(g2
I42
g3
(g7
S'\xb73\xbaEp`_@'
p178
tp179
Rp180
tp181
a(g2
I43
g3
(g7
S'\x1b\xbeJ\x1fzab@'
p182
tp183
Rp184
tp185
a(g2
I44
g3
(g7
S'S\xe91\x04<J\\@'
p186
tp187
Rp188
tp189
a(g2
I45
g3
(g7
S'\xe4\x81\xc6\xc3\x88\xa7c@'
p190
tp191
Rp192
tp193
a(g2
I46
g3
(g7
S'a\xdb\xf4b\xec,a@'
p194
tp195
Rp196
tp197
a(g2
I47
g3
(g7
S'\xb2\x14B\x9f\x88\xb6`@'
p198
tp199
Rp200
tp201
a(g2
I48
g3
(g7
S'*\xdb\xf6S\xf2\xb8_@'
p202
tp203
Rp204
tp205
a(g2
I49
g3
(g7
S'l!\xc0#\xac\x8e\\@'
p206
tp207
Rp208
tp209
a(g2
I50
g3
(g7
S'\x19\x01\x03\x07\xcd\xb2`@'
p210
tp211
Rp212
tp213
a(g2
I51
g3
(g7
S'b\xb2\xa0L\xb2\xc8_@'
p214
tp215
Rp216
tp217
a(g2
I52
g3
(g7
S'\xde\x87`\xe9\xb2\x0f^@'
p218
tp219
Rp220
tp221
a(g2
I53
g3
(g7
S'\xb7\xef\x01\x82\x1e\xadZ@'
p222
tp223
Rp224
tp225
a(g2
I54
g3
(g7
S'\xe2"\xaf\x06\xdcmb@'
p226
tp227
Rp228
tp229
a(g2
I55
g3
(g7
S'\x8bH+>W2[@'
p230
tp231
Rp232
tp233
a(g2
I56
g3
(g7
S'\xaa\xe7\xf7/c\xc0Z@'
p234
tp235
Rp236
tp237
a(g2
I57
g3
(g7
S'J\xa8\xfc\xc7\xe5\x18]@'
p238
tp239
Rp240
tp241
a(g2
I58
g3
(g7
S'\xf8\xb1\xa8\xb6\x8fE_@'
p242
tp243
Rp244
tp245
a(g2
I59
g3
(g7
S'\x85\xc0\xd4`>\x1b`@'
p246
tp247
Rp248
tp249
a(g2
I60
g3
(g7
S'\x0fW\x82\xf2N?[@'
p250
tp251
Rp252
tp253
a(g2
I61
g3
(g7
S'\xe1*\xec+h\xdb^@'
p254
tp255
Rp256
tp257
a(g2
I62
g3
(g7
S'\xfe\x02\xeaF\x0b\xce`@'
p258
tp259
Rp260
tp261
a(g2
I63
g3
(g7
S'0q\x02\xf3\x0f\x07_@'
p262
tp263
Rp264
tp265
a(g2
I64
g3
(g7
S'F\x9a7\xd4\xdb\xb5Y@'
p266
tp267
Rp268
tp269
a(g2
I65
g3
(g7
S'\xd3/\xb5*\xfb\xc1a@'
p270
tp271
Rp272
tp273
a(g2
I66
g3
(g7
S'\x14Thl\xe99^@'
p274
tp275
Rp276
tp277
a(g2
I67
g3
(g7
S'Q\xe4q\x9c\x11\xd2`@'
p278
tp279
Rp280
tp281
a(g2
I68
g3
(g7
S'\xe7~N\xd3@>]@'
p282
tp283
Rp284
tp285
a(g2
I69
g3
(g7
S'~\xc4\xa1\xab\xe3\na@'
p286
tp287
Rp288
tp289
a(g2
I70
g3
(g7
S'\npW}\xc4\xd8\\@'
p290
tp291
Rp292
tp293
a(g2
I71
g3
(g7
S'\x17\xf4\xa0\xae\xea\x0c_@'
p294
tp295
Rp296
tp297
a(g2
I72
g3
(g7
S'\x81\xba[\xac`[]@'
p298
tp299
Rp300
tp301
a(g2
I73
g3
(g7
S'{\xdf\\#^Z[@'
p302
tp303
Rp304
tp305
a(g2
I74
g3
(g7
S'\xd6\xfcdT\xef\xe1`@'
p306
tp307
Rp308
tp309
a(g2
I75
g3
(g7
S'l\xd5\xe4\xe0\xd0s\\@'
p310
tp311
Rp312
tp313
a(g2
I76
g3
(g7
S'1.\xee\x0ch6_@'
p314
tp315
Rp316
tp317
a(g2
I77
g3
(g7
S'\xfc\xef\x9a\x08\xc4Q`@'
p318
tp319
Rp320
tp321
a(g2
I78
g3
(g7
S'\xb3{S\xb8\x8e\x9f`@'
p322
tp323
Rp324
tp325
a(g2
I79
g3
(g7
S'\xed\xa0\xda%\xc8\x08_@'
p326
tp327
Rp328
tp329
a(g2
I80
g3
(g7
S'\xf1\xcd\xf3\xe6T_]@'
p330
tp331
Rp332
tp333
a(g2
I81
g3
(g7
S'\x85>@\xd7+\xa0]@'
p334
tp335
Rp336
tp337
a(g2
I82
g3
(g7
S'\xb3\x9b\x1e\x86n"b@'
p338
tp339
Rp340
tp341
a(g2
I83
g3
(g7
S'\xdf\xb7!\xaexlZ@'
p342
tp343
Rp344
tp345
a(g2
I84
g3
(g7
S'x(\x04O\x00\xe8W@'
p346
tp347
Rp348
tp349
a(g2
I85
g3
(g7
S'\xc9\xe6-\xcd\xb8\x11b@'
p350
tp351
Rp352
tp353
a(g2
I86
g3
(g7
S'\x11 \xac<\xfa\x1e\\@'
p354
tp355
Rp356
tp357
a(g2
I87
g3
(g7
S's\xcc\x8f\xfe\xb3%\\@'
p358
tp359
Rp360
tp361
a(g2
I88
g3
(g7
S'\x9d*\x13_\x15\x88`@'
p362
tp363
Rp364
tp365
a(g2
I89
g3
(g7
S'\xab9)\xa0s\xdb^@'
p366
tp367
Rp368
tp369
a(g2
I90
g3
(g7
S'\xc9\xe6X\xd5\x01\xba^@'
p370
tp371
Rp372
tp373
a(g2
I91
g3
(g7
S'p\x15\xf7\xa3^\xde^@'
p374
tp375
Rp376
tp377
a(g2
I92
g3
(g7
S' \xfbq\x07\xfa\xaf_@'
p378
tp379
Rp380
tp381
a(g2
I93
g3
(g7
S'\x8d\xda\n\xbe\xb3C`@'
p382
tp383
Rp384
tp385
a(g2
I94
g3
(g7
S'\\\x06\x8aV@\x02a@'
p386
tp387
Rp388
tp389
a(g2
I95
g3
(g7
S'\x19\xa2\x82\xf64\x94`@'
p390
tp391
Rp392
tp393
a(g2
I96
g3
(g7
S'h*\xb0\xa6\xacx[@'
p394
tp395
Rp396
tp397
a(g2
I97
g3
(g7
S'3=\xaaJ*\xcb`@'
p398
tp399
Rp400
tp401
a(g2
I98
g3
(g7
S'H\x95\x12\x96\xb2\x91_@'
p402
tp403
Rp404
tp405
a(g2
I99
g3
(g7
S'\xbb\x84\xdd\x8ds\x15]@'
p406
tp407
Rp408
tp409
a(g2
I100
g3
(g7
S'\xcf\xab\x87N3\xbd]@'
p410
tp411
Rp412
tp413
a(g2
I101
g3
(g7
S'%\xed\x8c\x8e\xe5(^@'
p414
tp415
Rp416
tp417
a(g2
I102
g3
(g7
S'\xc3 \xfb\x06\x81\x1e]@'
p418
tp419
Rp420
tp421
a(g2
I103
g3
(g7
S'\xa1\xfb]\x84}\x0e_@'
p422
tp423
Rp424
tp425
aa(lp426
(g2
I0
g3
(g7
S'\xc3\xb0\xb9\xe2\xdc\xb9S@'
p427
tp428
Rp429
tp430
a(g2
I1
g3
(g7
S'\xb2\xaa\x81\x9a\x88M[@'
p431
tp432
Rp433
tp434
a(g2
I2
g3
(g7
S'\x8c\xc5\x0f\xa2+\xe6V@'
p435
tp436
Rp437
tp438
a(g2
I3
g3
(g7
S'\xe9\xac=\x1b\xf1\x9eN@'
p439
tp440
Rp441
tp442
a(g2
I4
g3
(g7
S'UQGq\x926[@'
p443
tp444
Rp445
tp446
a(g2
I5
g3
(g7
S'\xb7\xc5\xb8Ri\x03Z@'
p447
tp448
Rp449
tp450
a(g2
I6
g3
(g7
S"\x17\x84'\x19?3Z@"
p451
tp452
Rp453
tp454
a(g2
I7
g3
(g7
S'\tV\x85\xc9\x99\xdba@'
p455
tp456
Rp457
tp458
a(g2
I8
g3
(g7
S'\x8eM\xce\x81\xd3\xb7V@'
p459
tp460
Rp461
tp462
a(g2
I9
g3
(g7
S'0\xca\xf1\x03!\x13d@'
p463
tp464
Rp465
tp466
a(g2
I10
g3
(g7
S'\xe8E\x04n\x92\x92`@'
p467
tp468
Rp469
tp470
a(g2
I11
g3
(g7
S'\xa0\xb5\xe5yp>]@'
p471
tp472
Rp473
tp474
a(g2
I12
g3
(g7
S'\x87,\xc4k\xb6lW@'
p475
tp476
Rp477
tp478
a(g2
I13
g3
(g7
S'\x83o\x893\xd70`@'
p479
tp480
Rp481
tp482
a(g2
I14
g3
(g7
S'%\xdd\x10\xbe\x0e\x12d@'
p483
tp484
Rp485
tp486
a(g2
I15
g3
(g7
S'\xbe\x15\xa0)\xa9Q^@'
p487
tp488
Rp489
tp490
a(g2
I16
g3
(g7
S'\x83P\x7f\xbb\xdf\xb8b@'
p491
tp492
Rp493
tp494
a(g2
I17
g3
(g7
S"'\xbb_%\x81u[@"
p495
tp496
Rp497
tp498
a(g2
I18
g3
(g7
S'`!\x1a\x17!\xccS@'
p499
tp500
Rp501
tp502
a(g2
I19
g3
(g7
S'\xf9\xa1\xb7f\x06_b@'
p503
tp504
Rp505
tp506
a(g2
I20
g3
(g7
S'\xf5b\xbbhC`^@'
p507
tp508
Rp509
tp510
a(g2
I21
g3
(g7
S'\xe5py\x0eOTa@'
p511
tp512
Rp513
tp514
a(g2
I22
g3
(g7
S'x\xf9%\xc2\xa2df@'
p515
tp516
Rp517
tp518
a(g2
I23
g3
(g7
S'\xc1K\x0b\xfb({L@'
p519
tp520
Rp521
tp522
a(g2
I24
g3
(g7
S'tj\xa2\xfep=a@'
p523
tp524
Rp525
tp526
a(g2
I25
g3
(g7
S'M\xd1\xc0\xc6\xa1\xefX@'
p527
tp528
Rp529
tp530
a(g2
I26
g3
(g7
S'\x01\x1a\x87\x1fS\x96c@'
p531
tp532
Rp533
tp534
a(g2
I27
g3
(g7
S'\x99\x9a\x93\x14\xd9>_@'
p535
tp536
Rp537
tp538
a(g2
I28
g3
(g7
S'\xb0\xe9\x1e^L\xd8Z@'
p539
tp540
Rp541
tp542
a(g2
I29
g3
(g7
S'\xbe\xed\x15\x1a\x04\xe1b@'
p543
tp544
Rp545
tp546
a(g2
I30
g3
(g7
S'\xd5[\xe3X\xb3uX@'
p547
tp548
Rp549
tp550
a(g2
I31
g3
(g7
S'L\xf5f\t\xaaqV@'
p551
tp552
Rp553
tp554
a(g2
I32
g3
(g7
S'2@W\xcb*Z[@'
p555
tp556
Rp557
tp558
a(g2
I33
g3
(g7
S'\x9bc\x0e\xb2\xc8X]@'
p559
tp560
Rp561
tp562
a(g2
I34
g3
(g7
S'/~\x13\xe6\x07\xf2_@'
p563
tp564
Rp565
tp566
a(g2
I35
g3
(g7
S'\xd7Mm\x8b\xab\x84\\@'
p567
tp568
Rp569
tp570
a(g2
I36
g3
(g7
S'H<~I\xc1\xe8d@'
p571
tp572
Rp573
tp574
a(g2
I37
g3
(g7
S'R\xe9hW\x91jb@'
p575
tp576
Rp577
tp578
a(g2
I38
g3
(g7
S'\xcbh-Nm\x8f`@'
p579
tp580
Rp581
tp582
a(g2
I39
g3
(g7
S'(\xd3>\xf0;5[@'
p583
tp584
Rp585
tp586
a(g2
I40
g3
(g7
S'\xd7\x0eUd\xcf\x12X@'
p587
tp588
Rp589
tp590
a(g2
I41
g3
(g7
S'P_\xdd\x14\xdc9`@'
p591
tp592
Rp593
tp594
a(g2
I42
g3
(g7
S'\xd1\xf5\xa5\x19\xe9{^@'
p595
tp596
Rp597
tp598
a(g2
I43
g3
(g7
S'\x13Q"-~\x9a`@'
p599
tp600
Rp601
tp602
a(g2
I44
g3
(g7
S'\x9d)\xbc\xb0\x0e\xf3`@'
p603
tp604
Rp605
tp606
a(g2
I45
g3
(g7
S'\xbd+Yj\xb2\xfd^@'
p607
tp608
Rp609
tp610
a(g2
I46
g3
(g7
S'\xd9&t\xd3\xa6F`@'
p611
tp612
Rp613
tp614
a(g2
I47
g3
(g7
S'\xe6\xfa\t\x1a\xa5\xc6b@'
p615
tp616
Rp617
tp618
a(g2
I48
g3
(g7
S'A\x96+\x14P\xb3[@'
p619
tp620
Rp621
tp622
a(g2
I49
g3
(g7
S'\\\xc2\xdef\x9a\x84\\@'
p623
tp624
Rp625
tp626
a(g2
I50
g3
(g7
S'\x9a\x87\xaa\xab\x05?]@'
p627
tp628
Rp629
tp630
a(g2
I51
g3
(g7
S'\xede\xfaO;yc@'
p631
tp632
Rp633
tp634
a(g2
I52
g3
(g7
S'\xadn~\xfb\x90+^@'
p635
tp636
Rp637
tp638
a(g2
I53
g3
(g7
S'we?\xcch\xd1Z@'
p639
tp640
Rp641
tp642
a(g2
I54
g3
(g7
S'G;96\xb5E]@'
p643
tp644
Rp645
tp646
a(g2
I55
g3
(g7
S'q\xef\xa6\xa4\xa8\x81Y@'
p647
tp648
Rp649
tp650
a(g2
I56
g3
(g7
S'P\xbe\x14\x12\x88\xd9]@'
p651
tp652
Rp653
tp654
a(g2
I57
g3
(g7
S'\x0e\xe6\xed\x07\xd7*[@'
p655
tp656
Rp657
tp658
a(g2
I58
g3
(g7
S';\x91\xe1\x8bCl`@'
p659
tp660
Rp661
tp662
a(g2
I59
g3
(g7
S'\xd1\x1b\xe2\xb8\x8a\xca\\@'
p663
tp664
Rp665
tp666
a(g2
I60
g3
(g7
S'\r\xc2\xe2:AQa@'
p667
tp668
Rp669
tp670
a(g2
I61
g3
(g7
S'\xeb;\xc3j\xee\xd6b@'
p671
tp672
Rp673
tp674
a(g2
I62
g3
(g7
S'%\xfe\x17L\xa0V[@'
p675
tp676
Rp677
tp678
a(g2
I63
g3
(g7
S'\x8f\x9c\x19Z\xd8\x11^@'
p679
tp680
Rp681
tp682
a(g2
I64
g3
(g7
S'^\x0c\xb5\x99\xbf\xd7^@'
p683
tp684
Rp685
tp686
a(g2
I65
g3
(g7
S'\x02\x06C\x98k\x82`@'
p687
tp688
Rp689
tp690
a(g2
I66
g3
(g7
S'\xa0\x10\xa6\xbf\x84l_@'
p691
tp692
Rp693
tp694
a(g2
I67
g3
(g7
S'T\xdd\xd3\x99B\x16_@'
p695
tp696
Rp697
tp698
a(g2
I68
g3
(g7
S'%:\xb6q\\b]@'
p699
tp700
Rp701
tp702
a(g2
I69
g3
(g7
S'\xa4\xf9d\xa7_.`@'
p703
tp704
Rp705
tp706
a(g2
I70
g3
(g7
S'Q]Nl+$\\@'
p707
tp708
Rp709
tp710
a(g2
I71
g3
(g7
S'h\x9c\xf7\xaa{E\\@'
p711
tp712
Rp713
tp714
a(g2
I72
g3
(g7
S'\xcf\xce\xdc\x83\xcc\x93\\@'
p715
tp716
Rp717
tp718
a(g2
I73
g3
(g7
S'\xebA\xddF\xb24`@'
p719
tp720
Rp721
tp722
a(g2
I74
g3
(g7
S'\xed\x13^\xebN\x12b@'
p723
tp724
Rp725
tp726
a(g2
I75
g3
(g7
S'gkl\xf4\x05\x1b`@'
p727
tp728
Rp729
tp730
a(g2
I76
g3
(g7
S'Q\x8e\xd7\xce\x88\xd6^@'
p731
tp732
Rp733
tp734
a(g2
I77
g3
(g7
S'BO\x04B<\t]@'
p735
tp736
Rp737
tp738
a(g2
I78
g3
(g7
S'\xb0\x14\x8a\x1cEa`@'
p739
tp740
Rp741
tp742
a(g2
I79
g3
(g7
S'\x0b\xd6\x91\x91\x86\x89^@'
p743
tp744
Rp745
tp746
a(g2
I80
g3
(g7
S'\xfb\x1f4\xd4F\xfe`@'
p747
tp748
Rp749
tp750
a(g2
I81
g3
(g7
S'R\x8bQ\x9f\x80\xfc`@'
p751
tp752
Rp753
tp754
a(g2
I82
g3
(g7
S'\x01\xe1\xf1\xbbZ\xac]@'
p755
tp756
Rp757
tp758
a(g2
I83
g3
(g7
S'Fl\xf3\x82\x1dz`@'
p759
tp760
Rp761
tp762
a(g2
I84
g3
(g7
S'\xde]\xcf=\x99Ja@'
p763
tp764
Rp765
tp766
a(g2
I85
g3
(g7
S'\x13z\x99\xf8\xeb\x1f\\@'
p767
tp768
Rp769
tp770
a(g2
I86
g3
(g7
S'\xe1\xde\x89\xccV\x95a@'
p771
tp772
Rp773
tp774
a(g2
I87
g3
(g7
S'\xef\xbch\xeb\x98\xf4a@'
p775
tp776
Rp777
tp778
a(g2
I88
g3
(g7
S'(\xac\x18\x99\x90A^@'
p779
tp780
Rp781
tp782
a(g2
I89
g3
(g7
S'\x92\xdb\xdbi0\x1d`@'
p783
tp784
Rp785
tp786
a(g2
I90
g3
(g7
S'\x7f\xcf\xa8Eq\x97`@'
p787
tp788
Rp789
tp790
a(g2
I91
g3
(g7
S'\x0f\xf7D\xae\n\x8c[@'
p791
tp792
Rp793
tp794
a(g2
I92
g3
(g7
S'\x18\xf4\xdd\xb7i\xad_@'
p795
tp796
Rp797
tp798
a(g2
I93
g3
(g7
S'\n\x02\xff\x96\xf0K]@'
p799
tp800
Rp801
tp802
a(g2
I94
g3
(g7
S'mJ\x07\x12\x01/]@'
p803
tp804
Rp805
tp806
a(g2
I95
g3
(g7
S'#\x8d\xac\x7f\x04\xd2[@'
p807
tp808
Rp809
tp810
a(g2
I96
g3
(g7
S'\xfc\x05\xb3\x00O\xe5\\@'
p811
tp812
Rp813
tp814
a(g2
I97
g3
(g7
S'd4\xc2\xec"\x1d]@'
p815
tp816
Rp817
tp818
a(g2
I98
g3
(g7
S'\xb5\x05\xe8~"O^@'
p819
tp820
Rp821
tp822
a(g2
I99
g3
(g7
S'h\xf4\xea_\xebo`@'
p823
tp824
Rp825
tp826
a(g2
I100
g3
(g7
S'\xd3b\xa8\xc3m\xcb^@'
p827
tp828
Rp829
tp830
a(g2
I101
g3
(g7
S'\t\x9a\xc9\xb9\xa6\x83_@'
p831
tp832
Rp833
tp834
a(g2
I102
g3
(g7
S'\x04H\x02\x1d\xf1\xea_@'
p835
tp836
Rp837
tp838
a(g2
I103
g3
(g7
S'G\xb6\x13\x19\x0e)`@'
p839
tp840
Rp841
tp842
aa(lp843
(g2
I0
g3
(g7
S'H\x8e\xb8\xcc1(H@'
p844
tp845
Rp846
tp847
a(g2
I1
g3
(g7
S'`\x8e\xbc\x0f\x89+\xed\xbf'
p848
tp849
Rp850
tp851
a(g2
I2
g3
(g7
S'(\xad6\xbd\xe7#`@'
p852
tp853
Rp854
tp855
a(g2
I3
g3
(g7
S'\x86\x12\xfe\x9b\xd6\xb2d@'
p856
tp857
Rp858
tp859
a(g2
I4
g3
(g7
S'\x9a\xea\xf7\x89*"M@'
p860
tp861
Rp862
tp863
a(g2
I5
g3
(g7
S'\x87\x13\xf5R\xb5 V@'
p864
tp865
Rp866
tp867
a(g2
I6
g3
(g7
S"'\xc6\xa1}\x9b\xc9I@"
p868
tp869
Rp870
tp871
a(g2
I7
g3
(g7
S'[\x002i\xd7\xecB@'
p872
tp873
Rp874
tp875
a(g2
I8
g3
(g7
S'\xecB!\xcc\xf6\xa3Q@'
p876
tp877
Rp878
tp879
a(g2
I9
g3
(g7
S'9\x84\xdb\x1c\xccV]@'
p880
tp881
Rp882
tp883
a(g2
I10
g3
(g7
S'\xa8\x18\x13\xacu]k@'
p884
tp885
Rp886
tp887
a(g2
I11
g3
(g7
S'\x02S\x0fxPtq@'
p888
tp889
Rp890
tp891
a(g2
I12
g3
(g7
S'C\x17\xc0\x1b\x1a\xc1\\@'
p892
tp893
Rp894
tp895
a(g2
I13
g3
(g7
S'\xbf<\xe1\xfe\xe2\xcfb@'
p896
tp897
Rp898
tp899
a(g2
I14
g3
(g7
S'C]:\r*\x8b[@'
p900
tp901
Rp902
tp903
a(g2
I15
g3
(g7
S'V\x05\x14\\RuK@'
p904
tp905
Rp906
tp907
a(g2
I16
g3
(g7
S'\xda\xc1\xdf\xd5\xc2.a@'
p908
tp909
Rp910
tp911
a(g2
I17
g3
(g7
S'\xe3\xed[gO,V@'
p912
tp913
Rp914
tp915
a(g2
I18
g3
(g7
S'B\xf1xA\xc2\xd4V@'
p916
tp917
Rp918
tp919
a(g2
I19
g3
(g7
S'O\xc5\xe70U\xa0^@'
p920
tp921
Rp922
tp923
a(g2
I20
g3
(g7
S'\xe0\xf2\xba\x95\x93\x9fh@'
p924
tp925
Rp926
tp927
a(g2
I21
g3
(g7
S'\xb6\x99\xa5I\x17OZ@'
p928
tp929
Rp930
tp931
a(g2
I22
g3
(g7
S'\t\xa7F\x892\xdb]@'
p932
tp933
Rp934
tp935
a(g2
I23
g3
(g7
S'\xe3a\xb8\x81\xed\xa9`@'
p936
tp937
Rp938
tp939
a(g2
I24
g3
(g7
S'\x90\xd7\x83\xe3|\x96T@'
p940
tp941
Rp942
tp943
a(g2
I25
g3
(g7
S'\xac\xf9"\xec49S@'
p944
tp945
Rp946
tp947
a(g2
I26
g3
(g7
S'm\x87.\xa54\xb5_@'
p948
tp949
Rp950
tp951
a(g2
I27
g3
(g7
S'\r\xd3:if\xffY@'
p952
tp953
Rp954
tp955
a(g2
I28
g3
(g7
S'A\x88\x1d\x14\xc7\xf6]@'
p956
tp957
Rp958
tp959
a(g2
I29
g3
(g7
S'\xe4\xc5\xb8\x9a\x1a\xac^@'
p960
tp961
Rp962
tp963
a(g2
I30
g3
(g7
S'M\x8fE\x0e\xef=a@'
p964
tp965
Rp966
tp967
a(g2
I31
g3
(g7
S'S\xa5\xd4\x0f\xbcY[@'
p968
tp969
Rp970
tp971
a(g2
I32
g3
(g7
S'\xdcz14\x86\xfb[@'
p972
tp973
Rp974
tp975
a(g2
I33
g3
(g7
S'\xf3dg\x8aH\xad^@'
p976
tp977
Rp978
tp979
a(g2
I34
g3
(g7
S'\xe5J\x02\xd3\xac\xa2b@'
p980
tp981
Rp982
tp983
a(g2
I35
g3
(g7
S"/'_\x89G'_@"
p984
tp985
Rp986
tp987
a(g2
I36
g3
(g7
S'x`0\x7f4\x8b`@'
p988
tp989
Rp990
tp991
a(g2
I37
g3
(g7
S'\xc8\xf11JI\xbf]@'
p992
tp993
Rp994
tp995
a(g2
I38
g3
(g7
S'4+\x82\x9d\xc0\xf3^@'
p996
tp997
Rp998
tp999
a(g2
I39
g3
(g7
S'\xad\xa8?S8F[@'
p1000
tp1001
Rp1002
tp1003
a(g2
I40
g3
(g7
S'A\xb0\xe6A\xdbja@'
p1004
tp1005
Rp1006
tp1007
a(g2
I41
g3
(g7
S'f\xee\x1b\xa5\xff\xe8^@'
p1008
tp1009
Rp1010
tp1011
a(g2
I42
g3
(g7
S'=2@\x8b\x18s]@'
p1012
tp1013
Rp1014
tp1015
a(g2
I43
g3
(g7
S'~V\xfe24~`@'
p1016
tp1017
Rp1018
tp1019
a(g2
I44
g3
(g7
S'\x8ekq\x952\x84_@'
p1020
tp1021
Rp1022
tp1023
a(g2
I45
g3
(g7
S'WZx\xbaR\xc7\\@'
p1024
tp1025
Rp1026
tp1027
a(g2
I46
g3
(g7
S'Q\xe7\x1d\x19\xfa\xe0^@'
p1028
tp1029
Rp1030
tp1031
a(g2
I47
g3
(g7
S'\xb5\x10\xca\x0fCrY@'
p1032
tp1033
Rp1034
tp1035
a(g2
I48
g3
(g7
S'\x8e\x9d_\xfb\r\x9ac@'
p1036
tp1037
Rp1038
tp1039
a(g2
I49
g3
(g7
S'%\xf8\xa8h\xd8\x93^@'
p1040
tp1041
Rp1042
tp1043
a(g2
I50
g3
(g7
S'\xdb[\xf6D\xdf?a@'
p1044
tp1045
Rp1046
tp1047
a(g2
I51
g3
(g7
S'\x08oYX3\x9f`@'
p1048
tp1049
Rp1050
tp1051
a(g2
I52
g3
(g7
S'\xe2/g\x94f\x01a@'
p1052
tp1053
Rp1054
tp1055
a(g2
I53
g3
(g7
S'\x0b\xfc}\xfaH\xb1a@'
p1056
tp1057
Rp1058
tp1059
a(g2
I54
g3
(g7
S'\xb0l6D\x8d\x0cc@'
p1060
tp1061
Rp1062
tp1063
a(g2
I55
g3
(g7
S'\x99\xa4VtC|]@'
p1064
tp1065
Rp1066
tp1067
a(g2
I56
g3
(g7
S'\t\x12\x89\xff\xa2O^@'
p1068
tp1069
Rp1070
tp1071
a(g2
I57
g3
(g7
S'8j\xa0\xd4eA`@'
p1072
tp1073
Rp1074
tp1075
a(g2
I58
g3
(g7
S'\xc2\x9a\x81\xb6f`a@'
p1076
tp1077
Rp1078
tp1079
a(g2
I59
g3
(g7
S'\xd6\xd7\x00\x01iu_@'
p1080
tp1081
Rp1082
tp1083
a(g2
I60
g3
(g7
S'\xc1>\x1e\x02\x0f\x90]@'
p1084
tp1085
Rp1086
tp1087
a(g2
I61
g3
(g7
S"1(\xf0'|\xb8]@"
p1088
tp1089
Rp1090
tp1091
a(g2
I62
g3
(g7
S'\xb6\xca[\xd1\xd1\x92a@'
p1092
tp1093
Rp1094
tp1095
a(g2
I63
g3
(g7
S'\xa1.\x11\x10^\xfa\\@'
p1096
tp1097
Rp1098
tp1099
a(g2
I64
g3
(g7
S'g\x01\xcd\xfd\xeew^@'
p1100
tp1101
Rp1102
tp1103
a(g2
I65
g3
(g7
S'Z\x92\xd0tp\x9c`@'
p1104
tp1105
Rp1106
tp1107
a(g2
I66
g3
(g7
S'\xf5\x8a\xd5\x91\xef\xb0]@'
p1108
tp1109
Rp1110
tp1111
a(g2
I67
g3
(g7
S'\x98f\x12\x8d;\x03a@'
p1112
tp1113
Rp1114
tp1115
a(g2
I68
g3
(g7
S'U\xbc\xd8\x8e$N`@'
p1116
tp1117
Rp1118
tp1119
a(g2
I69
g3
(g7
S'\x97\xe3\x99\xdc\\\xe5_@'
p1120
tp1121
Rp1122
tp1123
a(g2
I70
g3
(g7
S'k\xb2\xb9u\xdb\t\\@'
p1124
tp1125
Rp1126
tp1127
a(g2
I71
g3
(g7
S'\xd7\x97D\xba\xa5PZ@'
p1128
tp1129
Rp1130
tp1131
a(g2
I72
g3
(g7
S'\xfb>}\xfd\xfe\x93]@'
p1132
tp1133
Rp1134
tp1135
a(g2
I73
g3
(g7
S'e\x05\xa9[\x82\xb3_@'
p1136
tp1137
Rp1138
tp1139
a(g2
I74
g3
(g7
S'\ng\x0b\xc4}hZ@'
p1140
tp1141
Rp1142
tp1143
a(g2
I75
g3
(g7
S'\xf8\xb1-d$\xe7`@'
p1144
tp1145
Rp1146
tp1147
a(g2
I76
g3
(g7
S'\x9d\xe1W\x8e\x10\xf2`@'
p1148
tp1149
Rp1150
tp1151
a(g2
I77
g3
(g7
S'\xa5\xf7\rYh\xe5\\@'
p1152
tp1153
Rp1154
tp1155
a(g2
I78
g3
(g7
S'XFDfr\xd8]@'
p1156
tp1157
Rp1158
tp1159
a(g2
I79
g3
(g7
S'(\xfa\x974\x17Ja@'
p1160
tp1161
Rp1162
tp1163
a(g2
I80
g3
(g7
S'\xc3\x7fA\xa6\x8aJ]@'
p1164
tp1165
Rp1166
tp1167
a(g2
I81
g3
(g7
S'\x9fBd\xa1<M_@'
p1168
tp1169
Rp1170
tp1171
a(g2
I82
g3
(g7
S']l\x81\x7f\xc3q`@'
p1172
tp1173
Rp1174
tp1175
a(g2
I83
g3
(g7
S'\x0c\xf3\x03\xcbW\x13a@'
p1176
tp1177
Rp1178
tp1179
a(g2
I84
g3
(g7
S':\x94\x9c\x9e%\xc4a@'
p1180
tp1181
Rp1182
tp1183
a(g2
I85
g3
(g7
S'5\xc2\x17xf\xd7a@'
p1184
tp1185
Rp1186
tp1187
a(g2
I86
g3
(g7
S'xm\xf5\xf6\xa7\xdb]@'
p1188
tp1189
Rp1190
tp1191
a(g2
I87
g3
(g7
S'\x97\xd7y\xcdn\xfe^@'
p1192
tp1193
Rp1194
tp1195
a(g2
I88
g3
(g7
S'\x01d@\x10\x1b\xbd_@'
p1196
tp1197
Rp1198
tp1199
a(g2
I89
g3
(g7
S'\x87j\x18\x1c\n\xc9_@'
p1200
tp1201
Rp1202
tp1203
a(g2
I90
g3
(g7
S'T\xa6l\x15\xa4$_@'
p1204
tp1205
Rp1206
tp1207
a(g2
I91
g3
(g7
S'@<\xd6\xc5d\xa1]@'
p1208
tp1209
Rp1210
tp1211
a(g2
I92
g3
(g7
S'!\x88^?v\xb9_@'
p1212
tp1213
Rp1214
tp1215
a(g2
I93
g3
(g7
S'\x9c\x11\xa4\xb1\x15B_@'
p1216
tp1217
Rp1218
tp1219
a(g2
I94
g3
(g7
S'\x95\xc0\x1f\xe5\x9a\xd8[@'
p1220
tp1221
Rp1222
tp1223
a(g2
I95
g3
(g7
S'\x93\x9b\x9c\xec\xf8\x1da@'
p1224
tp1225
Rp1226
tp1227
a(g2
I96
g3
(g7
S'\xbcr\xd6~3\xf7[@'
p1228
tp1229
Rp1230
tp1231
a(g2
I97
g3
(g7
S'\xe4\x13\xb1@h\xa3a@'
p1232
tp1233
Rp1234
tp1235
a(g2
I98
g3
(g7
S'\x88J\xfe\xd8\xa6\x1a`@'
p1236
tp1237
Rp1238
tp1239
a(g2
I99
g3
(g7
S"1\xcf\xf5\xae'\x82_@"
p1240
tp1241
Rp1242
tp1243
a(g2
I100
g3
(g7
S'(\xfc\x8f\x1b\x8e\xbc\\@'
p1244
tp1245
Rp1246
tp1247
a(g2
I101
g3
(g7
S']\x89;\xac\xc9y[@'
p1248
tp1249
Rp1250
tp1251
a(g2
I102
g3
(g7
S'\xb7\xd2\xee<i\xf2]@'
p1252
tp1253
Rp1254
tp1255
a(g2
I103
g3
(g7
S'\xd2g\xd8\xedy?]@'
p1256
tp1257
Rp1258
tp1259
aa.