(lp0
(lp1
(S'week = '
p2
I0
I0
tp3
a(g2
I1
I0
tp4
a(g2
I2
I0
tp5
a(g2
I3
cnumpy.core.multiarray
scalar
p6
(cnumpy
dtype
p7
(S'f8'
p8
I0
I1
tp9
Rp10
(I3
S'<'
p11
NNNI-1
I-1
I0
tp12
bS'\xbe\xcb\x15\xab\xd9\x14K@'
p13
tp14
Rp15
tp16
a(g2
I4
I0
tp17
a(g2
I5
g6
(g10
S'^\x12\x13\xec\xf6\xb5d@'
p18
tp19
Rp20
tp21
a(g2
I6
I0
tp22
a(g2
I7
I0
tp23
a(g2
I8
I0
tp24
a(g2
I9
g6
(g10
S'-\x13H$\x81\xf7\x10@'
p25
tp26
Rp27
tp28
a(g2
I10
I0
tp29
a(g2
I11
I0
tp30
a(g2
I12
I0
tp31
a(g2
I13
I0
tp32
a(g2
I14
g6
(g10
S'>\x7fq\xc9\xa6\xe1\x12@'
p33
tp34
Rp35
tp36
a(g2
I15
g6
(g10
S'\xf3\xb4\x8e\xc5\xec\x9e\xe4?'
p37
tp38
Rp39
tp40
a(g2
I16
I0
tp41
a(g2
I17
I0
tp42
a(g2
I18
g6
(g10
S'/\x97c\xdf]\xe5W@'
p43
tp44
Rp45
tp46
a(g2
I19
I0
tp47
a(g2
I20
I0
tp48
a(g2
I21
I0
tp49
a(g2
I22
I0
tp50
a(g2
I23
I0
tp51
a(g2
I24
I0
tp52
a(g2
I25
I0
tp53
a(g2
I26
I0
tp54
a(g2
I27
I0
tp55
a(g2
I28
g6
(g10
S'\x0b\xd1\x0fB\xe7\xcaB@'
p56
tp57
Rp58
tp59
a(g2
I29
g6
(g10
S' \xd8\x04\xdf\xb3\xa50@'
p60
tp61
Rp62
tp63
a(g2
I30
g6
(g10
S'1i\x97\xbd{\x89\x1d@'
p64
tp65
Rp66
tp67
a(g2
I31
I0
tp68
a(g2
I32
g6
(g10
S'\xb193\x8f\xa8\xb5-@'
p69
tp70
Rp71
tp72
a(g2
I33
I0
tp73
a(g2
I34
g6
(g10
S'\xe20\xc1Q?\xf25@'
p74
tp75
Rp76
tp77
a(g2
I35
g6
(g10
S"E'\xe9d\x80\x958@"
p78
tp79
Rp80
tp81
a(g2
I36
I0
tp82
a(g2
I37
g6
(g10
S'\xb5\xdf\xb9\xbaj\xb2/@'
p83
tp84
Rp85
tp86
a(g2
I38
I0
tp87
a(g2
I39
g6
(g10
S'd@\xf4\x0c\xb37,@'
p88
tp89
Rp90
tp91
a(g2
I40
g6
(g10
S'\x04AA\xfe,\x9a/@'
p92
tp93
Rp94
tp95
a(g2
I41
I0
tp96
a(g2
I42
g6
(g10
S'?M\x08\xe3\x99nH@'
p97
tp98
Rp99
tp100
a(g2
I43
g6
(g10
S's\x84\xa1w\xcd.\x11@'
p101
tp102
Rp103
tp104
a(g2
I44
g6
(g10
S'\xd2|\xedj\xe6\x93`@'
p105
tp106
Rp107
tp108
a(g2
I45
g6
(g10
S'\xaf\xc1\x18\xb6n\nQ@'
p109
tp110
Rp111
tp112
a(g2
I46
g6
(g10
S'[\x1e\xcc\xf2]Qb@'
p113
tp114
Rp115
tp116
a(g2
I47
g6
(g10
S'x\xba\xaf\x0b\x9b\x10P@'
p117
tp118
Rp119
tp120
a(g2
I48
g6
(g10
S'\x143\xef\x98\x1a24@'
p121
tp122
Rp123
tp124
a(g2
I49
g6
(g10
S'R\xc5\xa9\xae\x1a\n?@'
p125
tp126
Rp127
tp128
a(g2
I50
g6
(g10
S'mk\x12.\x02Z0@'
p129
tp130
Rp131
tp132
a(g2
I51
g6
(g10
S'bJ\xb4\x16o\xa8K@'
p133
tp134
Rp135
tp136
a(g2
I52
g6
(g10
S'9\x0c\x9c\x95rBB@'
p137
tp138
Rp139
tp140
a(g2
I53
g6
(g10
S'6\xa4\xe8f\x12MA@'
p141
tp142
Rp143
tp144
a(g2
I54
g6
(g10
S'!)\xd6/\xae\xf4K@'
p145
tp146
Rp147
tp148
a(g2
I55
g6
(g10
S'g\x96\xc02\xf6\x1bO@'
p149
tp150
Rp151
tp152
a(g2
I56
g6
(g10
S'|\x8d\x072x\x80G@'
p153
tp154
Rp155
tp156
a(g2
I57
g6
(g10
S'\xc5\x9a\x8b4%\xa2E@'
p157
tp158
Rp159
tp160
a(g2
I58
g6
(g10
S'\x06`m\xec\xed\x06O@'
p161
tp162
Rp163
tp164
a(g2
I59
g6
(g10
S'(kqi\x07eN@'
p165
tp166
Rp167
tp168
a(g2
I60
g6
(g10
S'\x8e\xa6I0\xf3\x84K@'
p169
tp170
Rp171
tp172
a(g2
I61
g6
(g10
S'\x07\x15\xfa\x13\xf5\xaeP@'
p173
tp174
Rp175
tp176
a(g2
I62
g6
(g10
S'\xf7\xe7\nhR\x8bO@'
p177
tp178
Rp179
tp180
a(g2
I63
g6
(g10
S'\xfbP]\xbe"\xacN@'
p181
tp182
Rp183
tp184
a(g2
I64
g6
(g10
S'\xc9=W\xc7\xf6\x96G@'
p185
tp186
Rp187
tp188
a(g2
I65
g6
(g10
S'\xd7qh\x13c\xd4G@'
p189
tp190
Rp191
tp192
a(g2
I66
g6
(g10
S'\x81.c\xc1\x9daM@'
p193
tp194
Rp195
tp196
a(g2
I67
g6
(g10
S'kX\x88\x00\x89yH@'
p197
tp198
Rp199
tp200
a(g2
I68
g6
(g10
S'\xa6O\xb8\x03\x14\x1fP@'
p201
tp202
Rp203
tp204
a(g2
I69
g6
(g10
S'\x15\x80O\x94%5F@'
p205
tp206
Rp207
tp208
a(g2
I70
g6
(g10
S'-\xd5\xac>b\x95G@'
p209
tp210
Rp211
tp212
a(g2
I71
g6
(g10
S'}\xec\xda\x84\xbd\xacN@'
p213
tp214
Rp215
tp216
a(g2
I72
g6
(g10
S'\x12jig\xa1*G@'
p217
tp218
Rp219
tp220
a(g2
I73
g6
(g10
S'7\xf6\x0c\xc5\t\xffP@'
p221
tp222
Rp223
tp224
a(g2
I74
g6
(g10
S"P\xc9\xde\xbe'\x8aP@"
p225
tp226
Rp227
tp228
a(g2
I75
g6
(g10
S'\xd5\x8a\xe0\x9f\xa4lD@'
p229
tp230
Rp231
tp232
a(g2
I76
g6
(g10
S'\x7f\xb8\x15\xa6\x85(I@'
p233
tp234
Rp235
tp236
a(g2
I77
g6
(g10
S'\xc19\xbb\xedp\xa4H@'
p237
tp238
Rp239
tp240
a(g2
I78
g6
(g10
S'\x8e`w3\xc7+L@'
p241
tp242
Rp243
tp244
a(g2
I79
g6
(g10
S'\xe2\x9e32eNO@'
p245
tp246
Rp247
tp248
a(g2
I80
g6
(g10
S'=\x15\xde\xdf?\xaaD@'
p249
tp250
Rp251
tp252
a(g2
I81
g6
(g10
S'\x05\x14\x87\x1cr\x13N@'
p253
tp254
Rp255
tp256
a(g2
I82
g6
(g10
S'\xb0\xc0\xec\x1b\xbe\x11E@'
p257
tp258
Rp259
tp260
a(g2
I83
g6
(g10
S'\xd9\xc8@Z0\x84I@'
p261
tp262
Rp263
tp264
a(g2
I84
g6
(g10
S'\x1d\xda\xaf\xd8[\xf0H@'
p265
tp266
Rp267
tp268
a(g2
I85
g6
(g10
S"'\xbf\xf3\x85\xec\xb0F@"
p269
tp270
Rp271
tp272
a(g2
I86
g6
(g10
S'\xed\xcaO\xe2\x8e\x8eN@'
p273
tp274
Rp275
tp276
a(g2
I87
g6
(g10
S' U\xaa\xcf\x88\x00P@'
p277
tp278
Rp279
tp280
a(g2
I88
g6
(g10
S'\xa2\xa3R\xfaV=O@'
p281
tp282
Rp283
tp284
a(g2
I89
g6
(g10
S'[v\xc8\xc2p\xabH@'
p285
tp286
Rp287
tp288
a(g2
I90
g6
(g10
S'\x10\x12}8$hM@'
p289
tp290
Rp291
tp292
a(g2
I91
g6
(g10
S'\x97\x8d\xf48\x03IL@'
p293
tp294
Rp295
tp296
a(g2
I92
g6
(g10
S"2\x94'\xe8\xc5\xc2K@"
p297
tp298
Rp299
tp300
a(g2
I93
g6
(g10
S'\xd7!\x99\x88\x82\x1eN@'
p301
tp302
Rp303
tp304
a(g2
I94
g6
(g10
S'&\n\xe7t\xb2\xfbH@'
p305
tp306
Rp307
tp308
a(g2
I95
g6
(g10
S'\x9a\x1d|\x7f>\xd1H@'
p309
tp310
Rp311
tp312
a(g2
I96
g6
(g10
S'~\xd6\xc6\x87\xe4\x89L@'
p313
tp314
Rp315
tp316
a(g2
I97
g6
(g10
S'\xdf\xb4\x8a\xdeFFC@'
p317
tp318
Rp319
tp320
a(g2
I98
g6
(g10
S'w\x05\xe6\x86^\x00M@'
p321
tp322
Rp323
tp324
a(g2
I99
g6
(g10
S'\xdb\xffF\xbeW\xecJ@'
p325
tp326
Rp327
tp328
a(g2
I100
g6
(g10
S'\xb4-\xf9\x82X8F@'
p329
tp330
Rp331
tp332
a(g2
I101
g6
(g10
S'\\{\xfd\x95\x9d\xbdN@'
p333
tp334
Rp335
tp336
a(g2
I102
g6
(g10
S'\x89\x05\\\xab\x91\xf9H@'
p337
tp338
Rp339
tp340
a(g2
I103
g6
(g10
S'\x93\xd5\x85\xa8\xa9\xb2M@'
p341
tp342
Rp343
tp344
aa(lp345
(g2
I0
I0
tp346
a(g2
I1
I0
tp347
a(g2
I2
I0
tp348
a(g2
I3
g6
(g10
S'*>\xac\x9d3(V@'
p349
tp350
Rp351
tp352
a(g2
I4
I0
tp353
a(g2
I5
I0
tp354
a(g2
I6
I0
tp355
a(g2
I7
I0
tp356
a(g2
I8
I0
tp357
a(g2
I9
g6
(g10
S':HwI\xe2%"@'
p358
tp359
Rp360
tp361
a(g2
I10
g6
(g10
S'\x9a\x9b\xa0\xa5\x7f\xcc\xdc?'
p362
tp363
Rp364
tp365
a(g2
I11
I0
tp366
a(g2
I12
I0
tp367
a(g2
I13
I0
tp368
a(g2
I14
I0
tp369
a(g2
I15
g6
(g10
S'\x90\xb1\xc8\xb9\x7f\xebM@'
p370
tp371
Rp372
tp373
a(g2
I16
I0
tp374
a(g2
I17
I0
tp375
a(g2
I18
I0
tp376
a(g2
I19
g6
(g10
S'Y\xc5\x93\xbc\x07\xd94@'
p377
tp378
Rp379
tp380
a(g2
I20
g6
(g10
S'\x0bw\x16\xe7\xb5\xe6S@'
p381
tp382
Rp383
tp384
a(g2
I21
g6
(g10
S'v\x90&3\xc4\r\xd9?'
p385
tp386
Rp387
tp388
a(g2
I22
I0
tp389
a(g2
I23
g6
(g10
S'8\xd5\xec\xea\x14+e@'
p390
tp391
Rp392
tp393
a(g2
I24
I0
tp394
a(g2
I25
I0
tp395
a(g2
I26
I0
tp396
a(g2
I27
I0
tp397
a(g2
I28
I0
tp398
a(g2
I29
I0
tp399
a(g2
I30
I0
tp400
a(g2
I31
I0
tp401
a(g2
I32
g6
(g10
S'8\x86\x18\xc2HF\x12@'
p402
tp403
Rp404
tp405
a(g2
I33
I0
tp406
a(g2
I34
I0
tp407
a(g2
I35
I0
tp408
a(g2
I36
I0
tp409
a(g2
I37
g6
(g10
S'\xd5\xf0\xe6!^\xcfX@'
p410
tp411
Rp412
tp413
a(g2
I38
g6
(g10
S'y\xb3\xc3\xfa\xe3\x1a"@'
p414
tp415
Rp416
tp417
a(g2
I39
g6
(g10
S'3\xb0\xf3Vx\xd4I@'
p418
tp419
Rp420
tp421
a(g2
I40
g6
(g10
S'O\xa0\xb2\x87@uB@'
p422
tp423
Rp424
tp425
a(g2
I41
g6
(g10
S'a\x02\xf9A\xf4\r4@'
p426
tp427
Rp428
tp429
a(g2
I42
g6
(g10
S'\xeb\xea\x95F]mW@'
p430
tp431
Rp432
tp433
a(g2
I43
I0
tp434
a(g2
I44
g6
(g10
S'\xaa|\x0b\x8e\x16\xc4\xd9?'
p435
tp436
Rp437
tp438
a(g2
I45
g6
(g10
S'\xe9l\xdc\xc5{@\x1f@'
p439
tp440
Rp441
tp442
a(g2
I46
g6
(g10
S'M<Z\x96\xa1\xc8%@'
p443
tp444
Rp445
tp446
a(g2
I47
g6
(g10
S'\xe2\x0b\xe7#\x18\xcf!@'
p447
tp448
Rp449
tp450
a(g2
I48
g6
(g10
S'~\xf7\xdcX\xea\xc9"@'
p451
tp452
Rp453
tp454
a(g2
I49
g6
(g10
S'\xb7K\xfe\xcd\xcf"[@'
p455
tp456
Rp457
tp458
a(g2
I50
g6
(g10
S'\xb0\x895\xb9\xad\x9bA@'
p459
tp460
Rp461
tp462
a(g2
I51
g6
(g10
S'\x15\x84\xa62,\xcdG@'
p463
tp464
Rp465
tp466
a(g2
I52
g6
(g10
S'\xcc\x91W\x998\r4@'
p467
tp468
Rp469
tp470
a(g2
I53
g6
(g10
S'\xbb)_\x02#\xdeE@'
p471
tp472
Rp473
tp474
a(g2
I54
g6
(g10
S"5\x12\x1a$'\xf3P@"
p475
tp476
Rp477
tp478
a(g2
I55
g6
(g10
S'\xb8\xfe\xba\x82O\xce=@'
p479
tp480
Rp481
tp482
a(g2
I56
g6
(g10
S'>H-j\x0b\xfeP@'
p483
tp484
Rp485
tp486
a(g2
I57
g6
(g10
S'\xac\xd2\xf9`\xe0\xb0B@'
p487
tp488
Rp489
tp490
a(g2
I58
g6
(g10
S'U\x83\x05\xd1\x9a;H@'
p491
tp492
Rp493
tp494
a(g2
I59
g6
(g10
S'\x18\x1e<&\x89\x90P@'
p495
tp496
Rp497
tp498
a(g2
I60
g6
(g10
S"'H\t\xff\xe0\x00G@"
p499
tp500
Rp501
tp502
a(g2
I61
g6
(g10
S'\xac\xdd\xcc\x08\x8c\xa6E@'
p503
tp504
Rp505
tp506
a(g2
I62
g6
(g10
S'\xfeN1\xec\xc0!F@'
p507
tp508
Rp509
tp510
a(g2
I63
g6
(g10
S'\xeezi7\x88\xf3K@'
p511
tp512
Rp513
tp514
a(g2
I64
g6
(g10
S'Un\x0f\x82\xe3\xe4D@'
p515
tp516
Rp517
tp518
a(g2
I65
g6
(g10
S'<\x15\x07\x1e\x8e\xa4I@'
p519
tp520
Rp521
tp522
a(g2
I66
g6
(g10
S'?\xde\xbd\x00\x01\x1fI@'
p523
tp524
Rp525
tp526
a(g2
I67
g6
(g10
S'\xb4&\xd7\tn\x03I@'
p527
tp528
Rp529
tp530
a(g2
I68
g6
(g10
S'\xac\x0b\xacg\xeb\xffJ@'
p531
tp532
Rp533
tp534
a(g2
I69
g6
(g10
S'5\x12\xa4\xf6\xc7\xaeI@'
p535
tp536
Rp537
tp538
a(g2
I70
g6
(g10
S'x\xd3\xb0\xdc0sL@'
p539
tp540
Rp541
tp542
a(g2
I71
g6
(g10
S'i\x0ec\xbf\xce\xcaF@'
p543
tp544
Rp545
tp546
a(g2
I72
g6
(g10
S' \x17x\x0bc\xebJ@'
p547
tp548
Rp549
tp550
a(g2
I73
g6
(g10
S'JK\x93\xc1Z\xb1I@'
p551
tp552
Rp553
tp554
a(g2
I74
g6
(g10
S'\x94\xder=\xac)J@'
p555
tp556
Rp557
tp558
a(g2
I75
g6
(g10
S'F`M.\x89\x04K@'
p559
tp560
Rp561
tp562
a(g2
I76
g6
(g10
S'p\xed{\xea\xf6NI@'
p563
tp564
Rp565
tp566
a(g2
I77
g6
(g10
S";\xd6Qy}'H@"
p567
tp568
Rp569
tp570
a(g2
I78
g6
(g10
S'\x89\xc7z\xf1\x05.J@'
p571
tp572
Rp573
tp574
a(g2
I79
g6
(g10
S'}4\xc2\xd3\xd5\xefK@'
p575
tp576
Rp577
tp578
a(g2
I80
g6
(g10
S'3\xc6\x9fQ\x07\xb5K@'
p579
tp580
Rp581
tp582
a(g2
I81
g6
(g10
S'S\xd3\xe7\xae\xf7\xc3N@'
p583
tp584
Rp585
tp586
a(g2
I82
g6
(g10
S'B>\xd7\xd84\xbfH@'
p587
tp588
Rp589
tp590
a(g2
I83
g6
(g10
S'~D\x03\x88k`M@'
p591
tp592
Rp593
tp594
a(g2
I84
g6
(g10
S'8H#\x8ac@G@'
p595
tp596
Rp597
tp598
a(g2
I85
g6
(g10
S'2\x99\x88\xaf\x88\xdfI@'
p599
tp600
Rp601
tp602
a(g2
I86
g6
(g10
S"\xf6\xed\xa4\xf2u'M@"
p603
tp604
Rp605
tp606
a(g2
I87
g6
(g10
S'Mq\x10\xeb\xba\x82H@'
p607
tp608
Rp609
tp610
a(g2
I88
g6
(g10
S'Z\xe3/\x0f\x00\xe1J@'
p611
tp612
Rp613
tp614
a(g2
I89
g6
(g10
S'Se\xc1\x8f\xcc\x01I@'
p615
tp616
Rp617
tp618
a(g2
I90
g6
(g10
S'\x92\xbf\xa4$\xd6\xa5K@'
p619
tp620
Rp621
tp622
a(g2
I91
g6
(g10
S'\xa4\xad\x81f\r J@'
p623
tp624
Rp625
tp626
a(g2
I92
g6
(g10
S'\xa0\xfb\xb3&\x82#J@'
p627
tp628
Rp629
tp630
a(g2
I93
g6
(g10
S'\xb2\xac\xfd\xff1\xbdM@'
p631
tp632
Rp633
tp634
a(g2
I94
g6
(g10
S'[k\xba\xf6h)H@'
p635
tp636
Rp637
tp638
a(g2
I95
g6
(g10
S'\x8a\x0f\xf7\x02\x86WF@'
p639
tp640
Rp641
tp642
a(g2
I96
g6
(g10
S'\xd8\xc2\x81\x8a7iJ@'
p643
tp644
Rp645
tp646
a(g2
I97
g6
(g10
S'\xdc"4\xda8\xf9J@'
p647
tp648
Rp649
tp650
a(g2
I98
g6
(g10
S'\xe9\xad\x8aB\x8c]L@'
p651
tp652
Rp653
tp654
a(g2
I99
g6
(g10
S'\x92*\xed\x14\xb1~I@'
p655
tp656
Rp657
tp658
a(g2
I100
g6
(g10
S'h\x1fR\x7f\xa6\xd2K@'
p659
tp660
Rp661
tp662
a(g2
I101
g6
(g10
S'r\xde\xb3\x085\xebK@'
p663
tp664
Rp665
tp666
a(g2
I102
g6
(g10
S"\xa5\x13\xc9'h\xf7J@"
p667
tp668
Rp669
tp670
a(g2
I103
g6
(g10
S"\x11\xf3'dO\xebG@"
p671
tp672
Rp673
tp674
aa(lp675
(g2
I0
I0
tp676
a(g2
I1
I0
tp677
a(g2
I2
I0
tp678
a(g2
I3
I0
tp679
a(g2
I4
I0
tp680
a(g2
I5
I0
tp681
a(g2
I6
I0
tp682
a(g2
I7
I0
tp683
a(g2
I8
I0
tp684
a(g2
I9
I0
tp685
a(g2
I10
I0
tp686
a(g2
I11
I0
tp687
a(g2
I12
I0
tp688
a(g2
I13
I0
tp689
a(g2
I14
I0
tp690
a(g2
I15
I0
tp691
a(g2
I16
I0
tp692
a(g2
I17
I0
tp693
a(g2
I18
g6
(g10
S'\x07\xce\x98s}\xef0@'
p694
tp695
Rp696
tp697
a(g2
I19
g6
(g10
S'p9.\x97\xd4\xd5\xd7?'
p698
tp699
Rp700
tp701
a(g2
I20
I0
tp702
a(g2
I21
I0
tp703
a(g2
I22
I0
tp704
a(g2
I23
I0
tp705
a(g2
I24
g6
(g10
S'\x02\x16_\xf1:/9@'
p706
tp707
Rp708
tp709
a(g2
I25
I0
tp710
a(g2
I26
I0
tp711
a(g2
I27
g6
(g10
S'\xee\x82>\t\x0cqD@'
p712
tp713
Rp714
tp715
a(g2
I28
g6
(g10
S'\xaa\xe6\tq\xdfF!@'
p716
tp717
Rp718
tp719
a(g2
I29
g6
(g10
S'\n\x85~\x92\xa0\x9f\xfb?'
p720
tp721
Rp722
tp723
a(g2
I30
I0
tp724
a(g2
I31
I0
tp725
a(g2
I32
g6
(g10
S'\x10\x9b\x1e3\x1d\xb8g@'
p726
tp727
Rp728
tp729
a(g2
I33
I0
tp730
a(g2
I34
I0
tp731
a(g2
I35
g6
(g10
S'Q\xb1\t\xd4\x0e#\xc9?'
p732
tp733
Rp734
tp735
a(g2
I36
g6
(g10
S'\xcf\x81\xc6\xab\xd0\x8d\x11@'
p736
tp737
Rp738
tp739
a(g2
I37
g6
(g10
S'W{Hy\x85\xeeF@'
p740
tp741
Rp742
tp743
a(g2
I38
g6
(g10
S'\x9b\xdf\xd0S\x18n\x1c@'
p744
tp745
Rp746
tp747
a(g2
I39
I0
tp748
a(g2
I40
g6
(g10
S'7\x9eVTL\xcaP@'
p749
tp750
Rp751
tp752
a(g2
I41
g6
(g10
S'\xebP\xe7\x0c\xa1gO@'
p753
tp754
Rp755
tp756
a(g2
I42
g6
(g10
S'\xd0_|D\x96j @'
p757
tp758
Rp759
tp760
a(g2
I43
I0
tp761
a(g2
I44
g6
(g10
S'\x14\xdd,\xa8\xab56@'
p762
tp763
Rp764
tp765
a(g2
I45
g6
(g10
S'C\xd1\xb8\xba\xfa\xdeA@'
p766
tp767
Rp768
tp769
a(g2
I46
g6
(g10
S'tR6\xc6]\xb5W@'
p770
tp771
Rp772
tp773
a(g2
I47
g6
(g10
S'8\xdc\xd8Z:[6@'
p774
tp775
Rp776
tp777
a(g2
I48
g6
(g10
S'c%\xf9\xd1\x1e\xdfM@'
p778
tp779
Rp780
tp781
a(g2
I49
g6
(g10
S'\xb1|\xc3\\je6@'
p782
tp783
Rp784
tp785
a(g2
I50
g6
(g10
S'\xa5\x83\x91kl\x19N@'
p786
tp787
Rp788
tp789
a(g2
I51
g6
(g10
S'#\xcf\x1f\x03nsM@'
p790
tp791
Rp792
tp793
a(g2
I52
g6
(g10
S'\x98z6(h\x96A@'
p794
tp795
Rp796
tp797
a(g2
I53
g6
(g10
S'\x93t\xf5\xdf\xb9\xf0G@'
p798
tp799
Rp800
tp801
a(g2
I54
g6
(g10
S'j\xac(\xf0\x0e\xf0R@'
p802
tp803
Rp804
tp805
a(g2
I55
g6
(g10
S'\x106\xf1\xdb\x0bo<@'
p806
tp807
Rp808
tp809
a(g2
I56
g6
(g10
S'\x8c\x87\x92\x9au\xdaO@'
p810
tp811
Rp812
tp813
a(g2
I57
g6
(g10
S'\xdf\x9e\xb7[\xe9@I@'
p814
tp815
Rp816
tp817
a(g2
I58
g6
(g10
S'\xa7L\xeae\xa1\x04O@'
p818
tp819
Rp820
tp821
a(g2
I59
g6
(g10
S'\xd0Qp\xdc\xc1\x9cM@'
p822
tp823
Rp824
tp825
a(g2
I60
g6
(g10
S'H\xa9//\xadwP@'
p826
tp827
Rp828
tp829
a(g2
I61
g6
(g10
S'\xf6\x94\xeaDvYQ@'
p830
tp831
Rp832
tp833
a(g2
I62
g6
(g10
S'DGD(\xd2\xe9B@'
p834
tp835
Rp836
tp837
a(g2
I63
g6
(g10
S'\xff\x1b4\x7fC\xc6C@'
p838
tp839
Rp840
tp841
a(g2
I64
g6
(g10
S'\x83Q\x85L\x87\xceQ@'
p842
tp843
Rp844
tp845
a(g2
I65
g6
(g10
S'\xef\x17@c\xdb\xf4H@'
p846
tp847
Rp848
tp849
a(g2
I66
g6
(g10
S"\xc8\xa1R'(\xa5K@"
p850
tp851
Rp852
tp853
a(g2
I67
g6
(g10
S'k\xe5\xde\xfe\xf7mH@'
p854
tp855
Rp856
tp857
a(g2
I68
g6
(g10
S'\x82\x98\xe7\xf3\xe1WR@'
p858
tp859
Rp860
tp861
a(g2
I69
g6
(g10
S'\xa0\xce?\x85E7E@'
p862
tp863
Rp864
tp865
a(g2
I70
g6
(g10
S'\xdeY\xea\x14^pM@'
p866
tp867
Rp868
tp869
a(g2
I71
g6
(g10
S'\x84\x86\x1b\xfe-\xccK@'
p870
tp871
Rp872
tp873
a(g2
I72
g6
(g10
S'k\xe1\x1f \x80\xecK@'
p874
tp875
Rp876
tp877
a(g2
I73
g6
(g10
S'8\xf7Y\xf8\x8a#K@'
p878
tp879
Rp880
tp881
a(g2
I74
g6
(g10
S'!\x8e\xe5*-oH@'
p882
tp883
Rp884
tp885
a(g2
I75
g6
(g10
S'=\xab\xa4\xd8RVK@'
p886
tp887
Rp888
tp889
a(g2
I76
g6
(g10
S'\xcc\xa8\x02l\xb1qK@'
p890
tp891
Rp892
tp893
a(g2
I77
g6
(g10
S'\xb6\x7f\xdd1\xa8\x04K@'
p894
tp895
Rp896
tp897
a(g2
I78
g6
(g10
S'\xf3_}\x83\xdc\x9dG@'
p898
tp899
Rp900
tp901
a(g2
I79
g6
(g10
S'!@\xbd\x9fj\xebG@'
p902
tp903
Rp904
tp905
a(g2
I80
g6
(g10
S'\x865\xa9\x19\xa9\x18K@'
p906
tp907
Rp908
tp909
a(g2
I81
g6
(g10
S'\xa6\x14B\xb7\x92`L@'
p910
tp911
Rp912
tp913
a(g2
I82
g6
(g10
S'\x9e\x12\x18\x91\xc6\xd3J@'
p914
tp915
Rp916
tp917
a(g2
I83
g6
(g10
S'\rh\xb0?\xe7<G@'
p918
tp919
Rp920
tp921
a(g2
I84
g6
(g10
S'\xeb\xee\xb1\xb9\xc5\xa1N@'
p922
tp923
Rp924
tp925
a(g2
I85
g6
(g10
S'\xa6\xa8\xa3j,\xd8G@'
p926
tp927
Rp928
tp929
a(g2
I86
g6
(g10
S'\x17Z\xbfF\xa6\xb7I@'
p930
tp931
Rp932
tp933
a(g2
I87
g6
(g10
S'\x10y\x8f\xaf\xa6\x83M@'
p934
tp935
Rp936
tp937
a(g2
I88
g6
(g10
S'N@\x07\xc1\x18`E@'
p938
tp939
Rp940
tp941
a(g2
I89
g6
(g10
S'\x0b\xef\xf6&\x1d\xe4J@'
p942
tp943
Rp944
tp945
a(g2
I90
g6
(g10
S'R\x14\xe9\x1cz\xfbJ@'
p946
tp947
Rp948
tp949
a(g2
I91
g6
(g10
S'\xdc\x1e\xb4\xc2\xf3\x00M@'
p950
tp951
Rp952
tp953
a(g2
I92
g6
(g10
S';\xff_\x88;\x8eG@'
p954
tp955
Rp956
tp957
a(g2
I93
g6
(g10
S'\xf9\\0\xbb\xe9\x0cJ@'
p958
tp959
Rp960
tp961
a(g2
I94
g6
(g10
S'\n1\xd8[\xae\xf9N@'
p962
tp963
Rp964
tp965
a(g2
I95
g6
(g10
S'\xfa\x1f\xd0!P\x97M@'
p966
tp967
Rp968
tp969
a(g2
I96
g6
(g10
S'&]\x06\x8fw\x96I@'
p970
tp971
Rp972
tp973
a(g2
I97
g6
(g10
S'\x16\r\xfa\xa4V\xa7N@'
p974
tp975
Rp976
tp977
a(g2
I98
g6
(g10
S'\xea\x1d\x13\xbe~\xdaH@'
p978
tp979
Rp980
tp981
a(g2
I99
g6
(g10
S'\xc6\xfbN\xd1&\xcaE@'
p982
tp983
Rp984
tp985
a(g2
I100
g6
(g10
S'\xc0\xaa5\xd6\x1b!P@'
p986
tp987
Rp988
tp989
a(g2
I101
g6
(g10
S'\xe4q\xe2\x7f|\x90D@'
p990
tp991
Rp992
tp993
a(g2
I102
g6
(g10
S'S*\xf0\xc8h\xe6E@'
p994
tp995
Rp996
tp997
a(g2
I103
g6
(g10
S'\x87\x86m\x16F\xe8L@'
p998
tp999
Rp1000
tp1001
aa.