(lp0
(lp1
(S'week = '
p2
I0
I0
tp3
a(g2
I1
I0
tp4
a(g2
I2
I0
tp5
a(g2
I3
I0
tp6
a(g2
I4
I0
tp7
a(g2
I5
I0
tp8
a(g2
I6
I0
tp9
a(g2
I7
I0
tp10
a(g2
I8
I0
tp11
a(g2
I9
I0
tp12
a(g2
I10
I0
tp13
a(g2
I11
I0
tp14
a(g2
I12
I0
tp15
a(g2
I13
I0
tp16
a(g2
I14
I0
tp17
a(g2
I15
I0
tp18
a(g2
I16
I0
tp19
a(g2
I17
I0
tp20
a(g2
I18
I0
tp21
a(g2
I19
I0
tp22
a(g2
I20
I0
tp23
a(g2
I21
I0
tp24
a(g2
I22
I0
tp25
a(g2
I23
I0
tp26
a(g2
I24
I0
tp27
a(g2
I25
I0
tp28
a(g2
I26
I0
tp29
a(g2
I27
I0
tp30
a(g2
I28
I0
tp31
a(g2
I29
I0
tp32
a(g2
I30
I0
tp33
a(g2
I31
I0
tp34
a(g2
I32
I0
tp35
a(g2
I33
cnumpy.core.multiarray
scalar
p36
(cnumpy
dtype
p37
(S'f8'
p38
I0
I1
tp39
Rp40
(I3
S'<'
p41
NNNI-1
I-1
I0
tp42
bS'\x0c\xe2\x80\t\xe4\x0cP@'
p43
tp44
Rp45
tp46
a(g2
I34
I0
tp47
a(g2
I35
I0
tp48
a(g2
I36
I0
tp49
a(g2
I37
I0
tp50
a(g2
I38
I0
tp51
a(g2
I39
I0
tp52
a(g2
I40
g36
(g40
S'U\x10\xa6\xa2\x9cY]@'
p53
tp54
Rp55
tp56
a(g2
I41
I0
tp57
a(g2
I42
I0
tp58
a(g2
I43
I0
tp59
a(g2
I44
I0
tp60
a(g2
I45
I0
tp61
a(g2
I46
g36
(g40
S'\x99\xc0\xc36\xb7UP@'
p62
tp63
Rp64
tp65
a(g2
I47
I0
tp66
a(g2
I48
g36
(g40
S'TkW!Q\x0b&\xc0'
p67
tp68
Rp69
tp70
a(g2
I49
g36
(g40
S'\x08\t\xa65\xf5\xe3&@'
p71
tp72
Rp73
tp74
a(g2
I50
I0
tp75
a(g2
I51
g36
(g40
S'\xd0\xebd%\xd7\xd1\x1d\xc0'
p76
tp77
Rp78
tp79
a(g2
I52
g36
(g40
S'NJ`\x8e\n-\x89@'
p80
tp81
Rp82
tp83
a(g2
I53
g36
(g40
S']A\x06Hh$\x90@'
p84
tp85
Rp86
tp87
a(g2
I54
g36
(g40
S'y\xc8\xa0\xd2\x11)\x85@'
p88
tp89
Rp90
tp91
a(g2
I55
g36
(g40
S'\xd2\xb3\x1e)\xfa\xe9\x96@'
p92
tp93
Rp94
tp95
a(g2
I56
g36
(g40
S'\xda\x95V\x05\x1f<\xa2@'
p96
tp97
Rp98
tp99
a(g2
I57
g36
(g40
S'\xef\x85\xe6\xec\xa8\x88\xa2@'
p100
tp101
Rp102
tp103
a(g2
I58
g36
(g40
S'\xb6\x0c5\xd4=\x7f\xa5@'
p104
tp105
Rp106
tp107
a(g2
I59
g36
(g40
S'n\x02\x1b\x12V\xdc\xa4@'
p108
tp109
Rp110
tp111
a(g2
I60
g36
(g40
S'br\xf4\xb3\x13\x86\xa7@'
p112
tp113
Rp114
tp115
a(g2
I61
g36
(g40
S'x\xecD\xb4\xdeM\xa4@'
p116
tp117
Rp118
tp119
a(g2
I62
g36
(g40
S'\xdd\x0f8\xe4Y\x17\xa3@'
p120
tp121
Rp122
tp123
a(g2
I63
g36
(g40
S"c k\xa1\xc9'\xab@"
p124
tp125
Rp126
tp127
a(g2
I64
g36
(g40
S'\xf9\xca$);\x85\xb0@'
p128
tp129
Rp130
tp131
a(g2
I65
g36
(g40
S'm\xa9\x0e\xe8\xd7^\xa6@'
p132
tp133
Rp134
tp135
a(g2
I66
g36
(g40
S'\xa7\xf5\xa1\x14\n\xb7\xb6@'
p136
tp137
Rp138
tp139
a(g2
I67
g36
(g40
S'#\xfd\xfb\xee\xa9f\xb8@'
p140
tp141
Rp142
tp143
a(g2
I68
g36
(g40
S'E\rP\x9fq\xe9\xb6@'
p144
tp145
Rp146
tp147
a(g2
I69
g36
(g40
S'\xa0\xa5\xfeA-\xc2\xbd@'
p148
tp149
Rp150
tp151
a(g2
I70
g36
(g40
S')D\xe5"\xaa\x1d\xbc@'
p152
tp153
Rp154
tp155
a(g2
I71
g36
(g40
S'Z\xb3\x93\xd4\x1e\x8f\xba@'
p156
tp157
Rp158
tp159
a(g2
I72
g36
(g40
S'a\x06`5\xe1\x07\xc1@'
p160
tp161
Rp162
tp163
a(g2
I73
g36
(g40
S'\r\xd4\x99\xa3UM\xc0@'
p164
tp165
Rp166
tp167
a(g2
I74
g36
(g40
S"'\x83v\xd7\xab\x93\xc3@"
p168
tp169
Rp170
tp171
a(g2
I75
g36
(g40
S':?\xcd\xbf5n\xc0@'
p172
tp173
Rp174
tp175
a(g2
I76
g36
(g40
S'\x97\xb1\x01\x06\x17\x85\xc0@'
p176
tp177
Rp178
tp179
a(g2
I77
g36
(g40
S'\x99#&[\xc4\x84\xba@'
p180
tp181
Rp182
tp183
a(g2
I78
g36
(g40
S'0\xcb6e`\x86\xc3@'
p184
tp185
Rp186
tp187
a(g2
I79
g36
(g40
S'f\xbf/\xc7\xd39\xc0@'
p188
tp189
Rp190
tp191
a(g2
I80
g36
(g40
S'\x9e\xd4\xe8\xa0\xd5\xa5\xc2@'
p192
tp193
Rp194
tp195
a(g2
I81
g36
(g40
S'#\xcf\xa3/\xfe\x8f\xc2@'
p196
tp197
Rp198
tp199
a(g2
I82
g36
(g40
S'\xbb\xed\xbc:r\xec\xc5@'
p200
tp201
Rp202
tp203
a(g2
I83
g36
(g40
S'\x85\xbf;\x06]\xeb\xc4@'
p204
tp205
Rp206
tp207
a(g2
I84
g36
(g40
S"\xb9[\x93Gy'\xc3@"
p208
tp209
Rp210
tp211
a(g2
I85
g36
(g40
S'\xbftXD\x81\xce\xc5@'
p212
tp213
Rp214
tp215
a(g2
I86
g36
(g40
S'y\xe1L]l\x7f\xc9@'
p216
tp217
Rp218
tp219
a(g2
I87
g36
(g40
S'|\x90\x91\x12\xbe\xd7\xc8@'
p220
tp221
Rp222
tp223
a(g2
I88
g36
(g40
S'\x7f\xff\xbf\xc9\xc2\xc0\xcc@'
p224
tp225
Rp226
tp227
a(g2
I89
g36
(g40
S'\x9f\\%\xa0\xbc\x04\xcb@'
p228
tp229
Rp230
tp231
a(g2
I90
g36
(g40
S'\x88\x89l/\xd6\xc1\xcc@'
p232
tp233
Rp234
tp235
a(g2
I91
g36
(g40
S'\xa2;\x80\xf8\x1bp\xcb@'
p236
tp237
Rp238
tp239
a(g2
I92
g36
(g40
S'\xf5\x0c\x8d-\xe3V\xcd@'
p240
tp241
Rp242
tp243
a(g2
I93
g36
(g40
S'\xd4*\xbb\x8f\xfb\xfc\xd0@'
p244
tp245
Rp246
tp247
a(g2
I94
g36
(g40
S'/\xc8\xda\x7fG\xa9\xcd@'
p248
tp249
Rp250
tp251
a(g2
I95
g36
(g40
S'W%\xdcD\x00\xa5\xcf@'
p252
tp253
Rp254
tp255
a(g2
I96
g36
(g40
S'\xf3O\xa2\xbe\xa6\x1c\xcf@'
p256
tp257
Rp258
tp259
a(g2
I97
g36
(g40
S'\xb8?\xe1\x0cah\xca@'
p260
tp261
Rp262
tp263
a(g2
I98
g36
(g40
S'Q\x14p\x03^\x1f\xd3@'
p264
tp265
Rp266
tp267
a(g2
I99
g36
(g40
S'[\xbe\xfb$\x9bz\xd3@'
p268
tp269
Rp270
tp271
a(g2
I100
g36
(g40
S'\xcf\x99h\xfa#\xd5\xd0@'
p272
tp273
Rp274
tp275
a(g2
I101
g36
(g40
S'\xbc\x03s\xbd{%\xd3@'
p276
tp277
Rp278
tp279
a(g2
I102
g36
(g40
S'\x0b.\x06Z\xd5\xa9\xcc@'
p280
tp281
Rp282
tp283
a(g2
I103
g36
(g40
S'*\x1a\xf5\x8a#V\xd2@'
p284
tp285
Rp286
tp287
aa(lp288
(g2
I0
I0
tp289
a(g2
I1
I0
tp290
a(g2
I2
I0
tp291
a(g2
I3
I0
tp292
a(g2
I4
I0
tp293
a(g2
I5
I0
tp294
a(g2
I6
I0
tp295
a(g2
I7
I0
tp296
a(g2
I8
I0
tp297
a(g2
I9
I0
tp298
a(g2
I10
I0
tp299
a(g2
I11
I0
tp300
a(g2
I12
I0
tp301
a(g2
I13
I0
tp302
a(g2
I14
I0
tp303
a(g2
I15
I0
tp304
a(g2
I16
I0
tp305
a(g2
I17
I0
tp306
a(g2
I18
I0
tp307
a(g2
I19
I0
tp308
a(g2
I20
I0
tp309
a(g2
I21
I0
tp310
a(g2
I22
I0
tp311
a(g2
I23
I0
tp312
a(g2
I24
I0
tp313
a(g2
I25
I0
tp314
a(g2
I26
I0
tp315
a(g2
I27
I0
tp316
a(g2
I28
I0
tp317
a(g2
I29
I0
tp318
a(g2
I30
I0
tp319
a(g2
I31
I0
tp320
a(g2
I32
I0
tp321
a(g2
I33
I0
tp322
a(g2
I34
I0
tp323
a(g2
I35
I0
tp324
a(g2
I36
I0
tp325
a(g2
I37
I0
tp326
a(g2
I38
g36
(g40
S':\xab\xa3\xd6\xf5\x9fN@'
p327
tp328
Rp329
tp330
a(g2
I39
I0
tp331
a(g2
I40
I0
tp332
a(g2
I41
g36
(g40
S'\xfe\xad\xf5\x07N\xddB@'
p333
tp334
Rp335
tp336
a(g2
I42
g36
(g40
S'r-\xf2\xa8\xcd\xed`@'
p337
tp338
Rp339
tp340
a(g2
I43
I0
tp341
a(g2
I44
I0
tp342
a(g2
I45
I0
tp343
a(g2
I46
g36
(g40
S'\xa0y\xed$\x12\x16L@'
p344
tp345
Rp346
tp347
a(g2
I47
g36
(g40
S'\xd0}\x05\xda!\xeb\x12@'
p348
tp349
Rp350
tp351
a(g2
I48
g36
(g40
S',\x0c\xa0\x18\x8f\x06q@'
p352
tp353
Rp354
tp355
a(g2
I49
g36
(g40
S"'E\x12\xa4E\x93x@"
p356
tp357
Rp358
tp359
a(g2
I50
g36
(g40
S'\x94\xdb\x0b}+ef@'
p360
tp361
Rp362
tp363
a(g2
I51
I0
tp364
a(g2
I52
g36
(g40
S'\xb9\xd6\xe5\xbc\xd9\xb4}@'
p365
tp366
Rp367
tp368
a(g2
I53
g36
(g40
S'F>\x93\x97\xb3\x12\x7f@'
p369
tp370
Rp371
tp372
a(g2
I54
g36
(g40
S'\xab+7R5\xaf\x91@'
p373
tp374
Rp375
tp376
a(g2
I55
g36
(g40
S'L\x04o\x83Hp\x91@'
p377
tp378
Rp379
tp380
a(g2
I56
g36
(g40
S'|\xfei\x83\xd1\xc6\x8e@'
p381
tp382
Rp383
tp384
a(g2
I57
g36
(g40
S'\xd2b\xcf?\xaf\xa5\xa6@'
p385
tp386
Rp387
tp388
a(g2
I58
g36
(g40
S'\xd7*\xfa\rL}\x98@'
p389
tp390
Rp391
tp392
a(g2
I59
g36
(g40
S'\xa8\\8Z\x140\x9a@'
p393
tp394
Rp395
tp396
a(g2
I60
g36
(g40
S'\x07\x8f\xb9\x84\xa6\xe4\xaa@'
p397
tp398
Rp399
tp400
a(g2
I61
g36
(g40
S'u\xf4/\xa6\x97\x8f\x95@'
p401
tp402
Rp403
tp404
a(g2
I62
g36
(g40
S'\x124\x1bg\xc0\xc5\x9e@'
p405
tp406
Rp407
tp408
a(g2
I63
g36
(g40
S'\xf2D\x0e\r\\\xa9\xaa@'
p409
tp410
Rp411
tp412
a(g2
I64
g36
(g40
S'\x18\xd8b-\x1b\x16\xb2@'
p413
tp414
Rp415
tp416
a(g2
I65
g36
(g40
S'Ja\x1d\x1bXy\xa9@'
p417
tp418
Rp419
tp420
a(g2
I66
g36
(g40
S'H\xae7\x91~\x05\xaa@'
p421
tp422
Rp423
tp424
a(g2
I67
g36
(g40
S's\xc7_\n\x9e\x14\xb1@'
p425
tp426
Rp427
tp428
a(g2
I68
g36
(g40
S'\xa3\x80\xc6=\x83\xfe\xb9@'
p429
tp430
Rp431
tp432
a(g2
I69
g36
(g40
S'.\x88w\xf1\x86G\xbc@'
p433
tp434
Rp435
tp436
a(g2
I70
g36
(g40
S'\xce\x0e5\xb0\xb4]\xb8@'
p437
tp438
Rp439
tp440
a(g2
I71
g36
(g40
S'\xd7\x88\xda\x15\xc2\xf2\xbc@'
p441
tp442
Rp443
tp444
a(g2
I72
g36
(g40
S'X\xc2c\xb9U:\xb9@'
p445
tp446
Rp447
tp448
a(g2
I73
g36
(g40
S'I\xc2\xb3_H\xd0\xbd@'
p449
tp450
Rp451
tp452
a(g2
I74
g36
(g40
S'\xc13\xf6\xe9\xb7`\xc2@'
p453
tp454
Rp455
tp456
a(g2
I75
g36
(g40
S'^\xa8("~\xcc\xc0@'
p457
tp458
Rp459
tp460
a(g2
I76
g36
(g40
S'a\xfb\xdd>7\x00\xbe@'
p461
tp462
Rp463
tp464
a(g2
I77
g36
(g40
S'\t\xe9\x0f\xf3\xf8\xf6\xc1@'
p465
tp466
Rp467
tp468
a(g2
I78
g36
(g40
S'q\xb0\x01\x96U$\xc0@'
p469
tp470
Rp471
tp472
a(g2
I79
g36
(g40
S'3U6\x8a\x00X\xc6@'
p473
tp474
Rp475
tp476
a(g2
I80
g36
(g40
S'\xb9\x9e\x85+\x03\x81\xc5@'
p477
tp478
Rp479
tp480
a(g2
I81
g36
(g40
S'\xc2b\x99S\x93)\xc0@'
p481
tp482
Rp483
tp484
a(g2
I82
g36
(g40
S'cH\x06\xf0Dq\xc8@'
p485
tp486
Rp487
tp488
a(g2
I83
g36
(g40
S'\x9fh\xae\xd0\xaf\x91\xc7@'
p489
tp490
Rp491
tp492
a(g2
I84
g36
(g40
S'5l\xd3B\xf5T\xc2@'
p493
tp494
Rp495
tp496
a(g2
I85
g36
(g40
S'J\xc7mJ\xeb3\xc8@'
p497
tp498
Rp499
tp500
a(g2
I86
g36
(g40
S'g\xf8\xdbI\xb6\x13\xca@'
p501
tp502
Rp503
tp504
a(g2
I87
g36
(g40
S'\xec\xba-(\xab\x98\xc4@'
p505
tp506
Rp507
tp508
a(g2
I88
g36
(g40
S'\xa4\xe6\xa6\xff@\xbf\xcb@'
p509
tp510
Rp511
tp512
a(g2
I89
g36
(g40
S'\x90\x8bmQkb\xc9@'
p513
tp514
Rp515
tp516
a(g2
I90
g36
(g40
S'F\x92\x0c2\xe4\x14\xcc@'
p517
tp518
Rp519
tp520
a(g2
I91
g36
(g40
S'\xb8\xb6\xa9m\xc1\xa8\xc8@'
p521
tp522
Rp523
tp524
a(g2
I92
g36
(g40
S'\xa9\xf6d\xfdx\xaf\xd0@'
p525
tp526
Rp527
tp528
a(g2
I93
g36
(g40
S'\xdc\x837~b\xbc\xcd@'
p529
tp530
Rp531
tp532
a(g2
I94
g36
(g40
S'"\xd0\xaa \xab\x96\xce@'
p533
tp534
Rp535
tp536
a(g2
I95
g36
(g40
S'\xd0z]6\x9c\x97\xd0@'
p537
tp538
Rp539
tp540
a(g2
I96
g36
(g40
S'\x9e\x89\x8el\xb5\x0c\xd2@'
p541
tp542
Rp543
tp544
a(g2
I97
g36
(g40
S"gP\xd1'\x87\x9c\xd3@"
p545
tp546
Rp547
tp548
a(g2
I98
g36
(g40
S'\xd7#\xa0\x9b\x98B\xcd@'
p549
tp550
Rp551
tp552
a(g2
I99
g36
(g40
S'3\xcd\xa2KF(\xd3@'
p553
tp554
Rp555
tp556
a(g2
I100
g36
(g40
S'\x13\x88oqp8\xcd@'
p557
tp558
Rp559
tp560
a(g2
I101
g36
(g40
S'\xe3\xc6\xb5\xf7ZD\xd3@'
p561
tp562
Rp563
tp564
a(g2
I102
g36
(g40
S'\x7fQ\xb8$3\xa5\xd2@'
p565
tp566
Rp567
tp568
a(g2
I103
g36
(g40
S'\x15\xa6\xa0\xee\x85\xf8\xd1@'
p569
tp570
Rp571
tp572
aa(lp573
(g2
I0
I0
tp574
a(g2
I1
I0
tp575
a(g2
I2
I0
tp576
a(g2
I3
I0
tp577
a(g2
I4
I0
tp578
a(g2
I5
I0
tp579
a(g2
I6
I0
tp580
a(g2
I7
I0
tp581
a(g2
I8
I0
tp582
a(g2
I9
I0
tp583
a(g2
I10
I0
tp584
a(g2
I11
I0
tp585
a(g2
I12
I0
tp586
a(g2
I13
I0
tp587
a(g2
I14
g36
(g40
S'\xf0xI\xd7\x80>`@'
p588
tp589
Rp590
tp591
a(g2
I15
I0
tp592
a(g2
I16
I0
tp593
a(g2
I17
I0
tp594
a(g2
I18
I0
tp595
a(g2
I19
I0
tp596
a(g2
I20
I0
tp597
a(g2
I21
I0
tp598
a(g2
I22
I0
tp599
a(g2
I23
I0
tp600
a(g2
I24
I0
tp601
a(g2
I25
I0
tp602
a(g2
I26
I0
tp603
a(g2
I27
I0
tp604
a(g2
I28
I0
tp605
a(g2
I29
I0
tp606
a(g2
I30
g36
(g40
S'9\xc2\xc2\xf7\xbe\xb0]@'
p607
tp608
Rp609
tp610
a(g2
I31
I0
tp611
a(g2
I32
I0
tp612
a(g2
I33
I0
tp613
a(g2
I34
I0
tp614
a(g2
I35
I0
tp615
a(g2
I36
I0
tp616
a(g2
I37
g36
(g40
S'x`U\xa0I\xe5N@'
p617
tp618
Rp619
tp620
a(g2
I38
I0
tp621
a(g2
I39
g36
(g40
S'h\xf0j\xc30\xc4\x16@'
p622
tp623
Rp624
tp625
a(g2
I40
I0
tp626
a(g2
I41
g36
(g40
S'\x88\x06<>\xab\xa5J@'
p627
tp628
Rp629
tp630
a(g2
I42
g36
(g40
S'\xd2\x10\xcc\xc29%\x86@'
p631
tp632
Rp633
tp634
a(g2
I43
I0
tp635
a(g2
I44
I0
tp636
a(g2
I45
g36
(g40
S'\xb3\xablU\x1d\xee\\@'
p637
tp638
Rp639
tp640
a(g2
I46
g36
(g40
S'\x89\x98x,\x96\xf3^@'
p641
tp642
Rp643
tp644
a(g2
I47
g36
(g40
S'\xec\xc1\x82\xdd\xac\xc7~@'
p645
tp646
Rp647
tp648
a(g2
I48
I0
tp649
a(g2
I49
g36
(g40
S'D\n\x94{.\x02*@'
p650
tp651
Rp652
tp653
a(g2
I50
g36
(g40
S'\xa8\\\x99\xab\xa0yy@'
p654
tp655
Rp656
tp657
a(g2
I51
g36
(g40
S'\x1c\xbc\xc3\x83xq7@'
p658
tp659
Rp660
tp661
a(g2
I52
g36
(g40
S'\x88#\x0f|/\x03i@'
p662
tp663
Rp664
tp665
a(g2
I53
g36
(g40
S'\xda6\xb1f\xf0\x03\x87@'
p666
tp667
Rp668
tp669
a(g2
I54
g36
(g40
S'\x1f\xff\xc5aq\x88\x89@'
p670
tp671
Rp672
tp673
a(g2
I55
g36
(g40
S'\xe6\xf3\xbe\x82\xac\x90\x92@'
p674
tp675
Rp676
tp677
a(g2
I56
g36
(g40
S'\xb9\x1ca\xd9\x8eZ\x97@'
p678
tp679
Rp680
tp681
a(g2
I57
g36
(g40
S'\xd50\xd3$X\xfe\xa5@'
p682
tp683
Rp684
tp685
a(g2
I58
g36
(g40
S'z\xa2\xb5\xbe\xeer\xa8@'
p686
tp687
Rp688
tp689
a(g2
I59
g36
(g40
S'|\xc7\x1c\x7f\xdcZ\xa0@'
p690
tp691
Rp692
tp693
a(g2
I60
g36
(g40
S'\xfcy\xcd\x13\xc7/\xa0@'
p694
tp695
Rp696
tp697
a(g2
I61
g36
(g40
S'e\xb7.\x7f\xfd\\\xa8@'
p698
tp699
Rp700
tp701
a(g2
I62
g36
(g40
S'\xd5\xd5&\x15\xf1P\xac@'
p702
tp703
Rp704
tp705
a(g2
I63
g36
(g40
S'[\xe0=\x0f\x16\x8c\xb2@'
p706
tp707
Rp708
tp709
a(g2
I64
g36
(g40
S'\xd8J\x1cv\xa5\x82\xb3@'
p710
tp711
Rp712
tp713
a(g2
I65
g36
(g40
S'\x99\x06\x19\xb6\xe9\xf0\xb2@'
p714
tp715
Rp716
tp717
a(g2
I66
g36
(g40
S'\x1f\xf7\x1c\xbd#m\xa9@'
p718
tp719
Rp720
tp721
a(g2
I67
g36
(g40
S'!\x0f\x95\xe36\xff\xb1@'
p722
tp723
Rp724
tp725
a(g2
I68
g36
(g40
S'\\k\x9c\xf2\x19I\xb7@'
p726
tp727
Rp728
tp729
a(g2
I69
g36
(g40
S'\xe5\x91\xf1\xcbn\xeb\xbd@'
p730
tp731
Rp732
tp733
a(g2
I70
g36
(g40
S'\xad\x83}?9!\xbd@'
p734
tp735
Rp736
tp737
a(g2
I71
g36
(g40
S'\x90f\x08:\xc5\x9b\xbc@'
p738
tp739
Rp740
tp741
a(g2
I72
g36
(g40
S'\x89\xabr\xa7o\xea\xb8@'
p742
tp743
Rp744
tp745
a(g2
I73
g36
(g40
S'X)>\xf2\x8a\xd8\xbe@'
p746
tp747
Rp748
tp749
a(g2
I74
g36
(g40
S'\x86\xec\xf5\x8e\x03\x19\xc1@'
p750
tp751
Rp752
tp753
a(g2
I75
g36
(g40
S'^\xfb\x80\xd0\xbe\xea\xbf@'
p754
tp755
Rp756
tp757
a(g2
I76
g36
(g40
S'\xe6\xc7(\xf8\xeb\x19\xbf@'
p758
tp759
Rp760
tp761
a(g2
I77
g36
(g40
S'\x06\xc4u\xa1\xe0"\xc2@'
p762
tp763
Rp764
tp765
a(g2
I78
g36
(g40
S'?\x9d\xf4\xde\xf6u\xc2@'
p766
tp767
Rp768
tp769
a(g2
I79
g36
(g40
S':\xe7\x93\xfa>\x8b\xc1@'
p770
tp771
Rp772
tp773
a(g2
I80
g36
(g40
S')\xd1\xd0\xa7\xbcu\xbf@'
p774
tp775
Rp776
tp777
a(g2
I81
g36
(g40
S'\xcd\xba\x9e\x0c\x1e\x0b\xc3@'
p778
tp779
Rp780
tp781
a(g2
I82
g36
(g40
S'\xd2\xa3Z\x15\xa5\x9d\xc2@'
p782
tp783
Rp784
tp785
a(g2
I83
g36
(g40
S'O\\=\x9bj\xff\xc3@'
p786
tp787
Rp788
tp789
a(g2
I84
g36
(g40
S'\x08\x9c\xde\x08E\x1d\xc3@'
p790
tp791
Rp792
tp793
a(g2
I85
g36
(g40
S'\xc9\xa8{\xfe\xd2\x16\xc7@'
p794
tp795
Rp796
tp797
a(g2
I86
g36
(g40
S'<\xa4\xf03\xd59\xc3@'
p798
tp799
Rp800
tp801
a(g2
I87
g36
(g40
S'$\x0b%\xbf\x82w\xc7@'
p802
tp803
Rp804
tp805
a(g2
I88
g36
(g40
S'\x03\x83\xb4\xab\x91\xc8\xc6@'
p806
tp807
Rp808
tp809
a(g2
I89
g36
(g40
S'\xb5\xf9\xc7\xd4\x0b\x9d\xc9@'
p810
tp811
Rp812
tp813
a(g2
I90
g36
(g40
S'\x8b\xd8\x9ag\xe22\xcd@'
p814
tp815
Rp816
tp817
a(g2
I91
g36
(g40
S'\xd0\xb4\xac~H\x91\xc9@'
p818
tp819
Rp820
tp821
a(g2
I92
g36
(g40
S'c\x9c\x98\xe7"u\xcb@'
p822
tp823
Rp824
tp825
a(g2
I93
g36
(g40
S'<b\xdc\xc3K\xaf\xca@'
p826
tp827
Rp828
tp829
a(g2
I94
g36
(g40
S'{\x91E\x8d\x8e\x9d\xcf@'
p830
tp831
Rp832
tp833
a(g2
I95
g36
(g40
S'\xf1\xd2%G\t|\xd2@'
p834
tp835
Rp836
tp837
a(g2
I96
g36
(g40
S'\x1e\x97\xa1\x94\xc0U\xd2@'
p838
tp839
Rp840
tp841
a(g2
I97
g36
(g40
S'\xb7\xdd\xd6 \x19\xc5\xc7@'
p842
tp843
Rp844
tp845
a(g2
I98
g36
(g40
S'\xe3i\xd5\xfaCZ\xd0@'
p846
tp847
Rp848
tp849
a(g2
I99
g36
(g40
S'\xbc8\x0fa\xaca\xcd@'
p850
tp851
Rp852
tp853
a(g2
I100
g36
(g40
S'\x10L\x95V\x0b\x81\xcc@'
p854
tp855
Rp856
tp857
a(g2
I101
g36
(g40
S'^\x01\x9fo<\xde\xc8@'
p858
tp859
Rp860
tp861
a(g2
I102
g36
(g40
S'_\x93\xc0L\x9as\xce@'
p862
tp863
Rp864
tp865
a(g2
I103
g36
(g40
S'\xaa\x9cf%_)\xd2@'
p866
tp867
Rp868
tp869
aa.