(lp0
(lp1
(S'ESP cumulative clients                     for week ='
p2
I0
I1
tp3
a(g2
I0
I2
tp4
a(g2
I0
I3
tp5
a(g2
I0
I4
tp6
a(g2
I0
I5
tp7
a(g2
I0
I6
tp8
a(g2
I0
I7
tp9
a(g2
I0
I8
tp10
a(g2
I0
I9
tp11
a(g2
I0
I10
tp12
a(g2
I0
I11
tp13
a(g2
I0
I12
tp14
a(g2
I0
I13
tp15
a(g2
I0
I14
tp16
a(g2
I0
I15
tp17
a(g2
I0
I16
tp18
a(g2
I0
I17
tp19
a(g2
I0
I18
tp20
a(g2
I1
I19
tp21
a(g2
I1
I20
tp22
a(g2
I1
I21
tp23
a(g2
I1
I22
tp24
a(g2
I1
I23
tp25
a(g2
I1
I24
tp26
a(g2
I1
I25
tp27
a(g2
I1
I26
tp28
a(g2
I1
I27
tp29
a(g2
I1
I28
tp30
a(g2
I1
I29
tp31
a(g2
I1
I30
tp32
a(g2
I1
I31
tp33
a(g2
I1
I32
tp34
a(g2
I1
I33
tp35
a(g2
I1
I34
tp36
a(g2
I1
I35
tp37
a(g2
I1
I36
tp38
a(g2
I2
I37
tp39
a(g2
I2
I38
tp40
a(g2
I2
I39
tp41
a(g2
I2
I40
tp42
a(g2
I2
I41
tp43
a(g2
I2
I42
tp44
a(g2
I2
I43
tp45
a(g2
I2
I44
tp46
a(g2
I2
I45
tp47
a(g2
I2
I46
tp48
a(g2
I2
I47
tp49
a(g2
I2
I48
tp50
a(g2
I2
I49
tp51
a(g2
I2
I50
tp52
a(g2
I2
I51
tp53
a(g2
I2
I52
tp54
a(g2
I2
I53
tp55
a(g2
I2
I54
tp56
a(g2
I2
I55
tp57
a(g2
I2
I56
tp58
a(g2
I2
I57
tp59
a(g2
I2
I58
tp60
a(g2
I2
I59
tp61
a(g2
I2
I60
tp62
a(g2
I2
I61
tp63
a(g2
I2
I62
tp64
a(g2
I3
I63
tp65
a(g2
I3
I64
tp66
a(g2
I3
I65
tp67
a(g2
I3
I66
tp68
a(g2
I3
I67
tp69
a(g2
I3
I68
tp70
a(g2
I3
I69
tp71
a(g2
I3
I70
tp72
a(g2
I3
I71
tp73
a(g2
I3
I72
tp74
a(g2
I3
I73
tp75
a(g2
I3
I74
tp76
a(g2
I3
I75
tp77
a(g2
I3
I76
tp78
a(g2
I3
I77
tp79
a(g2
I3
I78
tp80
a(g2
I3
I79
tp81
a(g2
I3
I80
tp82
a(g2
I4
I81
tp83
a(g2
I4
I82
tp84
a(g2
I4
I83
tp85
a(g2
I4
I84
tp86
a(g2
I4
I85
tp87
a(g2
I4
I86
tp88
a(g2
I4
I87
tp89
a(g2
I4
I88
tp90
a(g2
I4
I89
tp91
a(g2
I4
I90
tp92
a(g2
I4
I91
tp93
a(g2
I4
I92
tp94
a(g2
I4
I93
tp95
a(g2
I4
I94
tp96
a(g2
I4
I95
tp97
a(g2
I4
I96
tp98
a(g2
I4
I97
tp99
a(g2
I4
I98
tp100
a(g2
I4
I99
tp101
a(g2
I4
I100
tp102
a(g2
I4
I101
tp103
a(g2
I4
I102
tp104
a(g2
I4
I103
tp105
a(g2
I5
I104
tp106
a(g2
I5
I105
tp107
a(g2
I5
I106
tp108
a(g2
I5
I107
tp109
a(g2
I5
I108
tp110
a(g2
I5
I109
tp111
a(g2
I5
I110
tp112
a(g2
I5
I111
tp113
a(g2
I5
I112
tp114
a(g2
I5
I113
tp115
a(g2
I5
I114
tp116
a(g2
I5
I115
tp117
a(g2
I5
I116
tp118
a(g2
I5
I117
tp119
a(g2
I5
I118
tp120
a(g2
I5
I119
tp121
a(g2
I6
I120
tp122
a(g2
I6
I121
tp123
a(g2
I6
I122
tp124
a(g2
I6
I123
tp125
a(g2
I6
I124
tp126
a(g2
I6
I125
tp127
a(g2
I6
I126
tp128
a(g2
I6
I127
tp129
a(g2
I6
I128
tp130
a(g2
I6
I129
tp131
a(g2
I6
I130
tp132
a(g2
I6
I131
tp133
a(g2
I6
I132
tp134
a(g2
I6
I133
tp135
a(g2
I6
I134
tp136
a(g2
I6
I135
tp137
a(g2
I6
I136
tp138
a(g2
I6
I137
tp139
a(g2
I6
I138
tp140
a(g2
I7
I139
tp141
a(g2
I7
I140
tp142
a(g2
I7
I141
tp143
a(g2
I7
I142
tp144
a(g2
I7
I143
tp145
a(g2
I7
I144
tp146
a(g2
I7
I145
tp147
a(g2
I7
I146
tp148
a(g2
I7
I147
tp149
a(g2
I7
I148
tp150
a(g2
I7
I149
tp151
a(g2
I7
I150
tp152
a(g2
I7
I151
tp153
a(g2
I7
I152
tp154
a(g2
I7
I153
tp155
a(g2
I7
I154
tp156
a(g2
I7
I155
tp157
a(g2
I7
I156
tp158
a(g2
I7
I157
tp159
a(g2
I7
I158
tp160
a(g2
I8
I159
tp161
a(g2
I8
I160
tp162
a(g2
I8
I161
tp163
a(g2
I8
I162
tp164
a(g2
I8
I163
tp165
a(g2
I8
I164
tp166
a(g2
I8
I165
tp167
a(g2
I8
I166
tp168
a(g2
I8
I167
tp169
a(g2
I8
I168
tp170
a(g2
I8
I169
tp171
a(g2
I8
I170
tp172
a(g2
I8
I171
tp173
a(g2
I8
I172
tp174
a(g2
I8
I173
tp175
a(g2
I8
I174
tp176
a(g2
I8
I175
tp177
a(g2
I8
I176
tp178
a(g2
I8
I177
tp179
a(g2
I8
I178
tp180
a(g2
I8
I179
tp181
a(g2
I8
I180
tp182
a(g2
I8
I181
tp183
a(g2
I8
I182
tp184
a(g2
I9
I183
tp185
a(g2
I9
I184
tp186
a(g2
I9
I185
tp187
a(g2
I9
I186
tp188
a(g2
I9
I187
tp189
a(g2
I9
I188
tp190
a(g2
I9
I189
tp191
a(g2
I9
I190
tp192
a(g2
I9
I191
tp193
a(g2
I9
I192
tp194
a(g2
I9
I193
tp195
a(g2
I9
I194
tp196
a(g2
I9
I195
tp197
a(g2
I9
I196
tp198
a(g2
I9
I197
tp199
a(g2
I9
I198
tp200
a(g2
I9
I199
tp201
a(g2
I9
I200
tp202
a(g2
I9
I201
tp203
a(g2
I9
I202
tp204
a(g2
I9
I203
tp205
a(g2
I9
I204
tp206
a(g2
I9
I205
tp207
a(g2
I10
I206
tp208
a(g2
I10
I207
tp209
a(g2
I10
I208
tp210
a(g2
I10
I209
tp211
a(g2
I10
I210
tp212
a(g2
I10
I211
tp213
a(g2
I10
I212
tp214
a(g2
I10
I213
tp215
a(g2
I10
I214
tp216
a(g2
I10
I215
tp217
a(g2
I10
I216
tp218
a(g2
I10
I217
tp219
a(g2
I10
I218
tp220
a(g2
I10
I219
tp221
a(g2
I10
I220
tp222
a(g2
I10
I221
tp223
a(g2
I10
I222
tp224
a(g2
I10
I223
tp225
a(g2
I10
I224
tp226
a(g2
I11
I225
tp227
a(g2
I11
I226
tp228
a(g2
I11
I227
tp229
a(g2
I11
I228
tp230
a(g2
I11
I229
tp231
a(g2
I11
I230
tp232
a(g2
I11
I231
tp233
a(g2
I11
I232
tp234
a(g2
I11
I233
tp235
a(g2
I11
I234
tp236
a(g2
I11
I235
tp237
a(g2
I11
I236
tp238
a(g2
I11
I237
tp239
a(g2
I11
I238
tp240
a(g2
I11
I239
tp241
a(g2
I11
I240
tp242
a(g2
I11
I241
tp243
a(g2
I11
I242
tp244
a(g2
I11
I243
tp245
a(g2
I11
I244
tp246
a(g2
I11
I245
tp247
a(g2
I12
I246
tp248
a(g2
I12
I247
tp249
a(g2
I12
I248
tp250
a(g2
I12
I249
tp251
a(g2
I12
I250
tp252
a(g2
I12
I251
tp253
a(g2
I12
I252
tp254
a(g2
I12
I253
tp255
a(g2
I12
I254
tp256
a(g2
I12
I255
tp257
a(g2
I12
I256
tp258
a(g2
I12
I257
tp259
a(g2
I12
I258
tp260
a(g2
I12
I259
tp261
a(g2
I12
I260
tp262
a(g2
I12
I261
tp263
a(g2
I12
I262
tp264
a(g2
I12
I263
tp265
a(g2
I12
I264
tp266
a(g2
I13
I265
tp267
a(g2
I13
I266
tp268
a(g2
I13
I267
tp269
a(g2
I13
I268
tp270
a(g2
I13
I269
tp271
a(g2
I13
I270
tp272
a(g2
I13
I271
tp273
a(g2
I13
I272
tp274
a(g2
I13
I273
tp275
a(g2
I13
I274
tp276
a(g2
I13
I275
tp277
a(g2
I13
I276
tp278
a(g2
I13
I277
tp279
a(g2
I13
I278
tp280
a(g2
I13
I279
tp281
a(g2
I13
I280
tp282
a(g2
I13
I281
tp283
a(g2
I13
I282
tp284
a(g2
I13
I283
tp285
a(g2
I13
I284
tp286
a(g2
I13
I285
tp287
a(g2
I14
I286
tp288
a(g2
I14
I287
tp289
a(g2
I14
I288
tp290
a(g2
I14
I289
tp291
a(g2
I14
I290
tp292
a(g2
I14
I291
tp293
a(g2
I14
I292
tp294
a(g2
I14
I293
tp295
a(g2
I14
I294
tp296
a(g2
I14
I295
tp297
a(g2
I14
I296
tp298
a(g2
I14
I297
tp299
a(g2
I14
I298
tp300
a(g2
I15
I299
tp301
a(g2
I15
I300
tp302
a(g2
I15
I301
tp303
a(g2
I15
I302
tp304
a(g2
I15
I303
tp305
a(g2
I15
I304
tp306
a(g2
I15
I304
tp307
a(g2
I15
I305
tp308
a(g2
I15
I306
tp309
a(g2
I15
I307
tp310
a(g2
I15
I308
tp311
a(g2
I15
I309
tp312
a(g2
I15
I310
tp313
a(g2
I15
I311
tp314
a(g2
I15
I312
tp315
a(g2
I15
I313
tp316
a(g2
I15
I314
tp317
a(g2
I15
I315
tp318
a(g2
I15
I316
tp319
a(g2
I15
I317
tp320
a(g2
I15
I318
tp321
a(g2
I16
I319
tp322
a(g2
I16
I320
tp323
a(g2
I16
I321
tp324
a(g2
I16
I322
tp325
a(g2
I16
I323
tp326
a(g2
I16
I324
tp327
a(g2
I16
I324
tp328
a(g2
I16
I325
tp329
a(g2
I16
I326
tp330
a(g2
I16
I327
tp331
a(g2
I16
I328
tp332
a(g2
I16
I329
tp333
a(g2
I16
I330
tp334
a(g2
I16
I331
tp335
a(g2
I16
I332
tp336
a(g2
I16
I333
tp337
a(g2
I16
I334
tp338
a(g2
I16
I335
tp339
a(g2
I17
I336
tp340
a(g2
I17
I337
tp341
a(g2
I17
I338
tp342
a(g2
I17
I339
tp343
a(g2
I17
I340
tp344
a(g2
I17
I341
tp345
a(g2
I17
I340
tp346
a(g2
I17
I341
tp347
a(g2
I17
I342
tp348
a(g2
I17
I343
tp349
a(g2
I17
I344
tp350
a(g2
I17
I345
tp351
a(g2
I17
I346
tp352
a(g2
I17
I347
tp353
a(g2
I17
I348
tp354
a(g2
I17
I349
tp355
a(g2
I17
I350
tp356
a(g2
I17
I351
tp357
a(g2
I18
I352
tp358
a(g2
I18
I353
tp359
a(g2
I18
I354
tp360
a(g2
I18
I355
tp361
a(g2
I18
I356
tp362
a(g2
I18
I357
tp363
a(g2
I18
I356
tp364
a(g2
I18
I357
tp365
a(g2
I18
I358
tp366
a(g2
I18
I359
tp367
a(g2
I18
I360
tp368
a(g2
I18
I361
tp369
a(g2
I18
I362
tp370
a(g2
I18
I363
tp371
a(g2
I18
I364
tp372
a(g2
I18
I365
tp373
a(g2
I18
I366
tp374
a(g2
I18
I367
tp375
a(g2
I18
I368
tp376
a(g2
I18
I369
tp377
a(g2
I18
I370
tp378
a(g2
I19
I371
tp379
a(g2
I19
I372
tp380
a(g2
I19
I373
tp381
a(g2
I19
I374
tp382
a(g2
I19
I375
tp383
a(g2
I19
I376
tp384
a(g2
I19
I374
tp385
a(g2
I19
I375
tp386
a(g2
I19
I376
tp387
a(g2
I19
I377
tp388
a(g2
I19
I378
tp389
a(g2
I19
I379
tp390
a(g2
I19
I380
tp391
a(g2
I19
I381
tp392
a(g2
I19
I382
tp393
a(g2
I19
I383
tp394
a(g2
I19
I384
tp395
a(g2
I19
I385
tp396
a(g2
I19
I386
tp397
a(g2
I20
I387
tp398
a(g2
I20
I388
tp399
a(g2
I20
I389
tp400
a(g2
I20
I390
tp401
a(g2
I20
I391
tp402
a(g2
I20
I392
tp403
a(g2
I20
I386
tp404
a(g2
I20
I387
tp405
a(g2
I20
I388
tp406
a(g2
I20
I389
tp407
a(g2
I20
I390
tp408
a(g2
I20
I391
tp409
a(g2
I20
I392
tp410
a(g2
I20
I393
tp411
a(g2
I20
I394
tp412
a(g2
I20
I395
tp413
a(g2
I20
I396
tp414
a(g2
I20
I397
tp415
a(g2
I20
I398
tp416
a(g2
I20
I399
tp417
a(g2
I20
I400
tp418
a(g2
I20
I401
tp419
a(g2
I20
I402
tp420
a(g2
I20
I403
tp421
a(g2
I21
I404
tp422
a(g2
I21
I405
tp423
a(g2
I21
I406
tp424
a(g2
I21
I407
tp425
a(g2
I21
I408
tp426
a(g2
I21
I409
tp427
a(g2
I21
I409
tp428
a(g2
I21
I410
tp429
a(g2
I21
I411
tp430
a(g2
I21
I412
tp431
a(g2
I21
I413
tp432
a(g2
I21
I414
tp433
a(g2
I21
I415
tp434
a(g2
I21
I416
tp435
a(g2
I21
I417
tp436
a(g2
I21
I418
tp437
a(g2
I21
I419
tp438
a(g2
I21
I420
tp439
a(g2
I21
I421
tp440
a(g2
I21
I422
tp441
a(g2
I21
I423
tp442
a(g2
I21
I424
tp443
a(g2
I21
I425
tp444
a(g2
I21
I426
tp445
a(g2
I22
I427
tp446
a(g2
I22
I428
tp447
a(g2
I22
I429
tp448
a(g2
I22
I430
tp449
a(g2
I22
I431
tp450
a(g2
I22
I432
tp451
a(g2
I22
I429
tp452
a(g2
I22
I430
tp453
a(g2
I22
I431
tp454
a(g2
I22
I432
tp455
a(g2
I22
I433
tp456
a(g2
I22
I434
tp457
a(g2
I22
I435
tp458
a(g2
I23
I436
tp459
a(g2
I23
I437
tp460
a(g2
I23
I438
tp461
a(g2
I23
I439
tp462
a(g2
I23
I440
tp463
a(g2
I23
I441
tp464
a(g2
I23
I440
tp465
a(g2
I23
I441
tp466
a(g2
I23
I442
tp467
a(g2
I23
I443
tp468
a(g2
I23
I444
tp469
a(g2
I23
I445
tp470
a(g2
I23
I446
tp471
a(g2
I23
I447
tp472
a(g2
I23
I448
tp473
a(g2
I23
I449
tp474
a(g2
I23
I450
tp475
a(g2
I23
I451
tp476
a(g2
I23
I452
tp477
a(g2
I23
I453
tp478
a(g2
I23
I454
tp479
a(g2
I23
I455
tp480
a(g2
I24
I456
tp481
a(g2
I24
I457
tp482
a(g2
I24
I458
tp483
a(g2
I24
I459
tp484
a(g2
I24
I460
tp485
a(g2
I24
I461
tp486
a(g2
I24
I453
tp487
a(g2
I24
I454
tp488
a(g2
I24
I455
tp489
a(g2
I24
I456
tp490
a(g2
I24
I457
tp491
a(g2
I24
I458
tp492
a(g2
I24
I459
tp493
a(g2
I24
I460
tp494
a(g2
I24
I461
tp495
a(g2
I24
I462
tp496
a(g2
I24
I463
tp497
a(g2
I24
I464
tp498
a(g2
I24
I465
tp499
a(g2
I25
I466
tp500
a(g2
I25
I467
tp501
a(g2
I25
I468
tp502
a(g2
I25
I469
tp503
a(g2
I25
I470
tp504
a(g2
I25
I471
tp505
a(g2
I25
I466
tp506
a(g2
I25
I467
tp507
a(g2
I25
I468
tp508
a(g2
I25
I469
tp509
a(g2
I25
I470
tp510
a(g2
I25
I471
tp511
a(g2
I25
I472
tp512
a(g2
I25
I473
tp513
a(g2
I25
I474
tp514
a(g2
I25
I475
tp515
a(g2
I25
I476
tp516
a(g2
I25
I477
tp517
a(g2
I25
I478
tp518
a(g2
I25
I479
tp519
a(g2
I25
I480
tp520
a(g2
I26
I481
tp521
a(g2
I26
I482
tp522
a(g2
I26
I483
tp523
a(g2
I26
I484
tp524
a(g2
I26
I485
tp525
a(g2
I26
I486
tp526
a(g2
I26
I482
tp527
a(g2
I26
I483
tp528
a(g2
I26
I484
tp529
a(g2
I26
I485
tp530
a(g2
I26
I486
tp531
a(g2
I26
I487
tp532
a(g2
I26
I488
tp533
a(g2
I26
I489
tp534
a(g2
I26
I490
tp535
a(g2
I27
I491
tp536
a(g2
I27
I492
tp537
a(g2
I27
I493
tp538
a(g2
I27
I494
tp539
a(g2
I27
I495
tp540
a(g2
I27
I496
tp541
a(g2
I27
I493
tp542
a(g2
I27
I494
tp543
a(g2
I27
I495
tp544
a(g2
I27
I496
tp545
a(g2
I27
I497
tp546
a(g2
I27
I498
tp547
a(g2
I27
I499
tp548
a(g2
I27
I500
tp549
a(g2
I27
I501
tp550
a(g2
I27
I502
tp551
a(g2
I27
I503
tp552
a(g2
I27
I504
tp553
a(g2
I27
I505
tp554
a(g2
I27
I506
tp555
a(g2
I27
I507
tp556
a(g2
I27
I508
tp557
a(g2
I27
I509
tp558
a(g2
I28
I510
tp559
a(g2
I28
I511
tp560
a(g2
I28
I512
tp561
a(g2
I28
I513
tp562
a(g2
I28
I514
tp563
a(g2
I28
I515
tp564
a(g2
I28
I512
tp565
a(g2
I28
I513
tp566
a(g2
I28
I514
tp567
a(g2
I28
I515
tp568
a(g2
I28
I516
tp569
a(g2
I28
I517
tp570
a(g2
I28
I518
tp571
a(g2
I28
I519
tp572
a(g2
I28
I520
tp573
a(g2
I28
I521
tp574
a(g2
I28
I522
tp575
a(g2
I28
I523
tp576
a(g2
I29
I524
tp577
a(g2
I29
I525
tp578
a(g2
I29
I526
tp579
a(g2
I29
I527
tp580
a(g2
I29
I528
tp581
a(g2
I29
I529
tp582
a(g2
I29
I522
tp583
a(g2
I29
I523
tp584
a(g2
I29
I524
tp585
a(g2
I29
I525
tp586
a(g2
I29
I526
tp587
a(g2
I29
I527
tp588
a(g2
I29
I528
tp589
a(g2
I29
I529
tp590
a(g2
I29
I530
tp591
a(g2
I29
I531
tp592
a(g2
I29
I532
tp593
a(g2
I29
I533
tp594
a(g2
I29
I534
tp595
a(g2
I29
I535
tp596
a(g2
I29
I536
tp597
a(g2
I29
I537
tp598
a(g2
I29
I538
tp599
a(g2
I29
I539
tp600
a(g2
I30
I540
tp601
a(g2
I30
I541
tp602
a(g2
I30
I542
tp603
a(g2
I30
I543
tp604
a(g2
I30
I544
tp605
a(g2
I30
I545
tp606
a(g2
I30
I538
tp607
a(g2
I30
I539
tp608
a(g2
I30
I540
tp609
a(g2
I30
I541
tp610
a(g2
I30
I542
tp611
a(g2
I30
I543
tp612
a(g2
I30
I544
tp613
a(g2
I30
I545
tp614
a(g2
I30
I546
tp615
a(g2
I30
I547
tp616
a(g2
I30
I548
tp617
a(g2
I30
I549
tp618
a(g2
I30
I550
tp619
a(g2
I30
I551
tp620
a(g2
I30
I552
tp621
a(g2
I30
I553
tp622
a(g2
I31
I554
tp623
a(g2
I31
I555
tp624
a(g2
I31
I556
tp625
a(g2
I31
I557
tp626
a(g2
I31
I558
tp627
a(g2
I31
I559
tp628
a(g2
I31
I554
tp629
a(g2
I31
I555
tp630
a(g2
I31
I556
tp631
a(g2
I31
I557
tp632
a(g2
I31
I558
tp633
a(g2
I31
I559
tp634
a(g2
I31
I560
tp635
a(g2
I31
I561
tp636
a(g2
I31
I562
tp637
a(g2
I31
I563
tp638
a(g2
I31
I564
tp639
a(g2
I31
I565
tp640
a(g2
I31
I566
tp641
a(g2
I32
I567
tp642
a(g2
I32
I568
tp643
a(g2
I32
I569
tp644
a(g2
I32
I570
tp645
a(g2
I32
I571
tp646
a(g2
I32
I572
tp647
a(g2
I32
I567
tp648
a(g2
I32
I568
tp649
a(g2
I32
I569
tp650
a(g2
I32
I570
tp651
a(g2
I32
I571
tp652
a(g2
I32
I572
tp653
a(g2
I32
I573
tp654
a(g2
I32
I574
tp655
a(g2
I32
I575
tp656
a(g2
I32
I576
tp657
a(g2
I32
I577
tp658
a(g2
I32
I578
tp659
a(g2
I32
I579
tp660
a(g2
I32
I580
tp661
a(g2
I32
I581
tp662
a(g2
I32
I582
tp663
a(g2
I32
I583
tp664
a(g2
I32
I584
tp665
a(g2
I32
I585
tp666
a(g2
I33
I586
tp667
a(g2
I33
I587
tp668
a(g2
I33
I588
tp669
a(g2
I33
I589
tp670
a(g2
I33
I590
tp671
a(g2
I33
I591
tp672
a(g2
I33
I586
tp673
a(g2
I33
I587
tp674
a(g2
I33
I588
tp675
a(g2
I33
I589
tp676
a(g2
I33
I590
tp677
a(g2
I33
I591
tp678
a(g2
I33
I592
tp679
a(g2
I33
I593
tp680
a(g2
I33
I594
tp681
a(g2
I33
I595
tp682
a(g2
I33
I596
tp683
a(g2
I33
I597
tp684
a(g2
I33
I598
tp685
a(g2
I33
I599
tp686
a(g2
I33
I600
tp687
a(g2
I34
I601
tp688
a(g2
I34
I602
tp689
a(g2
I34
I603
tp690
a(g2
I34
I604
tp691
a(g2
I34
I605
tp692
a(g2
I34
I606
tp693
a(g2
I34
I601
tp694
a(g2
I34
I602
tp695
a(g2
I34
I603
tp696
a(g2
I34
I604
tp697
a(g2
I34
I605
tp698
a(g2
I34
I606
tp699
a(g2
I34
I607
tp700
a(g2
I34
I608
tp701
a(g2
I34
I609
tp702
a(g2
I34
I610
tp703
a(g2
I34
I611
tp704
a(g2
I35
I612
tp705
a(g2
I35
I613
tp706
a(g2
I35
I614
tp707
a(g2
I35
I615
tp708
a(g2
I35
I616
tp709
a(g2
I35
I617
tp710
a(g2
I35
I612
tp711
a(g2
I35
I613
tp712
a(g2
I35
I614
tp713
a(g2
I35
I615
tp714
a(g2
I35
I616
tp715
a(g2
I35
I617
tp716
a(g2
I35
I618
tp717
a(g2
I35
I619
tp718
a(g2
I35
I620
tp719
a(g2
I35
I621
tp720
a(g2
I35
I622
tp721
a(g2
I35
I623
tp722
a(g2
I35
I624
tp723
a(g2
I35
I625
tp724
a(g2
I36
I626
tp725
a(g2
I36
I627
tp726
a(g2
I36
I628
tp727
a(g2
I36
I629
tp728
a(g2
I36
I630
tp729
a(g2
I36
I631
tp730
a(g2
I36
I624
tp731
a(g2
I36
I625
tp732
a(g2
I36
I626
tp733
a(g2
I36
I627
tp734
a(g2
I36
I628
tp735
a(g2
I36
I629
tp736
a(g2
I36
I630
tp737
a(g2
I36
I631
tp738
a(g2
I36
I632
tp739
a(g2
I36
I633
tp740
a(g2
I36
I634
tp741
a(g2
I36
I635
tp742
a(g2
I36
I636
tp743
a(g2
I36
I637
tp744
a(g2
I37
I638
tp745
a(g2
I37
I639
tp746
a(g2
I37
I640
tp747
a(g2
I37
I641
tp748
a(g2
I37
I642
tp749
a(g2
I37
I643
tp750
a(g2
I37
I634
tp751
a(g2
I37
I635
tp752
a(g2
I37
I636
tp753
a(g2
I37
I637
tp754
a(g2
I37
I638
tp755
a(g2
I37
I639
tp756
a(g2
I37
I640
tp757
a(g2
I37
I641
tp758
a(g2
I37
I642
tp759
a(g2
I37
I643
tp760
a(g2
I37
I644
tp761
a(g2
I37
I645
tp762
a(g2
I37
I646
tp763
a(g2
I37
I647
tp764
a(g2
I37
I648
tp765
a(g2
I38
I649
tp766
a(g2
I38
I650
tp767
a(g2
I38
I651
tp768
a(g2
I38
I652
tp769
a(g2
I38
I653
tp770
a(g2
I38
I654
tp771
a(g2
I38
I647
tp772
a(g2
I38
I648
tp773
a(g2
I38
I649
tp774
a(g2
I38
I650
tp775
a(g2
I38
I651
tp776
a(g2
I38
I652
tp777
a(g2
I38
I653
tp778
a(g2
I38
I654
tp779
a(g2
I39
I655
tp780
a(g2
I39
I656
tp781
a(g2
I39
I657
tp782
a(g2
I39
I658
tp783
a(g2
I39
I659
tp784
a(g2
I39
I660
tp785
a(g2
I39
I652
tp786
a(g2
I39
I653
tp787
a(g2
I39
I654
tp788
a(g2
I39
I655
tp789
a(g2
I39
I656
tp790
a(g2
I39
I657
tp791
a(g2
I39
I658
tp792
a(g2
I39
I659
tp793
a(g2
I39
I660
tp794
a(g2
I39
I661
tp795
a(g2
I40
I662
tp796
a(g2
I40
I663
tp797
a(g2
I40
I664
tp798
a(g2
I40
I665
tp799
a(g2
I40
I666
tp800
a(g2
I40
I667
tp801
a(g2
I40
I658
tp802
a(g2
I40
I659
tp803
a(g2
I40
I660
tp804
a(g2
I40
I661
tp805
a(g2
I40
I662
tp806
a(g2
I40
I663
tp807
a(g2
I40
I664
tp808
a(g2
I40
I665
tp809
a(g2
I40
I666
tp810
a(g2
I40
I667
tp811
a(g2
I40
I668
tp812
a(g2
I40
I669
tp813
a(g2
I40
I670
tp814
a(g2
I40
I671
tp815
a(g2
I40
I672
tp816
a(g2
I40
I673
tp817
a(g2
I40
I674
tp818
a(g2
I40
I675
tp819
a(g2
I41
I676
tp820
a(g2
I41
I677
tp821
a(g2
I41
I678
tp822
a(g2
I41
I679
tp823
a(g2
I41
I680
tp824
a(g2
I41
I681
tp825
a(g2
I41
I672
tp826
a(g2
I41
I673
tp827
a(g2
I41
I674
tp828
a(g2
I41
I675
tp829
a(g2
I41
I676
tp830
a(g2
I41
I677
tp831
a(g2
I41
I678
tp832
a(g2
I41
I679
tp833
a(g2
I41
I680
tp834
a(g2
I41
I681
tp835
a(g2
I41
I682
tp836
a(g2
I41
I683
tp837
a(g2
I41
I684
tp838
a(g2
I41
I685
tp839
a(g2
I41
I686
tp840
a(g2
I41
I687
tp841
a(g2
I42
I688
tp842
a(g2
I42
I689
tp843
a(g2
I42
I690
tp844
a(g2
I42
I691
tp845
a(g2
I42
I692
tp846
a(g2
I42
I693
tp847
a(g2
I42
I688
tp848
a(g2
I42
I689
tp849
a(g2
I42
I690
tp850
a(g2
I42
I691
tp851
a(g2
I42
I692
tp852
a(g2
I42
I693
tp853
a(g2
I42
I694
tp854
a(g2
I42
I695
tp855
a(g2
I42
I696
tp856
a(g2
I42
I697
tp857
a(g2
I42
I698
tp858
a(g2
I42
I699
tp859
a(g2
I42
I700
tp860
a(g2
I42
I701
tp861
a(g2
I42
I702
tp862
a(g2
I42
I703
tp863
a(g2
I42
I704
tp864
a(g2
I42
I705
tp865
a(g2
I43
I706
tp866
a(g2
I43
I707
tp867
a(g2
I43
I708
tp868
a(g2
I43
I709
tp869
a(g2
I43
I710
tp870
a(g2
I43
I711
tp871
a(g2
I43
I705
tp872
a(g2
I43
I706
tp873
a(g2
I43
I707
tp874
a(g2
I43
I708
tp875
a(g2
I43
I709
tp876
a(g2
I43
I710
tp877
a(g2
I43
I711
tp878
a(g2
I43
I712
tp879
a(g2
I43
I713
tp880
a(g2
I44
I714
tp881
a(g2
I44
I715
tp882
a(g2
I44
I716
tp883
a(g2
I44
I717
tp884
a(g2
I44
I718
tp885
a(g2
I44
I719
tp886
a(g2
I44
I712
tp887
a(g2
I44
I713
tp888
a(g2
I44
I714
tp889
a(g2
I44
I715
tp890
a(g2
I44
I716
tp891
a(g2
I44
I717
tp892
a(g2
I44
I718
tp893
a(g2
I44
I719
tp894
a(g2
I44
I720
tp895
a(g2
I44
I721
tp896
a(g2
I44
I722
tp897
a(g2
I44
I723
tp898
a(g2
I44
I724
tp899
a(g2
I44
I725
tp900
a(g2
I44
I726
tp901
a(g2
I44
I727
tp902
a(g2
I44
I728
tp903
a(g2
I45
I729
tp904
a(g2
I45
I730
tp905
a(g2
I45
I731
tp906
a(g2
I45
I732
tp907
a(g2
I45
I733
tp908
a(g2
I45
I734
tp909
a(g2
I45
I723
tp910
a(g2
I45
I724
tp911
a(g2
I45
I725
tp912
a(g2
I45
I726
tp913
a(g2
I45
I727
tp914
a(g2
I45
I728
tp915
a(g2
I45
I729
tp916
a(g2
I45
I730
tp917
a(g2
I45
I731
tp918
a(g2
I45
I732
tp919
a(g2
I46
I733
tp920
a(g2
I46
I734
tp921
a(g2
I46
I735
tp922
a(g2
I46
I736
tp923
a(g2
I46
I737
tp924
a(g2
I46
I738
tp925
a(g2
I46
I735
tp926
a(g2
I46
I736
tp927
a(g2
I46
I737
tp928
a(g2
I46
I738
tp929
a(g2
I46
I739
tp930
a(g2
I46
I740
tp931
a(g2
I46
I741
tp932
a(g2
I46
I742
tp933
a(g2
I46
I743
tp934
a(g2
I46
I744
tp935
a(g2
I46
I745
tp936
a(g2
I46
I746
tp937
a(g2
I46
I747
tp938
a(g2
I46
I748
tp939
a(g2
I46
I749
tp940
a(g2
I46
I750
tp941
a(g2
I46
I751
tp942
a(g2
I47
I752
tp943
a(g2
I47
I753
tp944
a(g2
I47
I754
tp945
a(g2
I47
I755
tp946
a(g2
I47
I756
tp947
a(g2
I47
I757
tp948
a(g2
I47
I745
tp949
a(g2
I47
I746
tp950
a(g2
I47
I747
tp951
a(g2
I47
I748
tp952
a(g2
I47
I749
tp953
a(g2
I47
I750
tp954
a(g2
I47
I751
tp955
a(g2
I47
I752
tp956
a(g2
I47
I753
tp957
a(g2
I47
I754
tp958
a(g2
I47
I755
tp959
a(g2
I47
I756
tp960
a(g2
I48
I757
tp961
a(g2
I48
I758
tp962
a(g2
I48
I759
tp963
a(g2
I48
I760
tp964
a(g2
I48
I761
tp965
a(g2
I48
I762
tp966
a(g2
I48
I751
tp967
a(g2
I48
I752
tp968
a(g2
I48
I753
tp969
a(g2
I48
I754
tp970
a(g2
I48
I755
tp971
a(g2
I48
I756
tp972
a(g2
I48
I757
tp973
a(g2
I48
I758
tp974
a(g2
I48
I759
tp975
a(g2
I48
I760
tp976
a(g2
I49
I761
tp977
a(g2
I49
I762
tp978
a(g2
I49
I763
tp979
a(g2
I49
I764
tp980
a(g2
I49
I765
tp981
a(g2
I49
I766
tp982
a(g2
I49
I747
tp983
a(g2
I49
I748
tp984
a(g2
I49
I749
tp985
a(g2
I49
I750
tp986
a(g2
I49
I751
tp987
a(g2
I49
I752
tp988
a(g2
I49
I753
tp989
a(g2
I49
I754
tp990
a(g2
I49
I755
tp991
a(g2
I49
I756
tp992
a(g2
I49
I757
tp993
a(g2
I49
I758
tp994
a(g2
I49
I759
tp995
a(g2
I49
I760
tp996
a(g2
I49
I761
tp997
a(g2
I49
I762
tp998
a(g2
I49
I763
tp999
a(g2
I49
I764
tp1000
a(g2
I50
I765
tp1001
a(g2
I50
I766
tp1002
a(g2
I50
I767
tp1003
a(g2
I50
I768
tp1004
a(g2
I50
I769
tp1005
a(g2
I50
I770
tp1006
a(g2
I50
I756
tp1007
a(g2
I50
I757
tp1008
a(g2
I50
I758
tp1009
a(g2
I50
I759
tp1010
a(g2
I50
I760
tp1011
a(g2
I50
I761
tp1012
a(g2
I50
I762
tp1013
a(g2
I50
I763
tp1014
a(g2
I50
I764
tp1015
a(g2
I50
I765
tp1016
a(g2
I50
I766
tp1017
a(g2
I50
I767
tp1018
a(g2
I50
I768
tp1019
a(g2
I50
I769
tp1020
a(g2
I51
I770
tp1021
a(g2
I51
I771
tp1022
a(g2
I51
I772
tp1023
a(g2
I51
I773
tp1024
a(g2
I51
I774
tp1025
a(g2
I51
I775
tp1026
a(g2
I51
I759
tp1027
a(g2
I51
I760
tp1028
a(g2
I51
I761
tp1029
a(g2
I51
I762
tp1030
a(g2
I51
I763
tp1031
a(g2
I51
I764
tp1032
a(g2
I51
I765
tp1033
a(g2
I51
I766
tp1034
a(g2
I51
I767
tp1035
a(g2
I51
I768
tp1036
a(g2
I51
I769
tp1037
a(g2
I51
I770
tp1038
a(g2
I51
I771
tp1039
a(g2
I52
I772
tp1040
a(g2
I52
I773
tp1041
a(g2
I52
I774
tp1042
a(g2
I52
I775
tp1043
a(g2
I52
I776
tp1044
a(g2
I52
I777
tp1045
a(g2
I52
I769
tp1046
a(g2
I52
I770
tp1047
a(g2
I52
I771
tp1048
a(g2
I52
I772
tp1049
a(g2
I52
I773
tp1050
a(g2
I52
I774
tp1051
a(g2
I52
I775
tp1052
a(g2
I52
I776
tp1053
a(g2
I52
I777
tp1054
a(g2
I52
I778
tp1055
a(g2
I52
I779
tp1056
a(g2
I52
I780
tp1057
a(g2
I52
I781
tp1058
a(g2
I52
I782
tp1059
a(g2
I53
I783
tp1060
a(g2
I53
I784
tp1061
a(g2
I53
I785
tp1062
a(g2
I53
I786
tp1063
a(g2
I53
I787
tp1064
a(g2
I53
I788
tp1065
a(g2
I53
I781
tp1066
a(g2
I53
I782
tp1067
a(g2
I53
I783
tp1068
a(g2
I53
I784
tp1069
a(g2
I53
I785
tp1070
a(g2
I53
I786
tp1071
a(g2
I53
I787
tp1072
a(g2
I53
I788
tp1073
a(g2
I53
I789
tp1074
a(g2
I53
I790
tp1075
a(g2
I53
I791
tp1076
a(g2
I53
I792
tp1077
a(g2
I53
I793
tp1078
a(g2
I53
I794
tp1079
a(g2
I53
I795
tp1080
a(g2
I53
I796
tp1081
a(g2
I53
I797
tp1082
a(g2
I54
I798
tp1083
a(g2
I54
I799
tp1084
a(g2
I54
I800
tp1085
a(g2
I54
I801
tp1086
a(g2
I54
I802
tp1087
a(g2
I54
I803
tp1088
a(g2
I54
I790
tp1089
a(g2
I54
I791
tp1090
a(g2
I54
I792
tp1091
a(g2
I54
I793
tp1092
a(g2
I54
I794
tp1093
a(g2
I54
I795
tp1094
a(g2
I54
I796
tp1095
a(g2
I54
I797
tp1096
a(g2
I54
I798
tp1097
a(g2
I54
I799
tp1098
a(g2
I54
I800
tp1099
a(g2
I55
I801
tp1100
a(g2
I55
I802
tp1101
a(g2
I55
I803
tp1102
a(g2
I55
I804
tp1103
a(g2
I55
I805
tp1104
a(g2
I55
I806
tp1105
a(g2
I55
I797
tp1106
a(g2
I55
I798
tp1107
a(g2
I55
I799
tp1108
a(g2
I55
I800
tp1109
a(g2
I55
I801
tp1110
a(g2
I55
I802
tp1111
a(g2
I55
I803
tp1112
a(g2
I55
I804
tp1113
a(g2
I55
I805
tp1114
a(g2
I55
I806
tp1115
a(g2
I55
I807
tp1116
a(g2
I55
I808
tp1117
a(g2
I55
I809
tp1118
a(g2
I55
I810
tp1119
a(g2
I55
I811
tp1120
a(g2
I56
I812
tp1121
a(g2
I56
I813
tp1122
a(g2
I56
I814
tp1123
a(g2
I56
I815
tp1124
a(g2
I56
I816
tp1125
a(g2
I56
I817
tp1126
a(g2
I56
I802
tp1127
a(g2
I56
I803
tp1128
a(g2
I56
I804
tp1129
a(g2
I56
I805
tp1130
a(g2
I56
I806
tp1131
a(g2
I56
I807
tp1132
a(g2
I56
I808
tp1133
a(g2
I56
I809
tp1134
a(g2
I56
I810
tp1135
a(g2
I56
I811
tp1136
a(g2
I56
I812
tp1137
a(g2
I56
I813
tp1138
a(g2
I57
I814
tp1139
a(g2
I57
I815
tp1140
a(g2
I57
I816
tp1141
a(g2
I57
I817
tp1142
a(g2
I57
I818
tp1143
a(g2
I57
I819
tp1144
a(g2
I57
I807
tp1145
a(g2
I57
I808
tp1146
a(g2
I57
I809
tp1147
a(g2
I57
I810
tp1148
a(g2
I57
I811
tp1149
a(g2
I57
I812
tp1150
a(g2
I57
I813
tp1151
a(g2
I57
I814
tp1152
a(g2
I57
I815
tp1153
a(g2
I57
I816
tp1154
a(g2
I58
I817
tp1155
a(g2
I58
I818
tp1156
a(g2
I58
I819
tp1157
a(g2
I58
I820
tp1158
a(g2
I58
I821
tp1159
a(g2
I58
I822
tp1160
a(g2
I58
I818
tp1161
a(g2
I58
I819
tp1162
a(g2
I58
I820
tp1163
a(g2
I58
I821
tp1164
a(g2
I58
I822
tp1165
a(g2
I58
I823
tp1166
a(g2
I58
I824
tp1167
a(g2
I58
I825
tp1168
a(g2
I58
I826
tp1169
a(g2
I58
I827
tp1170
a(g2
I58
I828
tp1171
a(g2
I58
I829
tp1172
a(g2
I58
I830
tp1173
a(g2
I58
I831
tp1174
a(g2
I58
I832
tp1175
a(g2
I58
I833
tp1176
a(g2
I59
I834
tp1177
a(g2
I59
I835
tp1178
a(g2
I59
I836
tp1179
a(g2
I59
I837
tp1180
a(g2
I59
I838
tp1181
a(g2
I59
I839
tp1182
a(g2
I59
I828
tp1183
a(g2
I59
I829
tp1184
a(g2
I59
I830
tp1185
a(g2
I59
I831
tp1186
a(g2
I59
I832
tp1187
a(g2
I59
I833
tp1188
a(g2
I59
I834
tp1189
a(g2
I59
I835
tp1190
a(g2
I59
I836
tp1191
a(g2
I59
I837
tp1192
a(g2
I59
I838
tp1193
a(g2
I59
I839
tp1194
a(g2
I59
I840
tp1195
a(g2
I59
I841
tp1196
a(g2
I59
I842
tp1197
a(g2
I59
I843
tp1198
a(g2
I59
I844
tp1199
a(g2
I60
I845
tp1200
a(g2
I60
I846
tp1201
a(g2
I60
I847
tp1202
a(g2
I60
I848
tp1203
a(g2
I60
I849
tp1204
a(g2
I60
I850
tp1205
a(g2
I60
I839
tp1206
a(g2
I60
I840
tp1207
a(g2
I60
I841
tp1208
a(g2
I60
I842
tp1209
a(g2
I60
I843
tp1210
a(g2
I60
I844
tp1211
a(g2
I60
I845
tp1212
a(g2
I60
I846
tp1213
a(g2
I60
I847
tp1214
a(g2
I60
I848
tp1215
a(g2
I60
I849
tp1216
a(g2
I60
I850
tp1217
a(g2
I60
I851
tp1218
a(g2
I60
I852
tp1219
a(g2
I61
I853
tp1220
a(g2
I61
I854
tp1221
a(g2
I61
I855
tp1222
a(g2
I61
I856
tp1223
a(g2
I61
I857
tp1224
a(g2
I61
I858
tp1225
a(g2
I61
I841
tp1226
a(g2
I61
I842
tp1227
a(g2
I61
I843
tp1228
a(g2
I61
I844
tp1229
a(g2
I61
I845
tp1230
a(g2
I61
I846
tp1231
a(g2
I61
I847
tp1232
a(g2
I61
I848
tp1233
a(g2
I61
I849
tp1234
a(g2
I61
I850
tp1235
a(g2
I61
I851
tp1236
a(g2
I61
I852
tp1237
a(g2
I61
I853
tp1238
a(g2
I61
I854
tp1239
a(g2
I61
I855
tp1240
a(g2
I61
I856
tp1241
a(g2
I62
I857
tp1242
a(g2
I62
I858
tp1243
a(g2
I62
I859
tp1244
a(g2
I62
I860
tp1245
a(g2
I62
I861
tp1246
a(g2
I62
I862
tp1247
a(g2
I62
I851
tp1248
a(g2
I62
I852
tp1249
a(g2
I62
I853
tp1250
a(g2
I62
I854
tp1251
a(g2
I62
I855
tp1252
a(g2
I63
I856
tp1253
a(g2
I63
I857
tp1254
a(g2
I63
I858
tp1255
a(g2
I63
I859
tp1256
a(g2
I63
I860
tp1257
a(g2
I63
I861
tp1258
a(g2
I63
I847
tp1259
a(g2
I63
I848
tp1260
a(g2
I63
I849
tp1261
a(g2
I63
I850
tp1262
a(g2
I63
I851
tp1263
a(g2
I63
I852
tp1264
a(g2
I63
I853
tp1265
a(g2
I63
I854
tp1266
a(g2
I63
I855
tp1267
a(g2
I63
I856
tp1268
a(g2
I63
I857
tp1269
a(g2
I63
I858
tp1270
a(g2
I63
I859
tp1271
a(g2
I63
I860
tp1272
a(g2
I63
I861
tp1273
a(g2
I63
I862
tp1274
a(g2
I63
I863
tp1275
a(g2
I63
I864
tp1276
a(g2
I63
I865
tp1277
a(g2
I63
I866
tp1278
a(g2
I63
I867
tp1279
a(g2
I64
I868
tp1280
a(g2
I64
I869
tp1281
a(g2
I64
I870
tp1282
a(g2
I64
I871
tp1283
a(g2
I64
I872
tp1284
a(g2
I64
I873
tp1285
a(g2
I64
I858
tp1286
a(g2
I64
I859
tp1287
a(g2
I64
I860
tp1288
a(g2
I64
I861
tp1289
a(g2
I64
I862
tp1290
a(g2
I64
I863
tp1291
a(g2
I64
I864
tp1292
a(g2
I64
I865
tp1293
a(g2
I64
I866
tp1294
a(g2
I64
I867
tp1295
a(g2
I64
I868
tp1296
a(g2
I64
I869
tp1297
a(g2
I64
I870
tp1298
a(g2
I64
I871
tp1299
a(g2
I64
I872
tp1300
a(g2
I64
I873
tp1301
a(g2
I65
I874
tp1302
a(g2
I65
I875
tp1303
a(g2
I65
I876
tp1304
a(g2
I65
I877
tp1305
a(g2
I65
I878
tp1306
a(g2
I65
I879
tp1307
a(g2
I65
I872
tp1308
a(g2
I65
I873
tp1309
a(g2
I65
I874
tp1310
a(g2
I65
I875
tp1311
a(g2
I65
I876
tp1312
a(g2
I65
I877
tp1313
a(g2
I65
I878
tp1314
a(g2
I65
I879
tp1315
a(g2
I65
I880
tp1316
a(g2
I65
I881
tp1317
a(g2
I65
I882
tp1318
a(g2
I66
I883
tp1319
a(g2
I66
I884
tp1320
a(g2
I66
I885
tp1321
a(g2
I66
I886
tp1322
a(g2
I66
I887
tp1323
a(g2
I66
I888
tp1324
a(g2
I66
I875
tp1325
a(g2
I66
I876
tp1326
a(g2
I66
I877
tp1327
a(g2
I66
I878
tp1328
a(g2
I66
I879
tp1329
a(g2
I66
I880
tp1330
a(g2
I66
I881
tp1331
a(g2
I66
I882
tp1332
a(g2
I66
I883
tp1333
a(g2
I66
I884
tp1334
a(g2
I66
I885
tp1335
a(g2
I66
I886
tp1336
a(g2
I67
I887
tp1337
a(g2
I67
I888
tp1338
a(g2
I67
I889
tp1339
a(g2
I67
I890
tp1340
a(g2
I67
I891
tp1341
a(g2
I67
I892
tp1342
a(g2
I67
I881
tp1343
a(g2
I67
I882
tp1344
a(g2
I67
I883
tp1345
a(g2
I67
I884
tp1346
a(g2
I67
I885
tp1347
a(g2
I67
I886
tp1348
a(g2
I67
I887
tp1349
a(g2
I67
I888
tp1350
a(g2
I67
I889
tp1351
a(g2
I67
I890
tp1352
a(g2
I67
I891
tp1353
a(g2
I67
I892
tp1354
a(g2
I67
I893
tp1355
a(g2
I68
I894
tp1356
a(g2
I68
I895
tp1357
a(g2
I68
I896
tp1358
a(g2
I68
I897
tp1359
a(g2
I68
I898
tp1360
a(g2
I68
I899
tp1361
a(g2
I68
I889
tp1362
a(g2
I68
I890
tp1363
a(g2
I68
I891
tp1364
a(g2
I68
I892
tp1365
a(g2
I68
I893
tp1366
a(g2
I68
I894
tp1367
a(g2
I68
I895
tp1368
a(g2
I68
I896
tp1369
a(g2
I68
I897
tp1370
a(g2
I68
I898
tp1371
a(g2
I68
I899
tp1372
a(g2
I68
I900
tp1373
a(g2
I68
I901
tp1374
a(g2
I68
I902
tp1375
a(g2
I68
I903
tp1376
a(g2
I68
I904
tp1377
a(g2
I69
I905
tp1378
a(g2
I69
I906
tp1379
a(g2
I69
I907
tp1380
a(g2
I69
I908
tp1381
a(g2
I69
I909
tp1382
a(g2
I69
I910
tp1383
a(g2
I69
I896
tp1384
a(g2
I69
I897
tp1385
a(g2
I69
I898
tp1386
a(g2
I69
I899
tp1387
a(g2
I69
I900
tp1388
a(g2
I69
I901
tp1389
a(g2
I69
I902
tp1390
a(g2
I69
I903
tp1391
a(g2
I69
I904
tp1392
a(g2
I69
I905
tp1393
a(g2
I69
I906
tp1394
a(g2
I69
I907
tp1395
a(g2
I69
I908
tp1396
a(g2
I69
I909
tp1397
a(g2
I69
I910
tp1398
a(g2
I69
I911
tp1399
a(g2
I69
I912
tp1400
a(g2
I70
I913
tp1401
a(g2
I70
I914
tp1402
a(g2
I70
I915
tp1403
a(g2
I70
I916
tp1404
a(g2
I70
I917
tp1405
a(g2
I70
I918
tp1406
a(g2
I70
I899
tp1407
a(g2
I70
I900
tp1408
a(g2
I70
I901
tp1409
a(g2
I70
I902
tp1410
a(g2
I70
I903
tp1411
a(g2
I70
I904
tp1412
a(g2
I70
I905
tp1413
a(g2
I70
I906
tp1414
a(g2
I70
I907
tp1415
a(g2
I70
I908
tp1416
a(g2
I70
I909
tp1417
a(g2
I71
I910
tp1418
a(g2
I71
I911
tp1419
a(g2
I71
I912
tp1420
a(g2
I71
I913
tp1421
a(g2
I71
I914
tp1422
a(g2
I71
I915
tp1423
a(g2
I71
I898
tp1424
a(g2
I71
I899
tp1425
a(g2
I71
I900
tp1426
a(g2
I71
I901
tp1427
a(g2
I71
I902
tp1428
a(g2
I71
I903
tp1429
a(g2
I71
I904
tp1430
a(g2
I71
I905
tp1431
a(g2
I71
I906
tp1432
a(g2
I71
I907
tp1433
a(g2
I71
I908
tp1434
a(g2
I71
I909
tp1435
a(g2
I71
I910
tp1436
a(g2
I71
I911
tp1437
a(g2
I71
I912
tp1438
a(g2
I71
I913
tp1439
a(g2
I71
I914
tp1440
a(g2
I72
I915
tp1441
a(g2
I72
I916
tp1442
a(g2
I72
I917
tp1443
a(g2
I72
I918
tp1444
a(g2
I72
I919
tp1445
a(g2
I72
I920
tp1446
a(g2
I72
I903
tp1447
a(g2
I72
I904
tp1448
a(g2
I72
I905
tp1449
a(g2
I72
I906
tp1450
a(g2
I72
I907
tp1451
a(g2
I72
I908
tp1452
a(g2
I72
I909
tp1453
a(g2
I72
I910
tp1454
a(g2
I72
I911
tp1455
a(g2
I72
I912
tp1456
a(g2
I72
I913
tp1457
a(g2
I72
I914
tp1458
a(g2
I72
I915
tp1459
a(g2
I73
I916
tp1460
a(g2
I73
I917
tp1461
a(g2
I73
I918
tp1462
a(g2
I73
I919
tp1463
a(g2
I73
I920
tp1464
a(g2
I73
I921
tp1465
a(g2
I73
I906
tp1466
a(g2
I73
I907
tp1467
a(g2
I73
I908
tp1468
a(g2
I73
I909
tp1469
a(g2
I73
I910
tp1470
a(g2
I73
I911
tp1471
a(g2
I73
I912
tp1472
a(g2
I73
I913
tp1473
a(g2
I73
I914
tp1474
a(g2
I73
I915
tp1475
a(g2
I73
I916
tp1476
a(g2
I73
I917
tp1477
a(g2
I73
I918
tp1478
a(g2
I73
I919
tp1479
a(g2
I73
I920
tp1480
a(g2
I73
I921
tp1481
a(g2
I73
I922
tp1482
a(g2
I73
I923
tp1483
a(g2
I73
I924
tp1484
a(g2
I74
I925
tp1485
a(g2
I74
I926
tp1486
a(g2
I74
I927
tp1487
a(g2
I74
I928
tp1488
a(g2
I74
I929
tp1489
a(g2
I74
I930
tp1490
a(g2
I74
I919
tp1491
a(g2
I74
I920
tp1492
a(g2
I74
I921
tp1493
a(g2
I74
I922
tp1494
a(g2
I74
I923
tp1495
a(g2
I74
I924
tp1496
a(g2
I74
I925
tp1497
a(g2
I74
I926
tp1498
a(g2
I74
I927
tp1499
a(g2
I74
I928
tp1500
a(g2
I74
I929
tp1501
a(g2
I74
I930
tp1502
a(g2
I74
I931
tp1503
a(g2
I74
I932
tp1504
a(g2
I74
I933
tp1505
a(g2
I74
I934
tp1506
a(g2
I74
I935
tp1507
a(g2
I74
I936
tp1508
a(g2
I75
I937
tp1509
a(g2
I75
I938
tp1510
a(g2
I75
I939
tp1511
a(g2
I75
I940
tp1512
a(g2
I75
I941
tp1513
a(g2
I75
I942
tp1514
a(g2
I75
I925
tp1515
a(g2
I75
I926
tp1516
a(g2
I75
I927
tp1517
a(g2
I75
I928
tp1518
a(g2
I75
I929
tp1519
a(g2
I75
I930
tp1520
a(g2
I75
I931
tp1521
a(g2
I75
I932
tp1522
a(g2
I75
I933
tp1523
a(g2
I75
I934
tp1524
a(g2
I75
I935
tp1525
a(g2
I75
I936
tp1526
a(g2
I75
I937
tp1527
a(g2
I75
I938
tp1528
a(g2
I76
I939
tp1529
a(g2
I76
I940
tp1530
a(g2
I76
I941
tp1531
a(g2
I76
I942
tp1532
a(g2
I76
I943
tp1533
a(g2
I76
I944
tp1534
a(g2
I76
I934
tp1535
a(g2
I76
I935
tp1536
a(g2
I76
I936
tp1537
a(g2
I76
I937
tp1538
a(g2
I76
I938
tp1539
a(g2
I76
I939
tp1540
a(g2
I76
I940
tp1541
a(g2
I76
I941
tp1542
a(g2
I76
I942
tp1543
a(g2
I76
I943
tp1544
a(g2
I76
I944
tp1545
a(g2
I76
I945
tp1546
a(g2
I76
I946
tp1547
a(g2
I76
I947
tp1548
a(g2
I77
I948
tp1549
a(g2
I77
I949
tp1550
a(g2
I77
I950
tp1551
a(g2
I77
I951
tp1552
a(g2
I77
I952
tp1553
a(g2
I77
I953
tp1554
a(g2
I77
I941
tp1555
a(g2
I77
I942
tp1556
a(g2
I77
I943
tp1557
a(g2
I77
I944
tp1558
a(g2
I77
I945
tp1559
a(g2
I77
I946
tp1560
a(g2
I77
I947
tp1561
a(g2
I77
I948
tp1562
a(g2
I77
I949
tp1563
a(g2
I77
I950
tp1564
a(g2
I77
I951
tp1565
a(g2
I77
I952
tp1566
a(g2
I77
I953
tp1567
a(g2
I77
I954
tp1568
a(g2
I77
I955
tp1569
a(g2
I77
I956
tp1570
a(g2
I78
I957
tp1571
a(g2
I78
I958
tp1572
a(g2
I78
I959
tp1573
a(g2
I78
I960
tp1574
a(g2
I78
I961
tp1575
a(g2
I78
I962
tp1576
a(g2
I78
I948
tp1577
a(g2
I78
I949
tp1578
a(g2
I78
I950
tp1579
a(g2
I78
I951
tp1580
a(g2
I78
I952
tp1581
a(g2
I78
I953
tp1582
a(g2
I78
I954
tp1583
a(g2
I78
I955
tp1584
a(g2
I78
I956
tp1585
a(g2
I79
I957
tp1586
a(g2
I79
I958
tp1587
a(g2
I79
I959
tp1588
a(g2
I79
I960
tp1589
a(g2
I79
I961
tp1590
a(g2
I79
I962
tp1591
a(g2
I79
I947
tp1592
a(g2
I79
I948
tp1593
a(g2
I79
I949
tp1594
a(g2
I79
I950
tp1595
a(g2
I79
I951
tp1596
a(g2
I79
I952
tp1597
a(g2
I79
I953
tp1598
a(g2
I79
I954
tp1599
a(g2
I79
I955
tp1600
a(g2
I79
I956
tp1601
a(g2
I79
I957
tp1602
a(g2
I79
I958
tp1603
a(g2
I79
I959
tp1604
a(g2
I79
I960
tp1605
a(g2
I79
I961
tp1606
a(g2
I79
I962
tp1607
a(g2
I80
I963
tp1608
a(g2
I80
I964
tp1609
a(g2
I80
I965
tp1610
a(g2
I80
I966
tp1611
a(g2
I80
I967
tp1612
a(g2
I80
I968
tp1613
a(g2
I80
I950
tp1614
a(g2
I80
I951
tp1615
a(g2
I80
I952
tp1616
a(g2
I80
I953
tp1617
a(g2
I80
I954
tp1618
a(g2
I80
I955
tp1619
a(g2
I80
I956
tp1620
a(g2
I80
I957
tp1621
a(g2
I80
I958
tp1622
a(g2
I80
I959
tp1623
a(g2
I80
I960
tp1624
a(g2
I80
I961
tp1625
a(g2
I80
I962
tp1626
a(g2
I80
I963
tp1627
a(g2
I81
I964
tp1628
a(g2
I81
I965
tp1629
a(g2
I81
I966
tp1630
a(g2
I81
I967
tp1631
a(g2
I81
I968
tp1632
a(g2
I81
I969
tp1633
a(g2
I81
I951
tp1634
a(g2
I81
I952
tp1635
a(g2
I81
I953
tp1636
a(g2
I81
I954
tp1637
a(g2
I81
I955
tp1638
a(g2
I81
I956
tp1639
a(g2
I81
I957
tp1640
a(g2
I81
I958
tp1641
a(g2
I81
I959
tp1642
a(g2
I81
I960
tp1643
a(g2
I82
I961
tp1644
a(g2
I82
I962
tp1645
a(g2
I82
I963
tp1646
a(g2
I82
I964
tp1647
a(g2
I82
I965
tp1648
a(g2
I82
I966
tp1649
a(g2
I82
I957
tp1650
a(g2
I82
I958
tp1651
a(g2
I82
I959
tp1652
a(g2
I82
I960
tp1653
a(g2
I82
I961
tp1654
a(g2
I82
I962
tp1655
a(g2
I82
I963
tp1656
a(g2
I82
I964
tp1657
a(g2
I82
I965
tp1658
a(g2
I82
I966
tp1659
a(g2
I82
I967
tp1660
a(g2
I82
I968
tp1661
a(g2
I82
I969
tp1662
a(g2
I82
I970
tp1663
a(g2
I83
I971
tp1664
a(g2
I83
I972
tp1665
a(g2
I83
I973
tp1666
a(g2
I83
I974
tp1667
a(g2
I83
I975
tp1668
a(g2
I83
I976
tp1669
a(g2
I83
I967
tp1670
a(g2
I83
I968
tp1671
a(g2
I83
I969
tp1672
a(g2
I83
I970
tp1673
a(g2
I83
I971
tp1674
a(g2
I83
I972
tp1675
a(g2
I83
I973
tp1676
a(g2
I83
I974
tp1677
a(g2
I83
I975
tp1678
a(g2
I83
I976
tp1679
a(g2
I83
I977
tp1680
a(g2
I83
I978
tp1681
a(g2
I83
I979
tp1682
a(g2
I83
I980
tp1683
a(g2
I84
I981
tp1684
a(g2
I84
I982
tp1685
a(g2
I84
I983
tp1686
a(g2
I84
I984
tp1687
a(g2
I84
I985
tp1688
a(g2
I84
I986
tp1689
a(g2
I84
I971
tp1690
a(g2
I84
I972
tp1691
a(g2
I84
I973
tp1692
a(g2
I84
I974
tp1693
a(g2
I84
I975
tp1694
a(g2
I84
I976
tp1695
a(g2
I84
I977
tp1696
a(g2
I84
I978
tp1697
a(g2
I84
I979
tp1698
a(g2
I84
I980
tp1699
a(g2
I84
I981
tp1700
a(g2
I85
I982
tp1701
a(g2
I85
I983
tp1702
a(g2
I85
I984
tp1703
a(g2
I85
I985
tp1704
a(g2
I85
I986
tp1705
a(g2
I85
I987
tp1706
a(g2
I85
I979
tp1707
a(g2
I85
I980
tp1708
a(g2
I85
I981
tp1709
a(g2
I85
I982
tp1710
a(g2
I85
I983
tp1711
a(g2
I85
I984
tp1712
a(g2
I85
I985
tp1713
a(g2
I85
I986
tp1714
a(g2
I85
I987
tp1715
a(g2
I85
I988
tp1716
a(g2
I85
I989
tp1717
a(g2
I85
I990
tp1718
a(g2
I85
I991
tp1719
a(g2
I85
I992
tp1720
a(g2
I85
I993
tp1721
a(g2
I86
I994
tp1722
a(g2
I86
I995
tp1723
a(g2
I86
I996
tp1724
a(g2
I86
I997
tp1725
a(g2
I86
I998
tp1726
a(g2
I86
I999
tp1727
a(g2
I86
I986
tp1728
a(g2
I86
I987
tp1729
a(g2
I86
I988
tp1730
a(g2
I86
I989
tp1731
a(g2
I86
I990
tp1732
a(g2
I86
I991
tp1733
a(g2
I86
I992
tp1734
a(g2
I86
I993
tp1735
a(g2
I86
I994
tp1736
a(g2
I86
I995
tp1737
a(g2
I86
I996
tp1738
a(g2
I86
I997
tp1739
a(g2
I86
I998
tp1740
a(g2
I86
I999
tp1741
a(g2
I86
I1000
tp1742
a(g2
I86
I1001
tp1743
a(g2
I87
I1002
tp1744
a(g2
I87
I1003
tp1745
a(g2
I87
I1004
tp1746
a(g2
I87
I1005
tp1747
a(g2
I87
I1006
tp1748
a(g2
I87
I1007
tp1749
a(g2
I87
I987
tp1750
a(g2
I87
I988
tp1751
a(g2
I87
I989
tp1752
a(g2
I87
I990
tp1753
a(g2
I87
I991
tp1754
a(g2
I87
I992
tp1755
a(g2
I87
I993
tp1756
a(g2
I87
I994
tp1757
a(g2
I87
I995
tp1758
a(g2
I87
I996
tp1759
a(g2
I87
I997
tp1760
a(g2
I87
I998
tp1761
a(g2
I87
I999
tp1762
a(g2
I87
I1000
tp1763
a(g2
I87
I1001
tp1764
a(g2
I87
I1002
tp1765
a(g2
I88
I1003
tp1766
a(g2
I88
I1004
tp1767
a(g2
I88
I1005
tp1768
a(g2
I88
I1006
tp1769
a(g2
I88
I1007
tp1770
a(g2
I88
I1008
tp1771
a(g2
I88
I992
tp1772
a(g2
I88
I993
tp1773
a(g2
I88
I994
tp1774
a(g2
I88
I995
tp1775
a(g2
I88
I996
tp1776
a(g2
I88
I997
tp1777
a(g2
I88
I998
tp1778
a(g2
I88
I999
tp1779
a(g2
I88
I1000
tp1780
a(g2
I88
I1001
tp1781
a(g2
I88
I1002
tp1782
a(g2
I88
I1003
tp1783
a(g2
I88
I1004
tp1784
a(g2
I89
I1005
tp1785
a(g2
I89
I1006
tp1786
a(g2
I89
I1007
tp1787
a(g2
I89
I1008
tp1788
a(g2
I89
I1009
tp1789
a(g2
I89
I1010
tp1790
a(g2
I89
I998
tp1791
a(g2
I89
I999
tp1792
a(g2
I89
I1000
tp1793
a(g2
I89
I1001
tp1794
a(g2
I89
I1002
tp1795
a(g2
I89
I1003
tp1796
a(g2
I89
I1004
tp1797
a(g2
I89
I1005
tp1798
a(g2
I89
I1006
tp1799
a(g2
I89
I1007
tp1800
a(g2
I89
I1008
tp1801
a(g2
I89
I1009
tp1802
a(g2
I89
I1010
tp1803
a(g2
I89
I1011
tp1804
a(g2
I89
I1012
tp1805
a(g2
I90
I1013
tp1806
a(g2
I90
I1014
tp1807
a(g2
I90
I1015
tp1808
a(g2
I90
I1016
tp1809
a(g2
I90
I1017
tp1810
a(g2
I90
I1018
tp1811
a(g2
I90
I1008
tp1812
a(g2
I90
I1009
tp1813
a(g2
I90
I1010
tp1814
a(g2
I90
I1011
tp1815
a(g2
I90
I1012
tp1816
a(g2
I90
I1013
tp1817
a(g2
I90
I1014
tp1818
a(g2
I90
I1015
tp1819
a(g2
I91
I1016
tp1820
a(g2
I91
I1017
tp1821
a(g2
I91
I1018
tp1822
a(g2
I91
I1019
tp1823
a(g2
I91
I1020
tp1824
a(g2
I91
I1021
tp1825
a(g2
I91
I1002
tp1826
a(g2
I91
I1003
tp1827
a(g2
I91
I1004
tp1828
a(g2
I91
I1005
tp1829
a(g2
I91
I1006
tp1830
a(g2
I91
I1007
tp1831
a(g2
I91
I1008
tp1832
a(g2
I91
I1009
tp1833
a(g2
I91
I1010
tp1834
a(g2
I91
I1011
tp1835
a(g2
I91
I1012
tp1836
a(g2
I92
I1013
tp1837
a(g2
I92
I1014
tp1838
a(g2
I92
I1015
tp1839
a(g2
I92
I1016
tp1840
a(g2
I92
I1017
tp1841
a(g2
I92
I1018
tp1842
a(g2
I92
I996
tp1843
a(g2
I92
I997
tp1844
a(g2
I92
I998
tp1845
a(g2
I92
I999
tp1846
a(g2
I92
I1000
tp1847
a(g2
I92
I1001
tp1848
a(g2
I92
I1002
tp1849
a(g2
I92
I1003
tp1850
a(g2
I92
I1004
tp1851
a(g2
I92
I1005
tp1852
a(g2
I92
I1006
tp1853
a(g2
I92
I1007
tp1854
a(g2
I92
I1008
tp1855
a(g2
I92
I1009
tp1856
a(g2
I93
I1010
tp1857
a(g2
I93
I1011
tp1858
a(g2
I93
I1012
tp1859
a(g2
I93
I1013
tp1860
a(g2
I93
I1014
tp1861
a(g2
I93
I1015
tp1862
a(g2
I93
I1001
tp1863
a(g2
I93
I1002
tp1864
a(g2
I93
I1003
tp1865
a(g2
I93
I1004
tp1866
a(g2
I93
I1005
tp1867
a(g2
I93
I1006
tp1868
a(g2
I93
I1007
tp1869
a(g2
I93
I1008
tp1870
a(g2
I94
I1009
tp1871
a(g2
I94
I1010
tp1872
a(g2
I94
I1011
tp1873
a(g2
I94
I1012
tp1874
a(g2
I94
I1013
tp1875
a(g2
I94
I1014
tp1876
a(g2
I94
I1003
tp1877
a(g2
I94
I1004
tp1878
a(g2
I94
I1005
tp1879
a(g2
I94
I1006
tp1880
a(g2
I94
I1007
tp1881
a(g2
I94
I1008
tp1882
a(g2
I94
I1009
tp1883
a(g2
I94
I1010
tp1884
a(g2
I94
I1011
tp1885
a(g2
I94
I1012
tp1886
a(g2
I94
I1013
tp1887
a(g2
I94
I1014
tp1888
a(g2
I94
I1015
tp1889
a(g2
I94
I1016
tp1890
a(g2
I94
I1017
tp1891
a(g2
I94
I1018
tp1892
a(g2
I94
I1019
tp1893
a(g2
I95
I1020
tp1894
a(g2
I95
I1021
tp1895
a(g2
I95
I1022
tp1896
a(g2
I95
I1023
tp1897
a(g2
I95
I1024
tp1898
a(g2
I95
I1025
tp1899
a(g2
I95
I1011
tp1900
a(g2
I95
I1012
tp1901
a(g2
I95
I1013
tp1902
a(g2
I95
I1014
tp1903
a(g2
I95
I1015
tp1904
a(g2
I95
I1016
tp1905
a(g2
I95
I1017
tp1906
a(g2
I95
I1018
tp1907
a(g2
I95
I1019
tp1908
a(g2
I95
I1020
tp1909
a(g2
I95
I1021
tp1910
a(g2
I95
I1022
tp1911
a(g2
I95
I1023
tp1912
a(g2
I95
I1024
tp1913
a(g2
I95
I1025
tp1914
a(g2
I96
I1026
tp1915
a(g2
I96
I1027
tp1916
a(g2
I96
I1028
tp1917
a(g2
I96
I1029
tp1918
a(g2
I96
I1030
tp1919
a(g2
I96
I1031
tp1920
a(g2
I96
I1009
tp1921
a(g2
I96
I1010
tp1922
a(g2
I96
I1011
tp1923
a(g2
I96
I1012
tp1924
a(g2
I96
I1013
tp1925
a(g2
I96
I1014
tp1926
a(g2
I96
I1015
tp1927
a(g2
I96
I1016
tp1928
a(g2
I96
I1017
tp1929
a(g2
I96
I1018
tp1930
a(g2
I96
I1019
tp1931
a(g2
I96
I1020
tp1932
a(g2
I96
I1021
tp1933
a(g2
I96
I1022
tp1934
a(g2
I96
I1023
tp1935
a(g2
I96
I1024
tp1936
a(g2
I96
I1025
tp1937
a(g2
I97
I1026
tp1938
a(g2
I97
I1027
tp1939
a(g2
I97
I1028
tp1940
a(g2
I97
I1029
tp1941
a(g2
I97
I1030
tp1942
a(g2
I97
I1031
tp1943
a(g2
I97
I1016
tp1944
a(g2
I97
I1017
tp1945
a(g2
I97
I1018
tp1946
a(g2
I97
I1019
tp1947
a(g2
I97
I1020
tp1948
a(g2
I97
I1021
tp1949
a(g2
I97
I1022
tp1950
a(g2
I97
I1023
tp1951
a(g2
I97
I1024
tp1952
a(g2
I97
I1025
tp1953
a(g2
I97
I1026
tp1954
a(g2
I97
I1027
tp1955
a(g2
I97
I1028
tp1956
a(g2
I98
I1029
tp1957
a(g2
I98
I1030
tp1958
a(g2
I98
I1031
tp1959
a(g2
I98
I1032
tp1960
a(g2
I98
I1033
tp1961
a(g2
I98
I1034
tp1962
a(g2
I98
I1019
tp1963
a(g2
I98
I1020
tp1964
a(g2
I98
I1021
tp1965
a(g2
I98
I1022
tp1966
a(g2
I98
I1023
tp1967
a(g2
I98
I1024
tp1968
a(g2
I98
I1025
tp1969
a(g2
I98
I1026
tp1970
a(g2
I98
I1027
tp1971
a(g2
I98
I1028
tp1972
a(g2
I98
I1029
tp1973
a(g2
I98
I1030
tp1974
a(g2
I98
I1031
tp1975
a(g2
I98
I1032
tp1976
a(g2
I98
I1033
tp1977
a(g2
I98
I1034
tp1978
a(g2
I98
I1035
tp1979
a(g2
I98
I1036
tp1980
a(g2
I99
I1037
tp1981
a(g2
I99
I1038
tp1982
a(g2
I99
I1039
tp1983
a(g2
I99
I1040
tp1984
a(g2
I99
I1041
tp1985
a(g2
I99
I1042
tp1986
a(g2
I99
I1028
tp1987
a(g2
I99
I1029
tp1988
a(g2
I99
I1030
tp1989
a(g2
I99
I1031
tp1990
a(g2
I99
I1032
tp1991
a(g2
I99
I1033
tp1992
a(g2
I99
I1034
tp1993
a(g2
I99
I1035
tp1994
a(g2
I99
I1036
tp1995
a(g2
I99
I1037
tp1996
a(g2
I99
I1038
tp1997
a(g2
I99
I1039
tp1998
a(g2
I99
I1040
tp1999
a(g2
I99
I1041
tp2000
a(g2
I99
I1042
tp2001
a(g2
I99
I1043
tp2002
a(g2
I99
I1044
tp2003
a(g2
I99
I1045
tp2004
a(g2
I99
I1046
tp2005
a(g2
I99
I1047
tp2006
a(g2
I99
I1048
tp2007
a(g2
I100
I1049
tp2008
a(g2
I100
I1050
tp2009
a(g2
I100
I1051
tp2010
a(g2
I100
I1052
tp2011
a(g2
I100
I1053
tp2012
a(g2
I100
I1054
tp2013
a(g2
I100
I1038
tp2014
a(g2
I100
I1039
tp2015
a(g2
I100
I1040
tp2016
a(g2
I100
I1041
tp2017
a(g2
I100
I1042
tp2018
a(g2
I100
I1043
tp2019
a(g2
I100
I1044
tp2020
a(g2
I100
I1045
tp2021
a(g2
I100
I1046
tp2022
a(g2
I100
I1047
tp2023
a(g2
I100
I1048
tp2024
a(g2
I101
I1049
tp2025
a(g2
I101
I1050
tp2026
a(g2
I101
I1051
tp2027
a(g2
I101
I1052
tp2028
a(g2
I101
I1053
tp2029
a(g2
I101
I1054
tp2030
a(g2
I101
I1038
tp2031
a(g2
I101
I1039
tp2032
a(g2
I101
I1040
tp2033
a(g2
I101
I1041
tp2034
a(g2
I101
I1042
tp2035
a(g2
I101
I1043
tp2036
a(g2
I101
I1044
tp2037
a(g2
I101
I1045
tp2038
a(g2
I101
I1046
tp2039
a(g2
I101
I1047
tp2040
a(g2
I101
I1048
tp2041
a(g2
I101
I1049
tp2042
a(g2
I101
I1050
tp2043
a(g2
I101
I1051
tp2044
a(g2
I101
I1052
tp2045
a(g2
I101
I1053
tp2046
a(g2
I101
I1054
tp2047
a(g2
I102
I1055
tp2048
a(g2
I102
I1056
tp2049
a(g2
I102
I1057
tp2050
a(g2
I102
I1058
tp2051
a(g2
I102
I1059
tp2052
a(g2
I102
I1060
tp2053
a(g2
I102
I1040
tp2054
a(g2
I102
I1041
tp2055
a(g2
I102
I1042
tp2056
a(g2
I102
I1043
tp2057
a(g2
I102
I1044
tp2058
a(g2
I102
I1045
tp2059
a(g2
I102
I1046
tp2060
a(g2
I102
I1047
tp2061
a(g2
I102
I1048
tp2062
a(g2
I102
I1049
tp2063
a(g2
I102
I1050
tp2064
a(g2
I102
I1051
tp2065
a(g2
I102
I1052
tp2066
a(g2
I102
I1053
tp2067
a(g2
I102
I1054
tp2068
a(g2
I102
I1055
tp2069
a(g2
I102
I1056
tp2070
a(g2
I103
I1057
tp2071
a(g2
I103
I1058
tp2072
a(g2
I103
I1059
tp2073
a(g2
I103
I1060
tp2074
a(g2
I103
I1061
tp2075
a(g2
I103
I1062
tp2076
a(g2
I103
I1044
tp2077
a(g2
I103
I1045
tp2078
a(g2
I103
I1046
tp2079
a(g2
I103
I1047
tp2080
a(g2
I103
I1048
tp2081
a(g2
I103
I1049
tp2082
a(g2
I103
I1050
tp2083
a(g2
I103
I1051
tp2084
a(g2
I103
I1052
tp2085
a(g2
I103
I1053
tp2086
a(g2
I103
I1054
tp2087
a(g2
I103
I1055
tp2088
a(g2
I103
I1056
tp2089
a(g2
I103
I1057
tp2090
a(g2
I103
I1058
tp2091
a(g2
I103
I1059
tp2092
a(g2
I103
I1060
tp2093
aa(lp2094
(g2
I0
I1
tp2095
a(g2
I0
I2
tp2096
a(g2
I0
I3
tp2097
a(g2
I0
I4
tp2098
a(g2
I0
I5
tp2099
a(g2
I0
I6
tp2100
a(g2
I0
I7
tp2101
a(g2
I0
I8
tp2102
a(g2
I0
I9
tp2103
a(g2
I0
I10
tp2104
a(g2
I0
I11
tp2105
a(g2
I0
I12
tp2106
a(g2
I0
I13
tp2107
a(g2
I0
I14
tp2108
a(g2
I0
I15
tp2109
a(g2
I0
I16
tp2110
a(g2
I0
I17
tp2111
a(g2
I0
I18
tp2112
a(g2
I0
I19
tp2113
a(g2
I0
I20
tp2114
a(g2
I0
I21
tp2115
a(g2
I0
I22
tp2116
a(g2
I1
I23
tp2117
a(g2
I1
I24
tp2118
a(g2
I1
I25
tp2119
a(g2
I1
I26
tp2120
a(g2
I1
I27
tp2121
a(g2
I1
I28
tp2122
a(g2
I1
I29
tp2123
a(g2
I1
I30
tp2124
a(g2
I1
I31
tp2125
a(g2
I1
I32
tp2126
a(g2
I1
I33
tp2127
a(g2
I1
I34
tp2128
a(g2
I1
I35
tp2129
a(g2
I1
I36
tp2130
a(g2
I1
I37
tp2131
a(g2
I1
I38
tp2132
a(g2
I1
I39
tp2133
a(g2
I1
I40
tp2134
a(g2
I1
I41
tp2135
a(g2
I2
I42
tp2136
a(g2
I2
I43
tp2137
a(g2
I2
I44
tp2138
a(g2
I2
I45
tp2139
a(g2
I2
I46
tp2140
a(g2
I2
I47
tp2141
a(g2
I2
I48
tp2142
a(g2
I2
I49
tp2143
a(g2
I2
I50
tp2144
a(g2
I2
I51
tp2145
a(g2
I2
I52
tp2146
a(g2
I2
I53
tp2147
a(g2
I2
I54
tp2148
a(g2
I2
I55
tp2149
a(g2
I2
I56
tp2150
a(g2
I3
I57
tp2151
a(g2
I3
I58
tp2152
a(g2
I3
I59
tp2153
a(g2
I3
I60
tp2154
a(g2
I3
I61
tp2155
a(g2
I3
I62
tp2156
a(g2
I3
I63
tp2157
a(g2
I3
I64
tp2158
a(g2
I3
I65
tp2159
a(g2
I3
I66
tp2160
a(g2
I3
I67
tp2161
a(g2
I3
I68
tp2162
a(g2
I3
I69
tp2163
a(g2
I3
I70
tp2164
a(g2
I3
I71
tp2165
a(g2
I3
I72
tp2166
a(g2
I3
I73
tp2167
a(g2
I3
I74
tp2168
a(g2
I3
I75
tp2169
a(g2
I3
I76
tp2170
a(g2
I3
I77
tp2171
a(g2
I3
I78
tp2172
a(g2
I3
I79
tp2173
a(g2
I3
I80
tp2174
a(g2
I3
I81
tp2175
a(g2
I4
I82
tp2176
a(g2
I4
I83
tp2177
a(g2
I4
I84
tp2178
a(g2
I4
I85
tp2179
a(g2
I4
I86
tp2180
a(g2
I4
I87
tp2181
a(g2
I4
I88
tp2182
a(g2
I4
I89
tp2183
a(g2
I4
I90
tp2184
a(g2
I4
I91
tp2185
a(g2
I4
I92
tp2186
a(g2
I4
I93
tp2187
a(g2
I4
I94
tp2188
a(g2
I4
I95
tp2189
a(g2
I4
I96
tp2190
a(g2
I4
I97
tp2191
a(g2
I4
I98
tp2192
a(g2
I4
I99
tp2193
a(g2
I4
I100
tp2194
a(g2
I4
I101
tp2195
a(g2
I4
I102
tp2196
a(g2
I5
I103
tp2197
a(g2
I5
I104
tp2198
a(g2
I5
I105
tp2199
a(g2
I5
I106
tp2200
a(g2
I5
I107
tp2201
a(g2
I5
I108
tp2202
a(g2
I5
I109
tp2203
a(g2
I5
I110
tp2204
a(g2
I5
I111
tp2205
a(g2
I5
I112
tp2206
a(g2
I5
I113
tp2207
a(g2
I5
I114
tp2208
a(g2
I5
I115
tp2209
a(g2
I5
I116
tp2210
a(g2
I5
I117
tp2211
a(g2
I5
I118
tp2212
a(g2
I5
I119
tp2213
a(g2
I5
I120
tp2214
a(g2
I6
I121
tp2215
a(g2
I6
I122
tp2216
a(g2
I6
I123
tp2217
a(g2
I6
I124
tp2218
a(g2
I6
I125
tp2219
a(g2
I6
I126
tp2220
a(g2
I6
I127
tp2221
a(g2
I6
I128
tp2222
a(g2
I6
I129
tp2223
a(g2
I6
I130
tp2224
a(g2
I6
I131
tp2225
a(g2
I6
I132
tp2226
a(g2
I6
I133
tp2227
a(g2
I6
I134
tp2228
a(g2
I6
I135
tp2229
a(g2
I6
I136
tp2230
a(g2
I6
I137
tp2231
a(g2
I6
I138
tp2232
a(g2
I6
I139
tp2233
a(g2
I6
I140
tp2234
a(g2
I7
I141
tp2235
a(g2
I7
I142
tp2236
a(g2
I7
I143
tp2237
a(g2
I7
I144
tp2238
a(g2
I7
I145
tp2239
a(g2
I7
I146
tp2240
a(g2
I7
I147
tp2241
a(g2
I7
I148
tp2242
a(g2
I7
I149
tp2243
a(g2
I7
I150
tp2244
a(g2
I7
I151
tp2245
a(g2
I7
I152
tp2246
a(g2
I7
I153
tp2247
a(g2
I7
I154
tp2248
a(g2
I7
I155
tp2249
a(g2
I7
I156
tp2250
a(g2
I7
I157
tp2251
a(g2
I8
I158
tp2252
a(g2
I8
I159
tp2253
a(g2
I8
I160
tp2254
a(g2
I8
I161
tp2255
a(g2
I8
I162
tp2256
a(g2
I8
I163
tp2257
a(g2
I8
I164
tp2258
a(g2
I8
I165
tp2259
a(g2
I8
I166
tp2260
a(g2
I8
I167
tp2261
a(g2
I8
I168
tp2262
a(g2
I8
I169
tp2263
a(g2
I8
I170
tp2264
a(g2
I8
I171
tp2265
a(g2
I9
I172
tp2266
a(g2
I9
I173
tp2267
a(g2
I9
I174
tp2268
a(g2
I9
I175
tp2269
a(g2
I9
I176
tp2270
a(g2
I9
I177
tp2271
a(g2
I9
I178
tp2272
a(g2
I9
I179
tp2273
a(g2
I9
I180
tp2274
a(g2
I9
I181
tp2275
a(g2
I9
I182
tp2276
a(g2
I9
I183
tp2277
a(g2
I9
I184
tp2278
a(g2
I9
I185
tp2279
a(g2
I9
I186
tp2280
a(g2
I9
I187
tp2281
a(g2
I9
I188
tp2282
a(g2
I9
I189
tp2283
a(g2
I10
I190
tp2284
a(g2
I10
I191
tp2285
a(g2
I10
I192
tp2286
a(g2
I10
I193
tp2287
a(g2
I10
I194
tp2288
a(g2
I10
I195
tp2289
a(g2
I10
I196
tp2290
a(g2
I10
I197
tp2291
a(g2
I10
I198
tp2292
a(g2
I10
I199
tp2293
a(g2
I10
I200
tp2294
a(g2
I10
I201
tp2295
a(g2
I10
I202
tp2296
a(g2
I10
I203
tp2297
a(g2
I10
I204
tp2298
a(g2
I10
I205
tp2299
a(g2
I10
I206
tp2300
a(g2
I10
I207
tp2301
a(g2
I10
I208
tp2302
a(g2
I11
I209
tp2303
a(g2
I11
I210
tp2304
a(g2
I11
I211
tp2305
a(g2
I11
I212
tp2306
a(g2
I11
I213
tp2307
a(g2
I11
I214
tp2308
a(g2
I11
I215
tp2309
a(g2
I11
I216
tp2310
a(g2
I11
I217
tp2311
a(g2
I11
I218
tp2312
a(g2
I11
I219
tp2313
a(g2
I11
I220
tp2314
a(g2
I11
I221
tp2315
a(g2
I11
I222
tp2316
a(g2
I11
I223
tp2317
a(g2
I11
I224
tp2318
a(g2
I11
I225
tp2319
a(g2
I11
I226
tp2320
a(g2
I12
I227
tp2321
a(g2
I12
I228
tp2322
a(g2
I12
I229
tp2323
a(g2
I12
I230
tp2324
a(g2
I12
I231
tp2325
a(g2
I12
I232
tp2326
a(g2
I12
I233
tp2327
a(g2
I12
I234
tp2328
a(g2
I12
I235
tp2329
a(g2
I12
I236
tp2330
a(g2
I12
I237
tp2331
a(g2
I12
I238
tp2332
a(g2
I12
I239
tp2333
a(g2
I12
I240
tp2334
a(g2
I12
I241
tp2335
a(g2
I12
I242
tp2336
a(g2
I12
I243
tp2337
a(g2
I12
I244
tp2338
a(g2
I12
I245
tp2339
a(g2
I12
I246
tp2340
a(g2
I13
I247
tp2341
a(g2
I13
I248
tp2342
a(g2
I13
I249
tp2343
a(g2
I13
I250
tp2344
a(g2
I13
I251
tp2345
a(g2
I13
I252
tp2346
a(g2
I13
I253
tp2347
a(g2
I13
I254
tp2348
a(g2
I13
I255
tp2349
a(g2
I13
I256
tp2350
a(g2
I13
I257
tp2351
a(g2
I13
I258
tp2352
a(g2
I13
I259
tp2353
a(g2
I13
I260
tp2354
a(g2
I13
I261
tp2355
a(g2
I13
I262
tp2356
a(g2
I13
I263
tp2357
a(g2
I13
I264
tp2358
a(g2
I13
I265
tp2359
a(g2
I13
I266
tp2360
a(g2
I13
I267
tp2361
a(g2
I13
I268
tp2362
a(g2
I14
I269
tp2363
a(g2
I14
I270
tp2364
a(g2
I14
I271
tp2365
a(g2
I14
I272
tp2366
a(g2
I14
I273
tp2367
a(g2
I14
I274
tp2368
a(g2
I14
I274
tp2369
a(g2
I14
I275
tp2370
a(g2
I14
I276
tp2371
a(g2
I14
I277
tp2372
a(g2
I14
I278
tp2373
a(g2
I14
I279
tp2374
a(g2
I14
I280
tp2375
a(g2
I14
I281
tp2376
a(g2
I14
I282
tp2377
a(g2
I14
I283
tp2378
a(g2
I14
I284
tp2379
a(g2
I14
I285
tp2380
a(g2
I14
I286
tp2381
a(g2
I15
I287
tp2382
a(g2
I15
I288
tp2383
a(g2
I15
I289
tp2384
a(g2
I15
I290
tp2385
a(g2
I15
I291
tp2386
a(g2
I15
I292
tp2387
a(g2
I15
I292
tp2388
a(g2
I15
I293
tp2389
a(g2
I15
I294
tp2390
a(g2
I15
I295
tp2391
a(g2
I15
I296
tp2392
a(g2
I15
I297
tp2393
a(g2
I15
I298
tp2394
a(g2
I15
I299
tp2395
a(g2
I15
I300
tp2396
a(g2
I15
I301
tp2397
a(g2
I15
I302
tp2398
a(g2
I15
I303
tp2399
a(g2
I15
I304
tp2400
a(g2
I15
I305
tp2401
a(g2
I15
I306
tp2402
a(g2
I15
I307
tp2403
a(g2
I15
I308
tp2404
a(g2
I15
I309
tp2405
a(g2
I15
I310
tp2406
a(g2
I15
I311
tp2407
a(g2
I15
I312
tp2408
a(g2
I16
I313
tp2409
a(g2
I16
I314
tp2410
a(g2
I16
I315
tp2411
a(g2
I16
I316
tp2412
a(g2
I16
I317
tp2413
a(g2
I16
I318
tp2414
a(g2
I16
I314
tp2415
a(g2
I16
I315
tp2416
a(g2
I16
I316
tp2417
a(g2
I16
I317
tp2418
a(g2
I16
I318
tp2419
a(g2
I16
I319
tp2420
a(g2
I16
I320
tp2421
a(g2
I16
I321
tp2422
a(g2
I16
I322
tp2423
a(g2
I16
I323
tp2424
a(g2
I16
I324
tp2425
a(g2
I16
I325
tp2426
a(g2
I16
I326
tp2427
a(g2
I17
I327
tp2428
a(g2
I17
I328
tp2429
a(g2
I17
I329
tp2430
a(g2
I17
I330
tp2431
a(g2
I17
I331
tp2432
a(g2
I17
I332
tp2433
a(g2
I17
I332
tp2434
a(g2
I17
I333
tp2435
a(g2
I17
I334
tp2436
a(g2
I17
I335
tp2437
a(g2
I17
I336
tp2438
a(g2
I17
I337
tp2439
a(g2
I17
I338
tp2440
a(g2
I17
I339
tp2441
a(g2
I17
I340
tp2442
a(g2
I17
I341
tp2443
a(g2
I17
I342
tp2444
a(g2
I17
I343
tp2445
a(g2
I17
I344
tp2446
a(g2
I17
I345
tp2447
a(g2
I18
I346
tp2448
a(g2
I18
I347
tp2449
a(g2
I18
I348
tp2450
a(g2
I18
I349
tp2451
a(g2
I18
I350
tp2452
a(g2
I18
I351
tp2453
a(g2
I18
I350
tp2454
a(g2
I18
I351
tp2455
a(g2
I18
I352
tp2456
a(g2
I18
I353
tp2457
a(g2
I18
I354
tp2458
a(g2
I18
I355
tp2459
a(g2
I18
I356
tp2460
a(g2
I18
I357
tp2461
a(g2
I18
I358
tp2462
a(g2
I18
I359
tp2463
a(g2
I18
I360
tp2464
a(g2
I18
I361
tp2465
a(g2
I18
I362
tp2466
a(g2
I18
I363
tp2467
a(g2
I18
I364
tp2468
a(g2
I18
I365
tp2469
a(g2
I18
I366
tp2470
a(g2
I18
I367
tp2471
a(g2
I19
I368
tp2472
a(g2
I19
I369
tp2473
a(g2
I19
I370
tp2474
a(g2
I19
I371
tp2475
a(g2
I19
I372
tp2476
a(g2
I19
I373
tp2477
a(g2
I19
I370
tp2478
a(g2
I19
I371
tp2479
a(g2
I19
I372
tp2480
a(g2
I19
I373
tp2481
a(g2
I19
I374
tp2482
a(g2
I19
I375
tp2483
a(g2
I19
I376
tp2484
a(g2
I19
I377
tp2485
a(g2
I19
I378
tp2486
a(g2
I19
I379
tp2487
a(g2
I19
I380
tp2488
a(g2
I19
I381
tp2489
a(g2
I19
I382
tp2490
a(g2
I20
I383
tp2491
a(g2
I20
I384
tp2492
a(g2
I20
I385
tp2493
a(g2
I20
I386
tp2494
a(g2
I20
I387
tp2495
a(g2
I20
I388
tp2496
a(g2
I20
I386
tp2497
a(g2
I20
I387
tp2498
a(g2
I20
I388
tp2499
a(g2
I20
I389
tp2500
a(g2
I20
I390
tp2501
a(g2
I20
I391
tp2502
a(g2
I20
I392
tp2503
a(g2
I20
I393
tp2504
a(g2
I20
I394
tp2505
a(g2
I20
I395
tp2506
a(g2
I20
I396
tp2507
a(g2
I20
I397
tp2508
a(g2
I20
I398
tp2509
a(g2
I20
I399
tp2510
a(g2
I20
I400
tp2511
a(g2
I20
I401
tp2512
a(g2
I20
I402
tp2513
a(g2
I20
I403
tp2514
a(g2
I20
I404
tp2515
a(g2
I21
I405
tp2516
a(g2
I21
I406
tp2517
a(g2
I21
I407
tp2518
a(g2
I21
I408
tp2519
a(g2
I21
I409
tp2520
a(g2
I21
I410
tp2521
a(g2
I21
I410
tp2522
a(g2
I21
I411
tp2523
a(g2
I21
I412
tp2524
a(g2
I21
I413
tp2525
a(g2
I21
I414
tp2526
a(g2
I21
I415
tp2527
a(g2
I21
I416
tp2528
a(g2
I21
I417
tp2529
a(g2
I21
I418
tp2530
a(g2
I21
I419
tp2531
a(g2
I21
I420
tp2532
a(g2
I21
I421
tp2533
a(g2
I21
I422
tp2534
a(g2
I22
I423
tp2535
a(g2
I22
I424
tp2536
a(g2
I22
I425
tp2537
a(g2
I22
I426
tp2538
a(g2
I22
I427
tp2539
a(g2
I22
I428
tp2540
a(g2
I22
I426
tp2541
a(g2
I22
I427
tp2542
a(g2
I22
I428
tp2543
a(g2
I22
I429
tp2544
a(g2
I22
I430
tp2545
a(g2
I22
I431
tp2546
a(g2
I22
I432
tp2547
a(g2
I22
I433
tp2548
a(g2
I22
I434
tp2549
a(g2
I22
I435
tp2550
a(g2
I22
I436
tp2551
a(g2
I22
I437
tp2552
a(g2
I22
I438
tp2553
a(g2
I22
I439
tp2554
a(g2
I22
I440
tp2555
a(g2
I23
I441
tp2556
a(g2
I23
I442
tp2557
a(g2
I23
I443
tp2558
a(g2
I23
I444
tp2559
a(g2
I23
I445
tp2560
a(g2
I23
I446
tp2561
a(g2
I23
I440
tp2562
a(g2
I23
I441
tp2563
a(g2
I23
I442
tp2564
a(g2
I23
I443
tp2565
a(g2
I23
I444
tp2566
a(g2
I23
I445
tp2567
a(g2
I23
I446
tp2568
a(g2
I23
I447
tp2569
a(g2
I23
I448
tp2570
a(g2
I23
I449
tp2571
a(g2
I23
I450
tp2572
a(g2
I23
I451
tp2573
a(g2
I23
I452
tp2574
a(g2
I23
I453
tp2575
a(g2
I24
I454
tp2576
a(g2
I24
I455
tp2577
a(g2
I24
I456
tp2578
a(g2
I24
I457
tp2579
a(g2
I24
I458
tp2580
a(g2
I24
I459
tp2581
a(g2
I24
I456
tp2582
a(g2
I24
I457
tp2583
a(g2
I24
I458
tp2584
a(g2
I24
I459
tp2585
a(g2
I24
I460
tp2586
a(g2
I24
I461
tp2587
a(g2
I24
I462
tp2588
a(g2
I24
I463
tp2589
a(g2
I24
I464
tp2590
a(g2
I24
I465
tp2591
a(g2
I25
I466
tp2592
a(g2
I25
I467
tp2593
a(g2
I25
I468
tp2594
a(g2
I25
I469
tp2595
a(g2
I25
I470
tp2596
a(g2
I25
I471
tp2597
a(g2
I25
I465
tp2598
a(g2
I25
I466
tp2599
a(g2
I25
I467
tp2600
a(g2
I25
I468
tp2601
a(g2
I25
I469
tp2602
a(g2
I25
I470
tp2603
a(g2
I25
I471
tp2604
a(g2
I25
I472
tp2605
a(g2
I25
I473
tp2606
a(g2
I25
I474
tp2607
a(g2
I25
I475
tp2608
a(g2
I25
I476
tp2609
a(g2
I25
I477
tp2610
a(g2
I25
I478
tp2611
a(g2
I25
I479
tp2612
a(g2
I25
I480
tp2613
a(g2
I25
I481
tp2614
a(g2
I25
I482
tp2615
a(g2
I25
I483
tp2616
a(g2
I25
I484
tp2617
a(g2
I25
I485
tp2618
a(g2
I25
I486
tp2619
a(g2
I25
I487
tp2620
a(g2
I26
I488
tp2621
a(g2
I26
I489
tp2622
a(g2
I26
I490
tp2623
a(g2
I26
I491
tp2624
a(g2
I26
I492
tp2625
a(g2
I26
I493
tp2626
a(g2
I26
I490
tp2627
a(g2
I26
I491
tp2628
a(g2
I26
I492
tp2629
a(g2
I26
I493
tp2630
a(g2
I26
I494
tp2631
a(g2
I26
I495
tp2632
a(g2
I26
I496
tp2633
a(g2
I26
I497
tp2634
a(g2
I26
I498
tp2635
a(g2
I26
I499
tp2636
a(g2
I26
I500
tp2637
a(g2
I27
I501
tp2638
a(g2
I27
I502
tp2639
a(g2
I27
I503
tp2640
a(g2
I27
I504
tp2641
a(g2
I27
I505
tp2642
a(g2
I27
I506
tp2643
a(g2
I27
I500
tp2644
a(g2
I27
I501
tp2645
a(g2
I27
I502
tp2646
a(g2
I27
I503
tp2647
a(g2
I27
I504
tp2648
a(g2
I27
I505
tp2649
a(g2
I27
I506
tp2650
a(g2
I27
I507
tp2651
a(g2
I27
I508
tp2652
a(g2
I27
I509
tp2653
a(g2
I27
I510
tp2654
a(g2
I28
I511
tp2655
a(g2
I28
I512
tp2656
a(g2
I28
I513
tp2657
a(g2
I28
I514
tp2658
a(g2
I28
I515
tp2659
a(g2
I28
I516
tp2660
a(g2
I28
I507
tp2661
a(g2
I28
I508
tp2662
a(g2
I28
I509
tp2663
a(g2
I28
I510
tp2664
a(g2
I28
I511
tp2665
a(g2
I28
I512
tp2666
a(g2
I28
I513
tp2667
a(g2
I28
I514
tp2668
a(g2
I28
I515
tp2669
a(g2
I28
I516
tp2670
a(g2
I28
I517
tp2671
a(g2
I28
I518
tp2672
a(g2
I28
I519
tp2673
a(g2
I28
I520
tp2674
a(g2
I28
I521
tp2675
a(g2
I29
I522
tp2676
a(g2
I29
I523
tp2677
a(g2
I29
I524
tp2678
a(g2
I29
I525
tp2679
a(g2
I29
I526
tp2680
a(g2
I29
I527
tp2681
a(g2
I29
I522
tp2682
a(g2
I29
I523
tp2683
a(g2
I29
I524
tp2684
a(g2
I29
I525
tp2685
a(g2
I29
I526
tp2686
a(g2
I29
I527
tp2687
a(g2
I29
I528
tp2688
a(g2
I29
I529
tp2689
a(g2
I29
I530
tp2690
a(g2
I29
I531
tp2691
a(g2
I29
I532
tp2692
a(g2
I29
I533
tp2693
a(g2
I29
I534
tp2694
a(g2
I29
I535
tp2695
a(g2
I29
I536
tp2696
a(g2
I29
I537
tp2697
a(g2
I29
I538
tp2698
a(g2
I29
I539
tp2699
a(g2
I29
I540
tp2700
a(g2
I29
I541
tp2701
a(g2
I30
I542
tp2702
a(g2
I30
I543
tp2703
a(g2
I30
I544
tp2704
a(g2
I30
I545
tp2705
a(g2
I30
I546
tp2706
a(g2
I30
I547
tp2707
a(g2
I30
I535
tp2708
a(g2
I30
I536
tp2709
a(g2
I30
I537
tp2710
a(g2
I30
I538
tp2711
a(g2
I30
I539
tp2712
a(g2
I30
I540
tp2713
a(g2
I30
I541
tp2714
a(g2
I30
I542
tp2715
a(g2
I30
I543
tp2716
a(g2
I30
I544
tp2717
a(g2
I30
I545
tp2718
a(g2
I30
I546
tp2719
a(g2
I30
I547
tp2720
a(g2
I30
I548
tp2721
a(g2
I30
I549
tp2722
a(g2
I30
I550
tp2723
a(g2
I30
I551
tp2724
a(g2
I31
I552
tp2725
a(g2
I31
I553
tp2726
a(g2
I31
I554
tp2727
a(g2
I31
I555
tp2728
a(g2
I31
I556
tp2729
a(g2
I31
I557
tp2730
a(g2
I31
I551
tp2731
a(g2
I31
I552
tp2732
a(g2
I31
I553
tp2733
a(g2
I31
I554
tp2734
a(g2
I31
I555
tp2735
a(g2
I31
I556
tp2736
a(g2
I31
I557
tp2737
a(g2
I31
I558
tp2738
a(g2
I31
I559
tp2739
a(g2
I32
I560
tp2740
a(g2
I32
I561
tp2741
a(g2
I32
I562
tp2742
a(g2
I32
I563
tp2743
a(g2
I32
I564
tp2744
a(g2
I32
I565
tp2745
a(g2
I32
I558
tp2746
a(g2
I32
I559
tp2747
a(g2
I32
I560
tp2748
a(g2
I32
I561
tp2749
a(g2
I32
I562
tp2750
a(g2
I32
I563
tp2751
a(g2
I32
I564
tp2752
a(g2
I32
I565
tp2753
a(g2
I32
I566
tp2754
a(g2
I32
I567
tp2755
a(g2
I32
I568
tp2756
a(g2
I33
I569
tp2757
a(g2
I33
I570
tp2758
a(g2
I33
I571
tp2759
a(g2
I33
I572
tp2760
a(g2
I33
I573
tp2761
a(g2
I33
I574
tp2762
a(g2
I33
I564
tp2763
a(g2
I33
I565
tp2764
a(g2
I33
I566
tp2765
a(g2
I33
I567
tp2766
a(g2
I33
I568
tp2767
a(g2
I33
I569
tp2768
a(g2
I33
I570
tp2769
a(g2
I33
I571
tp2770
a(g2
I33
I572
tp2771
a(g2
I33
I573
tp2772
a(g2
I33
I574
tp2773
a(g2
I33
I575
tp2774
a(g2
I33
I576
tp2775
a(g2
I33
I577
tp2776
a(g2
I33
I578
tp2777
a(g2
I34
I579
tp2778
a(g2
I34
I580
tp2779
a(g2
I34
I581
tp2780
a(g2
I34
I582
tp2781
a(g2
I34
I583
tp2782
a(g2
I34
I584
tp2783
a(g2
I34
I576
tp2784
a(g2
I34
I577
tp2785
a(g2
I34
I578
tp2786
a(g2
I34
I579
tp2787
a(g2
I34
I580
tp2788
a(g2
I34
I581
tp2789
a(g2
I34
I582
tp2790
a(g2
I34
I583
tp2791
a(g2
I34
I584
tp2792
a(g2
I34
I585
tp2793
a(g2
I34
I586
tp2794
a(g2
I34
I587
tp2795
a(g2
I34
I588
tp2796
a(g2
I34
I589
tp2797
a(g2
I34
I590
tp2798
a(g2
I34
I591
tp2799
a(g2
I34
I592
tp2800
a(g2
I35
I593
tp2801
a(g2
I35
I594
tp2802
a(g2
I35
I595
tp2803
a(g2
I35
I596
tp2804
a(g2
I35
I597
tp2805
a(g2
I35
I598
tp2806
a(g2
I35
I591
tp2807
a(g2
I35
I592
tp2808
a(g2
I35
I593
tp2809
a(g2
I35
I594
tp2810
a(g2
I35
I595
tp2811
a(g2
I35
I596
tp2812
a(g2
I35
I597
tp2813
a(g2
I35
I598
tp2814
a(g2
I35
I599
tp2815
a(g2
I35
I600
tp2816
a(g2
I35
I601
tp2817
a(g2
I35
I602
tp2818
a(g2
I35
I603
tp2819
a(g2
I36
I604
tp2820
a(g2
I36
I605
tp2821
a(g2
I36
I606
tp2822
a(g2
I36
I607
tp2823
a(g2
I36
I608
tp2824
a(g2
I36
I609
tp2825
a(g2
I36
I605
tp2826
a(g2
I36
I606
tp2827
a(g2
I36
I607
tp2828
a(g2
I36
I608
tp2829
a(g2
I36
I609
tp2830
a(g2
I36
I610
tp2831
a(g2
I36
I611
tp2832
a(g2
I36
I612
tp2833
a(g2
I36
I613
tp2834
a(g2
I36
I614
tp2835
a(g2
I36
I615
tp2836
a(g2
I36
I616
tp2837
a(g2
I36
I617
tp2838
a(g2
I36
I618
tp2839
a(g2
I36
I619
tp2840
a(g2
I37
I620
tp2841
a(g2
I37
I621
tp2842
a(g2
I37
I622
tp2843
a(g2
I37
I623
tp2844
a(g2
I37
I624
tp2845
a(g2
I37
I625
tp2846
a(g2
I37
I621
tp2847
a(g2
I37
I622
tp2848
a(g2
I37
I623
tp2849
a(g2
I37
I624
tp2850
a(g2
I37
I625
tp2851
a(g2
I37
I626
tp2852
a(g2
I37
I627
tp2853
a(g2
I37
I628
tp2854
a(g2
I37
I629
tp2855
a(g2
I37
I630
tp2856
a(g2
I37
I631
tp2857
a(g2
I37
I632
tp2858
a(g2
I38
I633
tp2859
a(g2
I38
I634
tp2860
a(g2
I38
I635
tp2861
a(g2
I38
I636
tp2862
a(g2
I38
I637
tp2863
a(g2
I38
I638
tp2864
a(g2
I38
I633
tp2865
a(g2
I38
I634
tp2866
a(g2
I38
I635
tp2867
a(g2
I38
I636
tp2868
a(g2
I38
I637
tp2869
a(g2
I38
I638
tp2870
a(g2
I38
I639
tp2871
a(g2
I38
I640
tp2872
a(g2
I38
I641
tp2873
a(g2
I38
I642
tp2874
a(g2
I38
I643
tp2875
a(g2
I38
I644
tp2876
a(g2
I38
I645
tp2877
a(g2
I38
I646
tp2878
a(g2
I38
I647
tp2879
a(g2
I38
I648
tp2880
a(g2
I38
I649
tp2881
a(g2
I38
I650
tp2882
a(g2
I38
I651
tp2883
a(g2
I38
I652
tp2884
a(g2
I38
I653
tp2885
a(g2
I38
I654
tp2886
a(g2
I39
I655
tp2887
a(g2
I39
I656
tp2888
a(g2
I39
I657
tp2889
a(g2
I39
I658
tp2890
a(g2
I39
I659
tp2891
a(g2
I39
I660
tp2892
a(g2
I39
I656
tp2893
a(g2
I39
I657
tp2894
a(g2
I39
I658
tp2895
a(g2
I39
I659
tp2896
a(g2
I39
I660
tp2897
a(g2
I39
I661
tp2898
a(g2
I39
I662
tp2899
a(g2
I39
I663
tp2900
a(g2
I39
I664
tp2901
a(g2
I39
I665
tp2902
a(g2
I40
I666
tp2903
a(g2
I40
I667
tp2904
a(g2
I40
I668
tp2905
a(g2
I40
I669
tp2906
a(g2
I40
I670
tp2907
a(g2
I40
I671
tp2908
a(g2
I40
I664
tp2909
a(g2
I40
I665
tp2910
a(g2
I40
I666
tp2911
a(g2
I40
I667
tp2912
a(g2
I40
I668
tp2913
a(g2
I40
I669
tp2914
a(g2
I40
I670
tp2915
a(g2
I40
I671
tp2916
a(g2
I40
I672
tp2917
a(g2
I40
I673
tp2918
a(g2
I40
I674
tp2919
a(g2
I40
I675
tp2920
a(g2
I40
I676
tp2921
a(g2
I40
I677
tp2922
a(g2
I40
I678
tp2923
a(g2
I41
I679
tp2924
a(g2
I41
I680
tp2925
a(g2
I41
I681
tp2926
a(g2
I41
I682
tp2927
a(g2
I41
I683
tp2928
a(g2
I41
I684
tp2929
a(g2
I41
I677
tp2930
a(g2
I41
I678
tp2931
a(g2
I41
I679
tp2932
a(g2
I41
I680
tp2933
a(g2
I41
I681
tp2934
a(g2
I41
I682
tp2935
a(g2
I41
I683
tp2936
a(g2
I41
I684
tp2937
a(g2
I41
I685
tp2938
a(g2
I41
I686
tp2939
a(g2
I41
I687
tp2940
a(g2
I41
I688
tp2941
a(g2
I41
I689
tp2942
a(g2
I41
I690
tp2943
a(g2
I41
I691
tp2944
a(g2
I41
I692
tp2945
a(g2
I41
I693
tp2946
a(g2
I41
I694
tp2947
a(g2
I41
I695
tp2948
a(g2
I41
I696
tp2949
a(g2
I42
I697
tp2950
a(g2
I42
I698
tp2951
a(g2
I42
I699
tp2952
a(g2
I42
I700
tp2953
a(g2
I42
I701
tp2954
a(g2
I42
I702
tp2955
a(g2
I42
I692
tp2956
a(g2
I42
I693
tp2957
a(g2
I42
I694
tp2958
a(g2
I42
I695
tp2959
a(g2
I42
I696
tp2960
a(g2
I42
I697
tp2961
a(g2
I42
I698
tp2962
a(g2
I42
I699
tp2963
a(g2
I42
I700
tp2964
a(g2
I42
I701
tp2965
a(g2
I42
I702
tp2966
a(g2
I42
I703
tp2967
a(g2
I42
I704
tp2968
a(g2
I42
I705
tp2969
a(g2
I42
I706
tp2970
a(g2
I42
I707
tp2971
a(g2
I43
I708
tp2972
a(g2
I43
I709
tp2973
a(g2
I43
I710
tp2974
a(g2
I43
I711
tp2975
a(g2
I43
I712
tp2976
a(g2
I43
I713
tp2977
a(g2
I43
I706
tp2978
a(g2
I43
I707
tp2979
a(g2
I43
I708
tp2980
a(g2
I43
I709
tp2981
a(g2
I43
I710
tp2982
a(g2
I43
I711
tp2983
a(g2
I43
I712
tp2984
a(g2
I43
I713
tp2985
a(g2
I43
I714
tp2986
a(g2
I43
I715
tp2987
a(g2
I43
I716
tp2988
a(g2
I43
I717
tp2989
a(g2
I43
I718
tp2990
a(g2
I44
I719
tp2991
a(g2
I44
I720
tp2992
a(g2
I44
I721
tp2993
a(g2
I44
I722
tp2994
a(g2
I44
I723
tp2995
a(g2
I44
I724
tp2996
a(g2
I44
I714
tp2997
a(g2
I44
I715
tp2998
a(g2
I44
I716
tp2999
a(g2
I44
I717
tp3000
a(g2
I44
I718
tp3001
a(g2
I44
I719
tp3002
a(g2
I44
I720
tp3003
a(g2
I44
I721
tp3004
a(g2
I44
I722
tp3005
a(g2
I44
I723
tp3006
a(g2
I44
I724
tp3007
a(g2
I44
I725
tp3008
a(g2
I44
I726
tp3009
a(g2
I44
I727
tp3010
a(g2
I44
I728
tp3011
a(g2
I44
I729
tp3012
a(g2
I44
I730
tp3013
a(g2
I44
I731
tp3014
a(g2
I44
I732
tp3015
a(g2
I44
I733
tp3016
a(g2
I45
I734
tp3017
a(g2
I45
I735
tp3018
a(g2
I45
I736
tp3019
a(g2
I45
I737
tp3020
a(g2
I45
I738
tp3021
a(g2
I45
I739
tp3022
a(g2
I45
I724
tp3023
a(g2
I45
I725
tp3024
a(g2
I45
I726
tp3025
a(g2
I45
I727
tp3026
a(g2
I45
I728
tp3027
a(g2
I45
I729
tp3028
a(g2
I45
I730
tp3029
a(g2
I45
I731
tp3030
a(g2
I45
I732
tp3031
a(g2
I45
I733
tp3032
a(g2
I45
I734
tp3033
a(g2
I45
I735
tp3034
a(g2
I45
I736
tp3035
a(g2
I45
I737
tp3036
a(g2
I45
I738
tp3037
a(g2
I45
I739
tp3038
a(g2
I45
I740
tp3039
a(g2
I45
I741
tp3040
a(g2
I46
I742
tp3041
a(g2
I46
I743
tp3042
a(g2
I46
I744
tp3043
a(g2
I46
I745
tp3044
a(g2
I46
I746
tp3045
a(g2
I46
I747
tp3046
a(g2
I46
I742
tp3047
a(g2
I46
I743
tp3048
a(g2
I46
I744
tp3049
a(g2
I46
I745
tp3050
a(g2
I46
I746
tp3051
a(g2
I46
I747
tp3052
a(g2
I46
I748
tp3053
a(g2
I46
I749
tp3054
a(g2
I46
I750
tp3055
a(g2
I46
I751
tp3056
a(g2
I46
I752
tp3057
a(g2
I46
I753
tp3058
a(g2
I46
I754
tp3059
a(g2
I46
I755
tp3060
a(g2
I46
I756
tp3061
a(g2
I46
I757
tp3062
a(g2
I46
I758
tp3063
a(g2
I47
I759
tp3064
a(g2
I47
I760
tp3065
a(g2
I47
I761
tp3066
a(g2
I47
I762
tp3067
a(g2
I47
I763
tp3068
a(g2
I47
I764
tp3069
a(g2
I47
I760
tp3070
a(g2
I47
I761
tp3071
a(g2
I47
I762
tp3072
a(g2
I47
I763
tp3073
a(g2
I47
I764
tp3074
a(g2
I47
I765
tp3075
a(g2
I47
I766
tp3076
a(g2
I47
I767
tp3077
a(g2
I47
I768
tp3078
a(g2
I47
I769
tp3079
a(g2
I47
I770
tp3080
a(g2
I47
I771
tp3081
a(g2
I47
I772
tp3082
a(g2
I47
I773
tp3083
a(g2
I47
I774
tp3084
a(g2
I47
I775
tp3085
a(g2
I48
I776
tp3086
a(g2
I48
I777
tp3087
a(g2
I48
I778
tp3088
a(g2
I48
I779
tp3089
a(g2
I48
I780
tp3090
a(g2
I48
I781
tp3091
a(g2
I48
I770
tp3092
a(g2
I48
I771
tp3093
a(g2
I48
I772
tp3094
a(g2
I48
I773
tp3095
a(g2
I48
I774
tp3096
a(g2
I48
I775
tp3097
a(g2
I48
I776
tp3098
a(g2
I48
I777
tp3099
a(g2
I48
I778
tp3100
a(g2
I48
I779
tp3101
a(g2
I48
I780
tp3102
a(g2
I48
I781
tp3103
a(g2
I48
I782
tp3104
a(g2
I48
I783
tp3105
a(g2
I48
I784
tp3106
a(g2
I48
I785
tp3107
a(g2
I48
I786
tp3108
a(g2
I49
I787
tp3109
a(g2
I49
I788
tp3110
a(g2
I49
I789
tp3111
a(g2
I49
I790
tp3112
a(g2
I49
I791
tp3113
a(g2
I49
I792
tp3114
a(g2
I49
I786
tp3115
a(g2
I49
I787
tp3116
a(g2
I49
I788
tp3117
a(g2
I49
I789
tp3118
a(g2
I49
I790
tp3119
a(g2
I49
I791
tp3120
a(g2
I49
I792
tp3121
a(g2
I49
I793
tp3122
a(g2
I49
I794
tp3123
a(g2
I49
I795
tp3124
a(g2
I49
I796
tp3125
a(g2
I49
I797
tp3126
a(g2
I49
I798
tp3127
a(g2
I49
I799
tp3128
a(g2
I49
I800
tp3129
a(g2
I49
I801
tp3130
a(g2
I49
I802
tp3131
a(g2
I50
I803
tp3132
a(g2
I50
I804
tp3133
a(g2
I50
I805
tp3134
a(g2
I50
I806
tp3135
a(g2
I50
I807
tp3136
a(g2
I50
I808
tp3137
a(g2
I50
I800
tp3138
a(g2
I50
I801
tp3139
a(g2
I50
I802
tp3140
a(g2
I50
I803
tp3141
a(g2
I50
I804
tp3142
a(g2
I50
I805
tp3143
a(g2
I50
I806
tp3144
a(g2
I50
I807
tp3145
a(g2
I50
I808
tp3146
a(g2
I50
I809
tp3147
a(g2
I50
I810
tp3148
a(g2
I50
I811
tp3149
a(g2
I50
I812
tp3150
a(g2
I50
I813
tp3151
a(g2
I50
I814
tp3152
a(g2
I51
I815
tp3153
a(g2
I51
I816
tp3154
a(g2
I51
I817
tp3155
a(g2
I51
I818
tp3156
a(g2
I51
I819
tp3157
a(g2
I51
I820
tp3158
a(g2
I51
I811
tp3159
a(g2
I51
I812
tp3160
a(g2
I51
I813
tp3161
a(g2
I51
I814
tp3162
a(g2
I51
I815
tp3163
a(g2
I51
I816
tp3164
a(g2
I51
I817
tp3165
a(g2
I51
I818
tp3166
a(g2
I51
I819
tp3167
a(g2
I51
I820
tp3168
a(g2
I51
I821
tp3169
a(g2
I51
I822
tp3170
a(g2
I51
I823
tp3171
a(g2
I51
I824
tp3172
a(g2
I51
I825
tp3173
a(g2
I51
I826
tp3174
a(g2
I51
I827
tp3175
a(g2
I52
I828
tp3176
a(g2
I52
I829
tp3177
a(g2
I52
I830
tp3178
a(g2
I52
I831
tp3179
a(g2
I52
I832
tp3180
a(g2
I52
I833
tp3181
a(g2
I52
I820
tp3182
a(g2
I52
I821
tp3183
a(g2
I52
I822
tp3184
a(g2
I52
I823
tp3185
a(g2
I52
I824
tp3186
a(g2
I52
I825
tp3187
a(g2
I52
I826
tp3188
a(g2
I52
I827
tp3189
a(g2
I52
I828
tp3190
a(g2
I52
I829
tp3191
a(g2
I52
I830
tp3192
a(g2
I53
I831
tp3193
a(g2
I53
I832
tp3194
a(g2
I53
I833
tp3195
a(g2
I53
I834
tp3196
a(g2
I53
I835
tp3197
a(g2
I53
I836
tp3198
a(g2
I53
I817
tp3199
a(g2
I53
I818
tp3200
a(g2
I53
I819
tp3201
a(g2
I53
I820
tp3202
a(g2
I53
I821
tp3203
a(g2
I53
I822
tp3204
a(g2
I53
I823
tp3205
a(g2
I53
I824
tp3206
a(g2
I53
I825
tp3207
a(g2
I53
I826
tp3208
a(g2
I53
I827
tp3209
a(g2
I53
I828
tp3210
a(g2
I53
I829
tp3211
a(g2
I54
I830
tp3212
a(g2
I54
I831
tp3213
a(g2
I54
I832
tp3214
a(g2
I54
I833
tp3215
a(g2
I54
I834
tp3216
a(g2
I54
I835
tp3217
a(g2
I54
I827
tp3218
a(g2
I54
I828
tp3219
a(g2
I54
I829
tp3220
a(g2
I54
I830
tp3221
a(g2
I54
I831
tp3222
a(g2
I54
I832
tp3223
a(g2
I54
I833
tp3224
a(g2
I54
I834
tp3225
a(g2
I54
I835
tp3226
a(g2
I54
I836
tp3227
a(g2
I54
I837
tp3228
a(g2
I54
I838
tp3229
a(g2
I54
I839
tp3230
a(g2
I54
I840
tp3231
a(g2
I54
I841
tp3232
a(g2
I54
I842
tp3233
a(g2
I54
I843
tp3234
a(g2
I55
I844
tp3235
a(g2
I55
I845
tp3236
a(g2
I55
I846
tp3237
a(g2
I55
I847
tp3238
a(g2
I55
I848
tp3239
a(g2
I55
I849
tp3240
a(g2
I55
I843
tp3241
a(g2
I55
I844
tp3242
a(g2
I55
I845
tp3243
a(g2
I55
I846
tp3244
a(g2
I55
I847
tp3245
a(g2
I55
I848
tp3246
a(g2
I55
I849
tp3247
a(g2
I55
I850
tp3248
a(g2
I55
I851
tp3249
a(g2
I55
I852
tp3250
a(g2
I55
I853
tp3251
a(g2
I55
I854
tp3252
a(g2
I55
I855
tp3253
a(g2
I55
I856
tp3254
a(g2
I55
I857
tp3255
a(g2
I55
I858
tp3256
a(g2
I56
I859
tp3257
a(g2
I56
I860
tp3258
a(g2
I56
I861
tp3259
a(g2
I56
I862
tp3260
a(g2
I56
I863
tp3261
a(g2
I56
I864
tp3262
a(g2
I56
I853
tp3263
a(g2
I56
I854
tp3264
a(g2
I56
I855
tp3265
a(g2
I56
I856
tp3266
a(g2
I56
I857
tp3267
a(g2
I56
I858
tp3268
a(g2
I56
I859
tp3269
a(g2
I56
I860
tp3270
a(g2
I56
I861
tp3271
a(g2
I56
I862
tp3272
a(g2
I56
I863
tp3273
a(g2
I56
I864
tp3274
a(g2
I56
I865
tp3275
a(g2
I56
I866
tp3276
a(g2
I56
I867
tp3277
a(g2
I57
I868
tp3278
a(g2
I57
I869
tp3279
a(g2
I57
I870
tp3280
a(g2
I57
I871
tp3281
a(g2
I57
I872
tp3282
a(g2
I57
I873
tp3283
a(g2
I57
I862
tp3284
a(g2
I57
I863
tp3285
a(g2
I57
I864
tp3286
a(g2
I57
I865
tp3287
a(g2
I57
I866
tp3288
a(g2
I57
I867
tp3289
a(g2
I57
I868
tp3290
a(g2
I57
I869
tp3291
a(g2
I57
I870
tp3292
a(g2
I57
I871
tp3293
a(g2
I57
I872
tp3294
a(g2
I58
I873
tp3295
a(g2
I58
I874
tp3296
a(g2
I58
I875
tp3297
a(g2
I58
I876
tp3298
a(g2
I58
I877
tp3299
a(g2
I58
I878
tp3300
a(g2
I58
I867
tp3301
a(g2
I58
I868
tp3302
a(g2
I58
I869
tp3303
a(g2
I58
I870
tp3304
a(g2
I58
I871
tp3305
a(g2
I58
I872
tp3306
a(g2
I58
I873
tp3307
a(g2
I58
I874
tp3308
a(g2
I58
I875
tp3309
a(g2
I58
I876
tp3310
a(g2
I58
I877
tp3311
a(g2
I58
I878
tp3312
a(g2
I58
I879
tp3313
a(g2
I58
I880
tp3314
a(g2
I58
I881
tp3315
a(g2
I58
I882
tp3316
a(g2
I59
I883
tp3317
a(g2
I59
I884
tp3318
a(g2
I59
I885
tp3319
a(g2
I59
I886
tp3320
a(g2
I59
I887
tp3321
a(g2
I59
I888
tp3322
a(g2
I59
I874
tp3323
a(g2
I59
I875
tp3324
a(g2
I59
I876
tp3325
a(g2
I59
I877
tp3326
a(g2
I59
I878
tp3327
a(g2
I59
I879
tp3328
a(g2
I59
I880
tp3329
a(g2
I59
I881
tp3330
a(g2
I59
I882
tp3331
a(g2
I59
I883
tp3332
a(g2
I59
I884
tp3333
a(g2
I59
I885
tp3334
a(g2
I60
I886
tp3335
a(g2
I60
I887
tp3336
a(g2
I60
I888
tp3337
a(g2
I60
I889
tp3338
a(g2
I60
I890
tp3339
a(g2
I60
I891
tp3340
a(g2
I60
I882
tp3341
a(g2
I60
I883
tp3342
a(g2
I60
I884
tp3343
a(g2
I60
I885
tp3344
a(g2
I60
I886
tp3345
a(g2
I60
I887
tp3346
a(g2
I60
I888
tp3347
a(g2
I60
I889
tp3348
a(g2
I60
I890
tp3349
a(g2
I61
I891
tp3350
a(g2
I61
I892
tp3351
a(g2
I61
I893
tp3352
a(g2
I61
I894
tp3353
a(g2
I61
I895
tp3354
a(g2
I61
I896
tp3355
a(g2
I61
I883
tp3356
a(g2
I61
I884
tp3357
a(g2
I61
I885
tp3358
a(g2
I61
I886
tp3359
a(g2
I61
I887
tp3360
a(g2
I61
I888
tp3361
a(g2
I61
I889
tp3362
a(g2
I61
I890
tp3363
a(g2
I61
I891
tp3364
a(g2
I61
I892
tp3365
a(g2
I61
I893
tp3366
a(g2
I61
I894
tp3367
a(g2
I61
I895
tp3368
a(g2
I61
I896
tp3369
a(g2
I61
I897
tp3370
a(g2
I61
I898
tp3371
a(g2
I61
I899
tp3372
a(g2
I61
I900
tp3373
a(g2
I62
I901
tp3374
a(g2
I62
I902
tp3375
a(g2
I62
I903
tp3376
a(g2
I62
I904
tp3377
a(g2
I62
I905
tp3378
a(g2
I62
I906
tp3379
a(g2
I62
I901
tp3380
a(g2
I62
I902
tp3381
a(g2
I62
I903
tp3382
a(g2
I62
I904
tp3383
a(g2
I62
I905
tp3384
a(g2
I62
I906
tp3385
a(g2
I62
I907
tp3386
a(g2
I62
I908
tp3387
a(g2
I62
I909
tp3388
a(g2
I62
I910
tp3389
a(g2
I62
I911
tp3390
a(g2
I62
I912
tp3391
a(g2
I62
I913
tp3392
a(g2
I62
I914
tp3393
a(g2
I62
I915
tp3394
a(g2
I62
I916
tp3395
a(g2
I62
I917
tp3396
a(g2
I63
I918
tp3397
a(g2
I63
I919
tp3398
a(g2
I63
I920
tp3399
a(g2
I63
I921
tp3400
a(g2
I63
I922
tp3401
a(g2
I63
I923
tp3402
a(g2
I63
I908
tp3403
a(g2
I63
I909
tp3404
a(g2
I63
I910
tp3405
a(g2
I63
I911
tp3406
a(g2
I63
I912
tp3407
a(g2
I63
I913
tp3408
a(g2
I63
I914
tp3409
a(g2
I63
I915
tp3410
a(g2
I63
I916
tp3411
a(g2
I63
I917
tp3412
a(g2
I63
I918
tp3413
a(g2
I63
I919
tp3414
a(g2
I63
I920
tp3415
a(g2
I63
I921
tp3416
a(g2
I64
I922
tp3417
a(g2
I64
I923
tp3418
a(g2
I64
I924
tp3419
a(g2
I64
I925
tp3420
a(g2
I64
I926
tp3421
a(g2
I64
I927
tp3422
a(g2
I64
I916
tp3423
a(g2
I64
I917
tp3424
a(g2
I64
I918
tp3425
a(g2
I64
I919
tp3426
a(g2
I64
I920
tp3427
a(g2
I64
I921
tp3428
a(g2
I64
I922
tp3429
a(g2
I64
I923
tp3430
a(g2
I64
I924
tp3431
a(g2
I64
I925
tp3432
a(g2
I64
I926
tp3433
a(g2
I64
I927
tp3434
a(g2
I64
I928
tp3435
a(g2
I64
I929
tp3436
a(g2
I64
I930
tp3437
a(g2
I65
I931
tp3438
a(g2
I65
I932
tp3439
a(g2
I65
I933
tp3440
a(g2
I65
I934
tp3441
a(g2
I65
I935
tp3442
a(g2
I65
I936
tp3443
a(g2
I65
I921
tp3444
a(g2
I65
I922
tp3445
a(g2
I65
I923
tp3446
a(g2
I65
I924
tp3447
a(g2
I65
I925
tp3448
a(g2
I65
I926
tp3449
a(g2
I65
I927
tp3450
a(g2
I65
I928
tp3451
a(g2
I65
I929
tp3452
a(g2
I65
I930
tp3453
a(g2
I65
I931
tp3454
a(g2
I65
I932
tp3455
a(g2
I65
I933
tp3456
a(g2
I65
I934
tp3457
a(g2
I65
I935
tp3458
a(g2
I65
I936
tp3459
a(g2
I66
I937
tp3460
a(g2
I66
I938
tp3461
a(g2
I66
I939
tp3462
a(g2
I66
I940
tp3463
a(g2
I66
I941
tp3464
a(g2
I66
I942
tp3465
a(g2
I66
I929
tp3466
a(g2
I66
I930
tp3467
a(g2
I66
I931
tp3468
a(g2
I66
I932
tp3469
a(g2
I66
I933
tp3470
a(g2
I66
I934
tp3471
a(g2
I66
I935
tp3472
a(g2
I66
I936
tp3473
a(g2
I66
I937
tp3474
a(g2
I66
I938
tp3475
a(g2
I66
I939
tp3476
a(g2
I66
I940
tp3477
a(g2
I67
I941
tp3478
a(g2
I67
I942
tp3479
a(g2
I67
I943
tp3480
a(g2
I67
I944
tp3481
a(g2
I67
I945
tp3482
a(g2
I67
I946
tp3483
a(g2
I67
I935
tp3484
a(g2
I67
I936
tp3485
a(g2
I67
I937
tp3486
a(g2
I67
I938
tp3487
a(g2
I67
I939
tp3488
a(g2
I67
I940
tp3489
a(g2
I67
I941
tp3490
a(g2
I67
I942
tp3491
a(g2
I67
I943
tp3492
a(g2
I68
I944
tp3493
a(g2
I68
I945
tp3494
a(g2
I68
I946
tp3495
a(g2
I68
I947
tp3496
a(g2
I68
I948
tp3497
a(g2
I68
I949
tp3498
a(g2
I68
I938
tp3499
a(g2
I68
I939
tp3500
a(g2
I68
I940
tp3501
a(g2
I68
I941
tp3502
a(g2
I68
I942
tp3503
a(g2
I68
I943
tp3504
a(g2
I68
I944
tp3505
a(g2
I68
I945
tp3506
a(g2
I68
I946
tp3507
a(g2
I68
I947
tp3508
a(g2
I68
I948
tp3509
a(g2
I68
I949
tp3510
a(g2
I68
I950
tp3511
a(g2
I68
I951
tp3512
a(g2
I68
I952
tp3513
a(g2
I69
I953
tp3514
a(g2
I69
I954
tp3515
a(g2
I69
I955
tp3516
a(g2
I69
I956
tp3517
a(g2
I69
I957
tp3518
a(g2
I69
I958
tp3519
a(g2
I69
I943
tp3520
a(g2
I69
I944
tp3521
a(g2
I69
I945
tp3522
a(g2
I69
I946
tp3523
a(g2
I69
I947
tp3524
a(g2
I69
I948
tp3525
a(g2
I69
I949
tp3526
a(g2
I69
I950
tp3527
a(g2
I69
I951
tp3528
a(g2
I69
I952
tp3529
a(g2
I69
I953
tp3530
a(g2
I69
I954
tp3531
a(g2
I69
I955
tp3532
a(g2
I69
I956
tp3533
a(g2
I69
I957
tp3534
a(g2
I69
I958
tp3535
a(g2
I69
I959
tp3536
a(g2
I69
I960
tp3537
a(g2
I69
I961
tp3538
a(g2
I69
I962
tp3539
a(g2
I69
I963
tp3540
a(g2
I70
I964
tp3541
a(g2
I70
I965
tp3542
a(g2
I70
I966
tp3543
a(g2
I70
I967
tp3544
a(g2
I70
I968
tp3545
a(g2
I70
I969
tp3546
a(g2
I70
I952
tp3547
a(g2
I70
I953
tp3548
a(g2
I70
I954
tp3549
a(g2
I70
I955
tp3550
a(g2
I70
I956
tp3551
a(g2
I70
I957
tp3552
a(g2
I70
I958
tp3553
a(g2
I70
I959
tp3554
a(g2
I70
I960
tp3555
a(g2
I70
I961
tp3556
a(g2
I70
I962
tp3557
a(g2
I70
I963
tp3558
a(g2
I70
I964
tp3559
a(g2
I70
I965
tp3560
a(g2
I71
I966
tp3561
a(g2
I71
I967
tp3562
a(g2
I71
I968
tp3563
a(g2
I71
I969
tp3564
a(g2
I71
I970
tp3565
a(g2
I71
I971
tp3566
a(g2
I71
I957
tp3567
a(g2
I71
I958
tp3568
a(g2
I71
I959
tp3569
a(g2
I71
I960
tp3570
a(g2
I71
I961
tp3571
a(g2
I71
I962
tp3572
a(g2
I71
I963
tp3573
a(g2
I71
I964
tp3574
a(g2
I71
I965
tp3575
a(g2
I71
I966
tp3576
a(g2
I71
I967
tp3577
a(g2
I72
I968
tp3578
a(g2
I72
I969
tp3579
a(g2
I72
I970
tp3580
a(g2
I72
I971
tp3581
a(g2
I72
I972
tp3582
a(g2
I72
I973
tp3583
a(g2
I72
I961
tp3584
a(g2
I72
I962
tp3585
a(g2
I72
I963
tp3586
a(g2
I72
I964
tp3587
a(g2
I72
I965
tp3588
a(g2
I72
I966
tp3589
a(g2
I72
I967
tp3590
a(g2
I72
I968
tp3591
a(g2
I72
I969
tp3592
a(g2
I72
I970
tp3593
a(g2
I72
I971
tp3594
a(g2
I72
I972
tp3595
a(g2
I73
I973
tp3596
a(g2
I73
I974
tp3597
a(g2
I73
I975
tp3598
a(g2
I73
I976
tp3599
a(g2
I73
I977
tp3600
a(g2
I73
I978
tp3601
a(g2
I73
I964
tp3602
a(g2
I73
I965
tp3603
a(g2
I73
I966
tp3604
a(g2
I73
I967
tp3605
a(g2
I73
I968
tp3606
a(g2
I73
I969
tp3607
a(g2
I73
I970
tp3608
a(g2
I73
I971
tp3609
a(g2
I73
I972
tp3610
a(g2
I73
I973
tp3611
a(g2
I73
I974
tp3612
a(g2
I73
I975
tp3613
a(g2
I73
I976
tp3614
a(g2
I73
I977
tp3615
a(g2
I73
I978
tp3616
a(g2
I73
I979
tp3617
a(g2
I73
I980
tp3618
a(g2
I74
I981
tp3619
a(g2
I74
I982
tp3620
a(g2
I74
I983
tp3621
a(g2
I74
I984
tp3622
a(g2
I74
I985
tp3623
a(g2
I74
I986
tp3624
a(g2
I74
I965
tp3625
a(g2
I74
I966
tp3626
a(g2
I74
I967
tp3627
a(g2
I74
I968
tp3628
a(g2
I74
I969
tp3629
a(g2
I74
I970
tp3630
a(g2
I74
I971
tp3631
a(g2
I74
I972
tp3632
a(g2
I74
I973
tp3633
a(g2
I74
I974
tp3634
a(g2
I74
I975
tp3635
a(g2
I75
I976
tp3636
a(g2
I75
I977
tp3637
a(g2
I75
I978
tp3638
a(g2
I75
I979
tp3639
a(g2
I75
I980
tp3640
a(g2
I75
I981
tp3641
a(g2
I75
I968
tp3642
a(g2
I75
I969
tp3643
a(g2
I75
I970
tp3644
a(g2
I75
I971
tp3645
a(g2
I75
I972
tp3646
a(g2
I75
I973
tp3647
a(g2
I75
I974
tp3648
a(g2
I75
I975
tp3649
a(g2
I75
I976
tp3650
a(g2
I75
I977
tp3651
a(g2
I75
I978
tp3652
a(g2
I75
I979
tp3653
a(g2
I75
I980
tp3654
a(g2
I75
I981
tp3655
a(g2
I75
I982
tp3656
a(g2
I76
I983
tp3657
a(g2
I76
I984
tp3658
a(g2
I76
I985
tp3659
a(g2
I76
I986
tp3660
a(g2
I76
I987
tp3661
a(g2
I76
I988
tp3662
a(g2
I76
I967
tp3663
a(g2
I76
I968
tp3664
a(g2
I76
I969
tp3665
a(g2
I76
I970
tp3666
a(g2
I76
I971
tp3667
a(g2
I76
I972
tp3668
a(g2
I76
I973
tp3669
a(g2
I76
I974
tp3670
a(g2
I76
I975
tp3671
a(g2
I76
I976
tp3672
a(g2
I76
I977
tp3673
a(g2
I77
I978
tp3674
a(g2
I77
I979
tp3675
a(g2
I77
I980
tp3676
a(g2
I77
I981
tp3677
a(g2
I77
I982
tp3678
a(g2
I77
I983
tp3679
a(g2
I77
I969
tp3680
a(g2
I77
I970
tp3681
a(g2
I77
I971
tp3682
a(g2
I77
I972
tp3683
a(g2
I77
I973
tp3684
a(g2
I77
I974
tp3685
a(g2
I77
I975
tp3686
a(g2
I77
I976
tp3687
a(g2
I77
I977
tp3688
a(g2
I77
I978
tp3689
a(g2
I77
I979
tp3690
a(g2
I77
I980
tp3691
a(g2
I77
I981
tp3692
a(g2
I77
I982
tp3693
a(g2
I77
I983
tp3694
a(g2
I77
I984
tp3695
a(g2
I78
I985
tp3696
a(g2
I78
I986
tp3697
a(g2
I78
I987
tp3698
a(g2
I78
I988
tp3699
a(g2
I78
I989
tp3700
a(g2
I78
I990
tp3701
a(g2
I78
I977
tp3702
a(g2
I78
I978
tp3703
a(g2
I78
I979
tp3704
a(g2
I78
I980
tp3705
a(g2
I78
I981
tp3706
a(g2
I78
I982
tp3707
a(g2
I78
I983
tp3708
a(g2
I78
I984
tp3709
a(g2
I78
I985
tp3710
a(g2
I78
I986
tp3711
a(g2
I78
I987
tp3712
a(g2
I78
I988
tp3713
a(g2
I78
I989
tp3714
a(g2
I78
I990
tp3715
a(g2
I78
I991
tp3716
a(g2
I78
I992
tp3717
a(g2
I78
I993
tp3718
a(g2
I79
I994
tp3719
a(g2
I79
I995
tp3720
a(g2
I79
I996
tp3721
a(g2
I79
I997
tp3722
a(g2
I79
I998
tp3723
a(g2
I79
I999
tp3724
a(g2
I79
I982
tp3725
a(g2
I79
I983
tp3726
a(g2
I79
I984
tp3727
a(g2
I79
I985
tp3728
a(g2
I79
I986
tp3729
a(g2
I79
I987
tp3730
a(g2
I79
I988
tp3731
a(g2
I79
I989
tp3732
a(g2
I79
I990
tp3733
a(g2
I79
I991
tp3734
a(g2
I79
I992
tp3735
a(g2
I79
I993
tp3736
a(g2
I79
I994
tp3737
a(g2
I79
I995
tp3738
a(g2
I79
I996
tp3739
a(g2
I80
I997
tp3740
a(g2
I80
I998
tp3741
a(g2
I80
I999
tp3742
a(g2
I80
I1000
tp3743
a(g2
I80
I1001
tp3744
a(g2
I80
I1002
tp3745
a(g2
I80
I992
tp3746
a(g2
I80
I993
tp3747
a(g2
I80
I994
tp3748
a(g2
I80
I995
tp3749
a(g2
I80
I996
tp3750
a(g2
I80
I997
tp3751
a(g2
I80
I998
tp3752
a(g2
I80
I999
tp3753
a(g2
I80
I1000
tp3754
a(g2
I80
I1001
tp3755
a(g2
I80
I1002
tp3756
a(g2
I80
I1003
tp3757
a(g2
I80
I1004
tp3758
a(g2
I81
I1005
tp3759
a(g2
I81
I1006
tp3760
a(g2
I81
I1007
tp3761
a(g2
I81
I1008
tp3762
a(g2
I81
I1009
tp3763
a(g2
I81
I1010
tp3764
a(g2
I81
I997
tp3765
a(g2
I81
I998
tp3766
a(g2
I81
I999
tp3767
a(g2
I81
I1000
tp3768
a(g2
I81
I1001
tp3769
a(g2
I81
I1002
tp3770
a(g2
I81
I1003
tp3771
a(g2
I81
I1004
tp3772
a(g2
I81
I1005
tp3773
a(g2
I81
I1006
tp3774
a(g2
I81
I1007
tp3775
a(g2
I81
I1008
tp3776
a(g2
I81
I1009
tp3777
a(g2
I81
I1010
tp3778
a(g2
I81
I1011
tp3779
a(g2
I81
I1012
tp3780
a(g2
I82
I1013
tp3781
a(g2
I82
I1014
tp3782
a(g2
I82
I1015
tp3783
a(g2
I82
I1016
tp3784
a(g2
I82
I1017
tp3785
a(g2
I82
I1018
tp3786
a(g2
I82
I1003
tp3787
a(g2
I82
I1004
tp3788
a(g2
I82
I1005
tp3789
a(g2
I82
I1006
tp3790
a(g2
I82
I1007
tp3791
a(g2
I82
I1008
tp3792
a(g2
I82
I1009
tp3793
a(g2
I82
I1010
tp3794
a(g2
I82
I1011
tp3795
a(g2
I82
I1012
tp3796
a(g2
I82
I1013
tp3797
a(g2
I82
I1014
tp3798
a(g2
I82
I1015
tp3799
a(g2
I82
I1016
tp3800
a(g2
I82
I1017
tp3801
a(g2
I83
I1018
tp3802
a(g2
I83
I1019
tp3803
a(g2
I83
I1020
tp3804
a(g2
I83
I1021
tp3805
a(g2
I83
I1022
tp3806
a(g2
I83
I1023
tp3807
a(g2
I83
I1009
tp3808
a(g2
I83
I1010
tp3809
a(g2
I83
I1011
tp3810
a(g2
I83
I1012
tp3811
a(g2
I83
I1013
tp3812
a(g2
I83
I1014
tp3813
a(g2
I83
I1015
tp3814
a(g2
I83
I1016
tp3815
a(g2
I84
I1017
tp3816
a(g2
I84
I1018
tp3817
a(g2
I84
I1019
tp3818
a(g2
I84
I1020
tp3819
a(g2
I84
I1021
tp3820
a(g2
I84
I1022
tp3821
a(g2
I84
I1012
tp3822
a(g2
I84
I1013
tp3823
a(g2
I84
I1014
tp3824
a(g2
I84
I1015
tp3825
a(g2
I84
I1016
tp3826
a(g2
I84
I1017
tp3827
a(g2
I84
I1018
tp3828
a(g2
I84
I1019
tp3829
a(g2
I84
I1020
tp3830
a(g2
I84
I1021
tp3831
a(g2
I84
I1022
tp3832
a(g2
I84
I1023
tp3833
a(g2
I84
I1024
tp3834
a(g2
I84
I1025
tp3835
a(g2
I84
I1026
tp3836
a(g2
I84
I1027
tp3837
a(g2
I84
I1028
tp3838
a(g2
I85
I1029
tp3839
a(g2
I85
I1030
tp3840
a(g2
I85
I1031
tp3841
a(g2
I85
I1032
tp3842
a(g2
I85
I1033
tp3843
a(g2
I85
I1034
tp3844
a(g2
I85
I1025
tp3845
a(g2
I85
I1026
tp3846
a(g2
I85
I1027
tp3847
a(g2
I85
I1028
tp3848
a(g2
I85
I1029
tp3849
a(g2
I85
I1030
tp3850
a(g2
I85
I1031
tp3851
a(g2
I85
I1032
tp3852
a(g2
I85
I1033
tp3853
a(g2
I85
I1034
tp3854
a(g2
I85
I1035
tp3855
a(g2
I85
I1036
tp3856
a(g2
I85
I1037
tp3857
a(g2
I85
I1038
tp3858
a(g2
I85
I1039
tp3859
a(g2
I85
I1040
tp3860
a(g2
I85
I1041
tp3861
a(g2
I85
I1042
tp3862
a(g2
I85
I1043
tp3863
a(g2
I86
I1044
tp3864
a(g2
I86
I1045
tp3865
a(g2
I86
I1046
tp3866
a(g2
I86
I1047
tp3867
a(g2
I86
I1048
tp3868
a(g2
I86
I1049
tp3869
a(g2
I86
I1032
tp3870
a(g2
I86
I1033
tp3871
a(g2
I86
I1034
tp3872
a(g2
I86
I1035
tp3873
a(g2
I86
I1036
tp3874
a(g2
I86
I1037
tp3875
a(g2
I86
I1038
tp3876
a(g2
I86
I1039
tp3877
a(g2
I86
I1040
tp3878
a(g2
I86
I1041
tp3879
a(g2
I86
I1042
tp3880
a(g2
I86
I1043
tp3881
a(g2
I87
I1044
tp3882
a(g2
I87
I1045
tp3883
a(g2
I87
I1046
tp3884
a(g2
I87
I1047
tp3885
a(g2
I87
I1048
tp3886
a(g2
I87
I1049
tp3887
a(g2
I87
I1037
tp3888
a(g2
I87
I1038
tp3889
a(g2
I87
I1039
tp3890
a(g2
I87
I1040
tp3891
a(g2
I87
I1041
tp3892
a(g2
I87
I1042
tp3893
a(g2
I87
I1043
tp3894
a(g2
I87
I1044
tp3895
a(g2
I87
I1045
tp3896
a(g2
I87
I1046
tp3897
a(g2
I87
I1047
tp3898
a(g2
I87
I1048
tp3899
a(g2
I87
I1049
tp3900
a(g2
I87
I1050
tp3901
a(g2
I87
I1051
tp3902
a(g2
I88
I1052
tp3903
a(g2
I88
I1053
tp3904
a(g2
I88
I1054
tp3905
a(g2
I88
I1055
tp3906
a(g2
I88
I1056
tp3907
a(g2
I88
I1057
tp3908
a(g2
I88
I1039
tp3909
a(g2
I88
I1040
tp3910
a(g2
I88
I1041
tp3911
a(g2
I88
I1042
tp3912
a(g2
I88
I1043
tp3913
a(g2
I88
I1044
tp3914
a(g2
I88
I1045
tp3915
a(g2
I88
I1046
tp3916
a(g2
I88
I1047
tp3917
a(g2
I88
I1048
tp3918
a(g2
I88
I1049
tp3919
a(g2
I88
I1050
tp3920
a(g2
I88
I1051
tp3921
a(g2
I88
I1052
tp3922
a(g2
I89
I1053
tp3923
a(g2
I89
I1054
tp3924
a(g2
I89
I1055
tp3925
a(g2
I89
I1056
tp3926
a(g2
I89
I1057
tp3927
a(g2
I89
I1058
tp3928
a(g2
I89
I1040
tp3929
a(g2
I89
I1041
tp3930
a(g2
I89
I1042
tp3931
a(g2
I89
I1043
tp3932
a(g2
I89
I1044
tp3933
a(g2
I89
I1045
tp3934
a(g2
I89
I1046
tp3935
a(g2
I89
I1047
tp3936
a(g2
I89
I1048
tp3937
a(g2
I89
I1049
tp3938
a(g2
I90
I1050
tp3939
a(g2
I90
I1051
tp3940
a(g2
I90
I1052
tp3941
a(g2
I90
I1053
tp3942
a(g2
I90
I1054
tp3943
a(g2
I90
I1055
tp3944
a(g2
I90
I1039
tp3945
a(g2
I90
I1040
tp3946
a(g2
I90
I1041
tp3947
a(g2
I90
I1042
tp3948
a(g2
I90
I1043
tp3949
a(g2
I90
I1044
tp3950
a(g2
I90
I1045
tp3951
a(g2
I90
I1046
tp3952
a(g2
I90
I1047
tp3953
a(g2
I90
I1048
tp3954
a(g2
I90
I1049
tp3955
a(g2
I90
I1050
tp3956
a(g2
I90
I1051
tp3957
a(g2
I90
I1052
tp3958
a(g2
I90
I1053
tp3959
a(g2
I90
I1054
tp3960
a(g2
I90
I1055
tp3961
a(g2
I90
I1056
tp3962
a(g2
I91
I1057
tp3963
a(g2
I91
I1058
tp3964
a(g2
I91
I1059
tp3965
a(g2
I91
I1060
tp3966
a(g2
I91
I1061
tp3967
a(g2
I91
I1062
tp3968
a(g2
I91
I1046
tp3969
a(g2
I91
I1047
tp3970
a(g2
I91
I1048
tp3971
a(g2
I91
I1049
tp3972
a(g2
I91
I1050
tp3973
a(g2
I91
I1051
tp3974
a(g2
I91
I1052
tp3975
a(g2
I91
I1053
tp3976
a(g2
I91
I1054
tp3977
a(g2
I91
I1055
tp3978
a(g2
I92
I1056
tp3979
a(g2
I92
I1057
tp3980
a(g2
I92
I1058
tp3981
a(g2
I92
I1059
tp3982
a(g2
I92
I1060
tp3983
a(g2
I92
I1061
tp3984
a(g2
I92
I1045
tp3985
a(g2
I92
I1046
tp3986
a(g2
I92
I1047
tp3987
a(g2
I92
I1048
tp3988
a(g2
I92
I1049
tp3989
a(g2
I92
I1050
tp3990
a(g2
I92
I1051
tp3991
a(g2
I92
I1052
tp3992
a(g2
I92
I1053
tp3993
a(g2
I92
I1054
tp3994
a(g2
I92
I1055
tp3995
a(g2
I92
I1056
tp3996
a(g2
I92
I1057
tp3997
a(g2
I92
I1058
tp3998
a(g2
I92
I1059
tp3999
a(g2
I92
I1060
tp4000
a(g2
I92
I1061
tp4001
a(g2
I93
I1062
tp4002
a(g2
I93
I1063
tp4003
a(g2
I93
I1064
tp4004
a(g2
I93
I1065
tp4005
a(g2
I93
I1066
tp4006
a(g2
I93
I1067
tp4007
a(g2
I93
I1054
tp4008
a(g2
I93
I1055
tp4009
a(g2
I93
I1056
tp4010
a(g2
I93
I1057
tp4011
a(g2
I93
I1058
tp4012
a(g2
I93
I1059
tp4013
a(g2
I93
I1060
tp4014
a(g2
I93
I1061
tp4015
a(g2
I93
I1062
tp4016
a(g2
I93
I1063
tp4017
a(g2
I93
I1064
tp4018
a(g2
I93
I1065
tp4019
a(g2
I93
I1066
tp4020
a(g2
I94
I1067
tp4021
a(g2
I94
I1068
tp4022
a(g2
I94
I1069
tp4023
a(g2
I94
I1070
tp4024
a(g2
I94
I1071
tp4025
a(g2
I94
I1072
tp4026
a(g2
I94
I1059
tp4027
a(g2
I94
I1060
tp4028
a(g2
I94
I1061
tp4029
a(g2
I94
I1062
tp4030
a(g2
I94
I1063
tp4031
a(g2
I94
I1064
tp4032
a(g2
I94
I1065
tp4033
a(g2
I94
I1066
tp4034
a(g2
I94
I1067
tp4035
a(g2
I94
I1068
tp4036
a(g2
I94
I1069
tp4037
a(g2
I94
I1070
tp4038
a(g2
I94
I1071
tp4039
a(g2
I94
I1072
tp4040
a(g2
I94
I1073
tp4041
a(g2
I94
I1074
tp4042
a(g2
I95
I1075
tp4043
a(g2
I95
I1076
tp4044
a(g2
I95
I1077
tp4045
a(g2
I95
I1078
tp4046
a(g2
I95
I1079
tp4047
a(g2
I95
I1080
tp4048
a(g2
I95
I1061
tp4049
a(g2
I95
I1062
tp4050
a(g2
I95
I1063
tp4051
a(g2
I95
I1064
tp4052
a(g2
I95
I1065
tp4053
a(g2
I95
I1066
tp4054
a(g2
I95
I1067
tp4055
a(g2
I95
I1068
tp4056
a(g2
I95
I1069
tp4057
a(g2
I95
I1070
tp4058
a(g2
I95
I1071
tp4059
a(g2
I95
I1072
tp4060
a(g2
I95
I1073
tp4061
a(g2
I95
I1074
tp4062
a(g2
I95
I1075
tp4063
a(g2
I95
I1076
tp4064
a(g2
I95
I1077
tp4065
a(g2
I96
I1078
tp4066
a(g2
I96
I1079
tp4067
a(g2
I96
I1080
tp4068
a(g2
I96
I1081
tp4069
a(g2
I96
I1082
tp4070
a(g2
I96
I1083
tp4071
a(g2
I96
I1068
tp4072
a(g2
I96
I1069
tp4073
a(g2
I96
I1070
tp4074
a(g2
I96
I1071
tp4075
a(g2
I96
I1072
tp4076
a(g2
I96
I1073
tp4077
a(g2
I96
I1074
tp4078
a(g2
I96
I1075
tp4079
a(g2
I96
I1076
tp4080
a(g2
I96
I1077
tp4081
a(g2
I96
I1078
tp4082
a(g2
I96
I1079
tp4083
a(g2
I96
I1080
tp4084
a(g2
I96
I1081
tp4085
a(g2
I97
I1082
tp4086
a(g2
I97
I1083
tp4087
a(g2
I97
I1084
tp4088
a(g2
I97
I1085
tp4089
a(g2
I97
I1086
tp4090
a(g2
I97
I1087
tp4091
a(g2
I97
I1069
tp4092
a(g2
I97
I1070
tp4093
a(g2
I97
I1071
tp4094
a(g2
I97
I1072
tp4095
a(g2
I97
I1073
tp4096
a(g2
I97
I1074
tp4097
a(g2
I97
I1075
tp4098
a(g2
I97
I1076
tp4099
a(g2
I97
I1077
tp4100
a(g2
I97
I1078
tp4101
a(g2
I97
I1079
tp4102
a(g2
I97
I1080
tp4103
a(g2
I97
I1081
tp4104
a(g2
I97
I1082
tp4105
a(g2
I97
I1083
tp4106
a(g2
I98
I1084
tp4107
a(g2
I98
I1085
tp4108
a(g2
I98
I1086
tp4109
a(g2
I98
I1087
tp4110
a(g2
I98
I1088
tp4111
a(g2
I98
I1089
tp4112
a(g2
I98
I1067
tp4113
a(g2
I98
I1068
tp4114
a(g2
I98
I1069
tp4115
a(g2
I98
I1070
tp4116
a(g2
I98
I1071
tp4117
a(g2
I98
I1072
tp4118
a(g2
I98
I1073
tp4119
a(g2
I98
I1074
tp4120
a(g2
I98
I1075
tp4121
a(g2
I98
I1076
tp4122
a(g2
I98
I1077
tp4123
a(g2
I99
I1078
tp4124
a(g2
I99
I1079
tp4125
a(g2
I99
I1080
tp4126
a(g2
I99
I1081
tp4127
a(g2
I99
I1082
tp4128
a(g2
I99
I1083
tp4129
a(g2
I99
I1077
tp4130
a(g2
I99
I1078
tp4131
a(g2
I99
I1079
tp4132
a(g2
I99
I1080
tp4133
a(g2
I99
I1081
tp4134
a(g2
I99
I1082
tp4135
a(g2
I99
I1083
tp4136
a(g2
I99
I1084
tp4137
a(g2
I99
I1085
tp4138
a(g2
I99
I1086
tp4139
a(g2
I99
I1087
tp4140
a(g2
I99
I1088
tp4141
a(g2
I100
I1089
tp4142
a(g2
I100
I1090
tp4143
a(g2
I100
I1091
tp4144
a(g2
I100
I1092
tp4145
a(g2
I100
I1093
tp4146
a(g2
I100
I1094
tp4147
a(g2
I100
I1079
tp4148
a(g2
I100
I1080
tp4149
a(g2
I100
I1081
tp4150
a(g2
I100
I1082
tp4151
a(g2
I100
I1083
tp4152
a(g2
I100
I1084
tp4153
a(g2
I100
I1085
tp4154
a(g2
I100
I1086
tp4155
a(g2
I100
I1087
tp4156
a(g2
I100
I1088
tp4157
a(g2
I100
I1089
tp4158
a(g2
I100
I1090
tp4159
a(g2
I100
I1091
tp4160
a(g2
I100
I1092
tp4161
a(g2
I100
I1093
tp4162
a(g2
I100
I1094
tp4163
a(g2
I100
I1095
tp4164
a(g2
I100
I1096
tp4165
a(g2
I100
I1097
tp4166
a(g2
I100
I1098
tp4167
a(g2
I100
I1099
tp4168
a(g2
I101
I1100
tp4169
a(g2
I101
I1101
tp4170
a(g2
I101
I1102
tp4171
a(g2
I101
I1103
tp4172
a(g2
I101
I1104
tp4173
a(g2
I101
I1105
tp4174
a(g2
I101
I1095
tp4175
a(g2
I101
I1096
tp4176
a(g2
I101
I1097
tp4177
a(g2
I101
I1098
tp4178
a(g2
I101
I1099
tp4179
a(g2
I101
I1100
tp4180
a(g2
I101
I1101
tp4181
a(g2
I101
I1102
tp4182
a(g2
I101
I1103
tp4183
a(g2
I101
I1104
tp4184
a(g2
I101
I1105
tp4185
a(g2
I102
I1106
tp4186
a(g2
I102
I1107
tp4187
a(g2
I102
I1108
tp4188
a(g2
I102
I1109
tp4189
a(g2
I102
I1110
tp4190
a(g2
I102
I1111
tp4191
a(g2
I102
I1096
tp4192
a(g2
I102
I1097
tp4193
a(g2
I102
I1098
tp4194
a(g2
I102
I1099
tp4195
a(g2
I102
I1100
tp4196
a(g2
I102
I1101
tp4197
a(g2
I102
I1102
tp4198
a(g2
I102
I1103
tp4199
a(g2
I102
I1104
tp4200
a(g2
I102
I1105
tp4201
a(g2
I102
I1106
tp4202
a(g2
I102
I1107
tp4203
a(g2
I103
I1108
tp4204
a(g2
I103
I1109
tp4205
a(g2
I103
I1110
tp4206
a(g2
I103
I1111
tp4207
a(g2
I103
I1112
tp4208
a(g2
I103
I1113
tp4209
a(g2
I103
I1104
tp4210
a(g2
I103
I1105
tp4211
a(g2
I103
I1106
tp4212
a(g2
I103
I1107
tp4213
a(g2
I103
I1108
tp4214
a(g2
I103
I1109
tp4215
a(g2
I103
I1110
tp4216
a(g2
I103
I1111
tp4217
a(g2
I103
I1112
tp4218
a(g2
I103
I1113
tp4219
a(g2
I103
I1114
tp4220
a(g2
I103
I1115
tp4221
a(g2
I103
I1116
tp4222
a(g2
I103
I1117
tp4223
a(g2
I103
I1118
tp4224
a(g2
I103
I1119
tp4225
a(g2
I103
I1120
tp4226
a(g2
I103
I1121
tp4227
a(g2
I103
I1122
tp4228
a(g2
I103
I1123
tp4229
aa(lp4230
(g2
I0
I1
tp4231
a(g2
I0
I2
tp4232
a(g2
I0
I3
tp4233
a(g2
I0
I4
tp4234
a(g2
I0
I5
tp4235
a(g2
I0
I6
tp4236
a(g2
I0
I7
tp4237
a(g2
I0
I8
tp4238
a(g2
I0
I9
tp4239
a(g2
I0
I10
tp4240
a(g2
I0
I11
tp4241
a(g2
I0
I12
tp4242
a(g2
I0
I13
tp4243
a(g2
I0
I14
tp4244
a(g2
I0
I15
tp4245
a(g2
I0
I16
tp4246
a(g2
I0
I17
tp4247
a(g2
I0
I18
tp4248
a(g2
I0
I19
tp4249
a(g2
I0
I20
tp4250
a(g2
I0
I21
tp4251
a(g2
I0
I22
tp4252
a(g2
I1
I23
tp4253
a(g2
I1
I24
tp4254
a(g2
I1
I25
tp4255
a(g2
I1
I26
tp4256
a(g2
I1
I27
tp4257
a(g2
I1
I28
tp4258
a(g2
I1
I29
tp4259
a(g2
I1
I30
tp4260
a(g2
I1
I31
tp4261
a(g2
I1
I32
tp4262
a(g2
I1
I33
tp4263
a(g2
I1
I34
tp4264
a(g2
I1
I35
tp4265
a(g2
I1
I36
tp4266
a(g2
I1
I37
tp4267
a(g2
I1
I38
tp4268
a(g2
I1
I39
tp4269
a(g2
I1
I40
tp4270
a(g2
I1
I41
tp4271
a(g2
I2
I42
tp4272
a(g2
I2
I43
tp4273
a(g2
I2
I44
tp4274
a(g2
I2
I45
tp4275
a(g2
I2
I46
tp4276
a(g2
I2
I47
tp4277
a(g2
I2
I48
tp4278
a(g2
I2
I49
tp4279
a(g2
I2
I50
tp4280
a(g2
I2
I51
tp4281
a(g2
I2
I52
tp4282
a(g2
I2
I53
tp4283
a(g2
I2
I54
tp4284
a(g2
I2
I55
tp4285
a(g2
I2
I56
tp4286
a(g2
I2
I57
tp4287
a(g2
I2
I58
tp4288
a(g2
I2
I59
tp4289
a(g2
I2
I60
tp4290
a(g2
I3
I61
tp4291
a(g2
I3
I62
tp4292
a(g2
I3
I63
tp4293
a(g2
I3
I64
tp4294
a(g2
I3
I65
tp4295
a(g2
I3
I66
tp4296
a(g2
I3
I67
tp4297
a(g2
I3
I68
tp4298
a(g2
I3
I69
tp4299
a(g2
I3
I70
tp4300
a(g2
I3
I71
tp4301
a(g2
I3
I72
tp4302
a(g2
I3
I73
tp4303
a(g2
I3
I74
tp4304
a(g2
I3
I75
tp4305
a(g2
I3
I76
tp4306
a(g2
I3
I77
tp4307
a(g2
I3
I78
tp4308
a(g2
I3
I79
tp4309
a(g2
I3
I80
tp4310
a(g2
I3
I81
tp4311
a(g2
I3
I82
tp4312
a(g2
I3
I83
tp4313
a(g2
I3
I84
tp4314
a(g2
I3
I85
tp4315
a(g2
I4
I86
tp4316
a(g2
I4
I87
tp4317
a(g2
I4
I88
tp4318
a(g2
I4
I89
tp4319
a(g2
I4
I90
tp4320
a(g2
I4
I91
tp4321
a(g2
I4
I92
tp4322
a(g2
I4
I93
tp4323
a(g2
I4
I94
tp4324
a(g2
I4
I95
tp4325
a(g2
I4
I96
tp4326
a(g2
I4
I97
tp4327
a(g2
I4
I98
tp4328
a(g2
I4
I99
tp4329
a(g2
I4
I100
tp4330
a(g2
I4
I101
tp4331
a(g2
I4
I102
tp4332
a(g2
I4
I103
tp4333
a(g2
I5
I104
tp4334
a(g2
I5
I105
tp4335
a(g2
I5
I106
tp4336
a(g2
I5
I107
tp4337
a(g2
I5
I108
tp4338
a(g2
I5
I109
tp4339
a(g2
I5
I110
tp4340
a(g2
I5
I111
tp4341
a(g2
I5
I112
tp4342
a(g2
I5
I113
tp4343
a(g2
I5
I114
tp4344
a(g2
I5
I115
tp4345
a(g2
I5
I116
tp4346
a(g2
I5
I117
tp4347
a(g2
I5
I118
tp4348
a(g2
I5
I119
tp4349
a(g2
I5
I120
tp4350
a(g2
I6
I121
tp4351
a(g2
I6
I122
tp4352
a(g2
I6
I123
tp4353
a(g2
I6
I124
tp4354
a(g2
I6
I125
tp4355
a(g2
I6
I126
tp4356
a(g2
I6
I127
tp4357
a(g2
I6
I128
tp4358
a(g2
I6
I129
tp4359
a(g2
I6
I130
tp4360
a(g2
I6
I131
tp4361
a(g2
I6
I132
tp4362
a(g2
I6
I133
tp4363
a(g2
I6
I134
tp4364
a(g2
I6
I135
tp4365
a(g2
I6
I136
tp4366
a(g2
I7
I137
tp4367
a(g2
I7
I138
tp4368
a(g2
I7
I139
tp4369
a(g2
I7
I140
tp4370
a(g2
I7
I141
tp4371
a(g2
I7
I142
tp4372
a(g2
I7
I143
tp4373
a(g2
I7
I144
tp4374
a(g2
I7
I145
tp4375
a(g2
I7
I146
tp4376
a(g2
I7
I147
tp4377
a(g2
I7
I148
tp4378
a(g2
I7
I149
tp4379
a(g2
I7
I150
tp4380
a(g2
I7
I151
tp4381
a(g2
I7
I152
tp4382
a(g2
I7
I153
tp4383
a(g2
I7
I154
tp4384
a(g2
I7
I155
tp4385
a(g2
I7
I156
tp4386
a(g2
I8
I157
tp4387
a(g2
I8
I158
tp4388
a(g2
I8
I159
tp4389
a(g2
I8
I160
tp4390
a(g2
I8
I161
tp4391
a(g2
I8
I162
tp4392
a(g2
I8
I163
tp4393
a(g2
I8
I164
tp4394
a(g2
I8
I165
tp4395
a(g2
I8
I166
tp4396
a(g2
I8
I167
tp4397
a(g2
I8
I168
tp4398
a(g2
I8
I169
tp4399
a(g2
I8
I170
tp4400
a(g2
I8
I171
tp4401
a(g2
I8
I172
tp4402
a(g2
I8
I173
tp4403
a(g2
I8
I174
tp4404
a(g2
I8
I175
tp4405
a(g2
I8
I176
tp4406
a(g2
I8
I177
tp4407
a(g2
I8
I178
tp4408
a(g2
I8
I179
tp4409
a(g2
I8
I180
tp4410
a(g2
I9
I181
tp4411
a(g2
I9
I182
tp4412
a(g2
I9
I183
tp4413
a(g2
I9
I184
tp4414
a(g2
I9
I185
tp4415
a(g2
I9
I186
tp4416
a(g2
I9
I187
tp4417
a(g2
I9
I188
tp4418
a(g2
I9
I189
tp4419
a(g2
I9
I190
tp4420
a(g2
I9
I191
tp4421
a(g2
I9
I192
tp4422
a(g2
I10
I193
tp4423
a(g2
I10
I194
tp4424
a(g2
I10
I195
tp4425
a(g2
I10
I196
tp4426
a(g2
I10
I197
tp4427
a(g2
I10
I198
tp4428
a(g2
I10
I199
tp4429
a(g2
I10
I200
tp4430
a(g2
I10
I201
tp4431
a(g2
I10
I202
tp4432
a(g2
I10
I203
tp4433
a(g2
I10
I204
tp4434
a(g2
I10
I205
tp4435
a(g2
I10
I206
tp4436
a(g2
I10
I207
tp4437
a(g2
I10
I208
tp4438
a(g2
I10
I209
tp4439
a(g2
I10
I210
tp4440
a(g2
I10
I211
tp4441
a(g2
I10
I212
tp4442
a(g2
I10
I213
tp4443
a(g2
I11
I214
tp4444
a(g2
I11
I215
tp4445
a(g2
I11
I216
tp4446
a(g2
I11
I217
tp4447
a(g2
I11
I218
tp4448
a(g2
I11
I219
tp4449
a(g2
I11
I220
tp4450
a(g2
I11
I221
tp4451
a(g2
I11
I222
tp4452
a(g2
I11
I223
tp4453
a(g2
I11
I224
tp4454
a(g2
I11
I225
tp4455
a(g2
I11
I226
tp4456
a(g2
I11
I227
tp4457
a(g2
I11
I228
tp4458
a(g2
I11
I229
tp4459
a(g2
I11
I230
tp4460
a(g2
I11
I231
tp4461
a(g2
I11
I232
tp4462
a(g2
I11
I233
tp4463
a(g2
I12
I234
tp4464
a(g2
I12
I235
tp4465
a(g2
I12
I236
tp4466
a(g2
I12
I237
tp4467
a(g2
I12
I238
tp4468
a(g2
I12
I239
tp4469
a(g2
I12
I239
tp4470
a(g2
I12
I240
tp4471
a(g2
I12
I241
tp4472
a(g2
I12
I242
tp4473
a(g2
I12
I243
tp4474
a(g2
I12
I244
tp4475
a(g2
I12
I245
tp4476
a(g2
I12
I246
tp4477
a(g2
I12
I247
tp4478
a(g2
I12
I248
tp4479
a(g2
I12
I249
tp4480
a(g2
I12
I250
tp4481
a(g2
I12
I251
tp4482
a(g2
I12
I252
tp4483
a(g2
I13
I253
tp4484
a(g2
I13
I254
tp4485
a(g2
I13
I255
tp4486
a(g2
I13
I256
tp4487
a(g2
I13
I257
tp4488
a(g2
I13
I258
tp4489
a(g2
I13
I258
tp4490
a(g2
I13
I259
tp4491
a(g2
I13
I260
tp4492
a(g2
I13
I261
tp4493
a(g2
I13
I262
tp4494
a(g2
I13
I263
tp4495
a(g2
I13
I264
tp4496
a(g2
I13
I265
tp4497
a(g2
I13
I266
tp4498
a(g2
I13
I267
tp4499
a(g2
I13
I268
tp4500
a(g2
I14
I269
tp4501
a(g2
I14
I270
tp4502
a(g2
I14
I271
tp4503
a(g2
I14
I272
tp4504
a(g2
I14
I273
tp4505
a(g2
I14
I274
tp4506
a(g2
I14
I275
tp4507
a(g2
I14
I276
tp4508
a(g2
I14
I277
tp4509
a(g2
I14
I278
tp4510
a(g2
I14
I279
tp4511
a(g2
I14
I280
tp4512
a(g2
I14
I281
tp4513
a(g2
I14
I282
tp4514
a(g2
I14
I283
tp4515
a(g2
I14
I284
tp4516
a(g2
I14
I285
tp4517
a(g2
I14
I286
tp4518
a(g2
I14
I287
tp4519
a(g2
I15
I288
tp4520
a(g2
I15
I289
tp4521
a(g2
I15
I290
tp4522
a(g2
I15
I291
tp4523
a(g2
I15
I292
tp4524
a(g2
I15
I293
tp4525
a(g2
I15
I294
tp4526
a(g2
I15
I295
tp4527
a(g2
I15
I296
tp4528
a(g2
I15
I297
tp4529
a(g2
I15
I298
tp4530
a(g2
I15
I299
tp4531
a(g2
I15
I300
tp4532
a(g2
I15
I301
tp4533
a(g2
I15
I302
tp4534
a(g2
I15
I303
tp4535
a(g2
I16
I304
tp4536
a(g2
I16
I305
tp4537
a(g2
I16
I306
tp4538
a(g2
I16
I307
tp4539
a(g2
I16
I308
tp4540
a(g2
I16
I309
tp4541
a(g2
I16
I309
tp4542
a(g2
I16
I310
tp4543
a(g2
I16
I311
tp4544
a(g2
I16
I312
tp4545
a(g2
I16
I313
tp4546
a(g2
I16
I314
tp4547
a(g2
I16
I315
tp4548
a(g2
I16
I316
tp4549
a(g2
I16
I317
tp4550
a(g2
I16
I318
tp4551
a(g2
I16
I319
tp4552
a(g2
I16
I320
tp4553
a(g2
I16
I321
tp4554
a(g2
I17
I322
tp4555
a(g2
I17
I323
tp4556
a(g2
I17
I324
tp4557
a(g2
I17
I325
tp4558
a(g2
I17
I326
tp4559
a(g2
I17
I327
tp4560
a(g2
I17
I327
tp4561
a(g2
I17
I328
tp4562
a(g2
I17
I329
tp4563
a(g2
I17
I330
tp4564
a(g2
I17
I331
tp4565
a(g2
I17
I332
tp4566
a(g2
I17
I333
tp4567
a(g2
I17
I334
tp4568
a(g2
I17
I335
tp4569
a(g2
I17
I336
tp4570
a(g2
I17
I337
tp4571
a(g2
I17
I338
tp4572
a(g2
I17
I339
tp4573
a(g2
I17
I340
tp4574
a(g2
I18
I341
tp4575
a(g2
I18
I342
tp4576
a(g2
I18
I343
tp4577
a(g2
I18
I344
tp4578
a(g2
I18
I345
tp4579
a(g2
I18
I346
tp4580
a(g2
I18
I344
tp4581
a(g2
I18
I345
tp4582
a(g2
I18
I346
tp4583
a(g2
I18
I347
tp4584
a(g2
I18
I348
tp4585
a(g2
I18
I349
tp4586
a(g2
I18
I350
tp4587
a(g2
I18
I351
tp4588
a(g2
I18
I352
tp4589
a(g2
I18
I353
tp4590
a(g2
I18
I354
tp4591
a(g2
I18
I355
tp4592
a(g2
I18
I356
tp4593
a(g2
I18
I357
tp4594
a(g2
I18
I358
tp4595
a(g2
I18
I359
tp4596
a(g2
I18
I360
tp4597
a(g2
I18
I361
tp4598
a(g2
I18
I362
tp4599
a(g2
I19
I363
tp4600
a(g2
I19
I364
tp4601
a(g2
I19
I365
tp4602
a(g2
I19
I366
tp4603
a(g2
I19
I367
tp4604
a(g2
I19
I368
tp4605
a(g2
I19
I364
tp4606
a(g2
I19
I365
tp4607
a(g2
I19
I366
tp4608
a(g2
I19
I367
tp4609
a(g2
I19
I368
tp4610
a(g2
I19
I369
tp4611
a(g2
I19
I370
tp4612
a(g2
I19
I371
tp4613
a(g2
I19
I372
tp4614
a(g2
I19
I373
tp4615
a(g2
I19
I374
tp4616
a(g2
I19
I375
tp4617
a(g2
I19
I376
tp4618
a(g2
I19
I377
tp4619
a(g2
I20
I378
tp4620
a(g2
I20
I379
tp4621
a(g2
I20
I380
tp4622
a(g2
I20
I381
tp4623
a(g2
I20
I382
tp4624
a(g2
I20
I383
tp4625
a(g2
I20
I382
tp4626
a(g2
I20
I383
tp4627
a(g2
I20
I384
tp4628
a(g2
I20
I385
tp4629
a(g2
I20
I386
tp4630
a(g2
I20
I387
tp4631
a(g2
I20
I388
tp4632
a(g2
I21
I389
tp4633
a(g2
I21
I390
tp4634
a(g2
I21
I391
tp4635
a(g2
I21
I392
tp4636
a(g2
I21
I393
tp4637
a(g2
I21
I394
tp4638
a(g2
I21
I392
tp4639
a(g2
I21
I393
tp4640
a(g2
I21
I394
tp4641
a(g2
I21
I395
tp4642
a(g2
I21
I396
tp4643
a(g2
I21
I397
tp4644
a(g2
I21
I398
tp4645
a(g2
I21
I399
tp4646
a(g2
I21
I400
tp4647
a(g2
I21
I401
tp4648
a(g2
I21
I402
tp4649
a(g2
I22
I403
tp4650
a(g2
I22
I404
tp4651
a(g2
I22
I405
tp4652
a(g2
I22
I406
tp4653
a(g2
I22
I407
tp4654
a(g2
I22
I408
tp4655
a(g2
I22
I407
tp4656
a(g2
I22
I408
tp4657
a(g2
I22
I409
tp4658
a(g2
I22
I410
tp4659
a(g2
I22
I411
tp4660
a(g2
I22
I412
tp4661
a(g2
I22
I413
tp4662
a(g2
I22
I414
tp4663
a(g2
I22
I415
tp4664
a(g2
I22
I416
tp4665
a(g2
I22
I417
tp4666
a(g2
I22
I418
tp4667
a(g2
I22
I419
tp4668
a(g2
I23
I420
tp4669
a(g2
I23
I421
tp4670
a(g2
I23
I422
tp4671
a(g2
I23
I423
tp4672
a(g2
I23
I424
tp4673
a(g2
I23
I425
tp4674
a(g2
I23
I421
tp4675
a(g2
I23
I422
tp4676
a(g2
I23
I423
tp4677
a(g2
I23
I424
tp4678
a(g2
I23
I425
tp4679
a(g2
I23
I426
tp4680
a(g2
I23
I427
tp4681
a(g2
I23
I428
tp4682
a(g2
I23
I429
tp4683
a(g2
I23
I430
tp4684
a(g2
I24
I431
tp4685
a(g2
I24
I432
tp4686
a(g2
I24
I433
tp4687
a(g2
I24
I434
tp4688
a(g2
I24
I435
tp4689
a(g2
I24
I436
tp4690
a(g2
I24
I430
tp4691
a(g2
I24
I431
tp4692
a(g2
I24
I432
tp4693
a(g2
I24
I433
tp4694
a(g2
I24
I434
tp4695
a(g2
I24
I435
tp4696
a(g2
I24
I436
tp4697
a(g2
I24
I437
tp4698
a(g2
I24
I438
tp4699
a(g2
I24
I439
tp4700
a(g2
I24
I440
tp4701
a(g2
I24
I441
tp4702
a(g2
I24
I442
tp4703
a(g2
I24
I443
tp4704
a(g2
I25
I444
tp4705
a(g2
I25
I445
tp4706
a(g2
I25
I446
tp4707
a(g2
I25
I447
tp4708
a(g2
I25
I448
tp4709
a(g2
I25
I449
tp4710
a(g2
I25
I450
tp4711
a(g2
I25
I451
tp4712
a(g2
I25
I452
tp4713
a(g2
I25
I453
tp4714
a(g2
I25
I454
tp4715
a(g2
I25
I455
tp4716
a(g2
I25
I456
tp4717
a(g2
I25
I457
tp4718
a(g2
I25
I458
tp4719
a(g2
I25
I459
tp4720
a(g2
I25
I460
tp4721
a(g2
I25
I461
tp4722
a(g2
I25
I462
tp4723
a(g2
I25
I463
tp4724
a(g2
I25
I464
tp4725
a(g2
I26
I465
tp4726
a(g2
I26
I466
tp4727
a(g2
I26
I467
tp4728
a(g2
I26
I468
tp4729
a(g2
I26
I469
tp4730
a(g2
I26
I470
tp4731
a(g2
I26
I467
tp4732
a(g2
I26
I468
tp4733
a(g2
I26
I469
tp4734
a(g2
I26
I470
tp4735
a(g2
I26
I471
tp4736
a(g2
I26
I472
tp4737
a(g2
I26
I473
tp4738
a(g2
I26
I474
tp4739
a(g2
I26
I475
tp4740
a(g2
I27
I476
tp4741
a(g2
I27
I477
tp4742
a(g2
I27
I478
tp4743
a(g2
I27
I479
tp4744
a(g2
I27
I480
tp4745
a(g2
I27
I481
tp4746
a(g2
I27
I474
tp4747
a(g2
I27
I475
tp4748
a(g2
I27
I476
tp4749
a(g2
I27
I477
tp4750
a(g2
I27
I478
tp4751
a(g2
I27
I479
tp4752
a(g2
I27
I480
tp4753
a(g2
I27
I481
tp4754
a(g2
I27
I482
tp4755
a(g2
I27
I483
tp4756
a(g2
I27
I484
tp4757
a(g2
I27
I485
tp4758
a(g2
I27
I486
tp4759
a(g2
I27
I487
tp4760
a(g2
I27
I488
tp4761
a(g2
I27
I489
tp4762
a(g2
I27
I490
tp4763
a(g2
I28
I491
tp4764
a(g2
I28
I492
tp4765
a(g2
I28
I493
tp4766
a(g2
I28
I494
tp4767
a(g2
I28
I495
tp4768
a(g2
I28
I496
tp4769
a(g2
I28
I487
tp4770
a(g2
I28
I488
tp4771
a(g2
I28
I489
tp4772
a(g2
I28
I490
tp4773
a(g2
I28
I491
tp4774
a(g2
I28
I492
tp4775
a(g2
I28
I493
tp4776
a(g2
I28
I494
tp4777
a(g2
I28
I495
tp4778
a(g2
I28
I496
tp4779
a(g2
I28
I497
tp4780
a(g2
I28
I498
tp4781
a(g2
I28
I499
tp4782
a(g2
I29
I500
tp4783
a(g2
I29
I501
tp4784
a(g2
I29
I502
tp4785
a(g2
I29
I503
tp4786
a(g2
I29
I504
tp4787
a(g2
I29
I505
tp4788
a(g2
I29
I498
tp4789
a(g2
I29
I499
tp4790
a(g2
I29
I500
tp4791
a(g2
I29
I501
tp4792
a(g2
I29
I502
tp4793
a(g2
I29
I503
tp4794
a(g2
I29
I504
tp4795
a(g2
I29
I505
tp4796
a(g2
I29
I506
tp4797
a(g2
I29
I507
tp4798
a(g2
I29
I508
tp4799
a(g2
I29
I509
tp4800
a(g2
I29
I510
tp4801
a(g2
I29
I511
tp4802
a(g2
I29
I512
tp4803
a(g2
I29
I513
tp4804
a(g2
I29
I514
tp4805
a(g2
I29
I515
tp4806
a(g2
I29
I516
tp4807
a(g2
I30
I517
tp4808
a(g2
I30
I518
tp4809
a(g2
I30
I519
tp4810
a(g2
I30
I520
tp4811
a(g2
I30
I521
tp4812
a(g2
I30
I522
tp4813
a(g2
I30
I518
tp4814
a(g2
I30
I519
tp4815
a(g2
I30
I520
tp4816
a(g2
I30
I521
tp4817
a(g2
I30
I522
tp4818
a(g2
I30
I523
tp4819
a(g2
I30
I524
tp4820
a(g2
I30
I525
tp4821
a(g2
I30
I526
tp4822
a(g2
I30
I527
tp4823
a(g2
I30
I528
tp4824
a(g2
I30
I529
tp4825
a(g2
I30
I530
tp4826
a(g2
I30
I531
tp4827
a(g2
I30
I532
tp4828
a(g2
I30
I533
tp4829
a(g2
I30
I534
tp4830
a(g2
I30
I535
tp4831
a(g2
I30
I536
tp4832
a(g2
I30
I537
tp4833
a(g2
I30
I538
tp4834
a(g2
I31
I539
tp4835
a(g2
I31
I540
tp4836
a(g2
I31
I541
tp4837
a(g2
I31
I542
tp4838
a(g2
I31
I543
tp4839
a(g2
I31
I544
tp4840
a(g2
I31
I539
tp4841
a(g2
I31
I540
tp4842
a(g2
I31
I541
tp4843
a(g2
I31
I542
tp4844
a(g2
I31
I543
tp4845
a(g2
I31
I544
tp4846
a(g2
I31
I545
tp4847
a(g2
I31
I546
tp4848
a(g2
I31
I547
tp4849
a(g2
I31
I548
tp4850
a(g2
I31
I549
tp4851
a(g2
I31
I550
tp4852
a(g2
I31
I551
tp4853
a(g2
I31
I552
tp4854
a(g2
I31
I553
tp4855
a(g2
I31
I554
tp4856
a(g2
I32
I555
tp4857
a(g2
I32
I556
tp4858
a(g2
I32
I557
tp4859
a(g2
I32
I558
tp4860
a(g2
I32
I559
tp4861
a(g2
I32
I560
tp4862
a(g2
I32
I554
tp4863
a(g2
I32
I555
tp4864
a(g2
I32
I556
tp4865
a(g2
I32
I557
tp4866
a(g2
I32
I558
tp4867
a(g2
I32
I559
tp4868
a(g2
I32
I560
tp4869
a(g2
I32
I561
tp4870
a(g2
I32
I562
tp4871
a(g2
I32
I563
tp4872
a(g2
I32
I564
tp4873
a(g2
I32
I565
tp4874
a(g2
I32
I566
tp4875
a(g2
I32
I567
tp4876
a(g2
I32
I568
tp4877
a(g2
I33
I569
tp4878
a(g2
I33
I570
tp4879
a(g2
I33
I571
tp4880
a(g2
I33
I572
tp4881
a(g2
I33
I573
tp4882
a(g2
I33
I574
tp4883
a(g2
I33
I569
tp4884
a(g2
I33
I570
tp4885
a(g2
I33
I571
tp4886
a(g2
I33
I572
tp4887
a(g2
I33
I573
tp4888
a(g2
I33
I574
tp4889
a(g2
I33
I575
tp4890
a(g2
I33
I576
tp4891
a(g2
I33
I577
tp4892
a(g2
I33
I578
tp4893
a(g2
I33
I579
tp4894
a(g2
I33
I580
tp4895
a(g2
I33
I581
tp4896
a(g2
I33
I582
tp4897
a(g2
I33
I583
tp4898
a(g2
I33
I584
tp4899
a(g2
I34
I585
tp4900
a(g2
I34
I586
tp4901
a(g2
I34
I587
tp4902
a(g2
I34
I588
tp4903
a(g2
I34
I589
tp4904
a(g2
I34
I590
tp4905
a(g2
I34
I584
tp4906
a(g2
I34
I585
tp4907
a(g2
I34
I586
tp4908
a(g2
I34
I587
tp4909
a(g2
I34
I588
tp4910
a(g2
I34
I589
tp4911
a(g2
I34
I590
tp4912
a(g2
I34
I591
tp4913
a(g2
I34
I592
tp4914
a(g2
I34
I593
tp4915
a(g2
I34
I594
tp4916
a(g2
I34
I595
tp4917
a(g2
I34
I596
tp4918
a(g2
I34
I597
tp4919
a(g2
I34
I598
tp4920
a(g2
I34
I599
tp4921
a(g2
I34
I600
tp4922
a(g2
I34
I601
tp4923
a(g2
I34
I602
tp4924
a(g2
I34
I603
tp4925
a(g2
I35
I604
tp4926
a(g2
I35
I605
tp4927
a(g2
I35
I606
tp4928
a(g2
I35
I607
tp4929
a(g2
I35
I608
tp4930
a(g2
I35
I609
tp4931
a(g2
I35
I602
tp4932
a(g2
I35
I603
tp4933
a(g2
I35
I604
tp4934
a(g2
I35
I605
tp4935
a(g2
I35
I606
tp4936
a(g2
I35
I607
tp4937
a(g2
I35
I608
tp4938
a(g2
I35
I609
tp4939
a(g2
I35
I610
tp4940
a(g2
I35
I611
tp4941
a(g2
I35
I612
tp4942
a(g2
I35
I613
tp4943
a(g2
I35
I614
tp4944
a(g2
I35
I615
tp4945
a(g2
I35
I616
tp4946
a(g2
I36
I617
tp4947
a(g2
I36
I618
tp4948
a(g2
I36
I619
tp4949
a(g2
I36
I620
tp4950
a(g2
I36
I621
tp4951
a(g2
I36
I622
tp4952
a(g2
I36
I619
tp4953
a(g2
I36
I620
tp4954
a(g2
I36
I621
tp4955
a(g2
I36
I622
tp4956
a(g2
I36
I623
tp4957
a(g2
I36
I624
tp4958
a(g2
I36
I625
tp4959
a(g2
I36
I626
tp4960
a(g2
I36
I627
tp4961
a(g2
I36
I628
tp4962
a(g2
I36
I629
tp4963
a(g2
I36
I630
tp4964
a(g2
I36
I631
tp4965
a(g2
I36
I632
tp4966
a(g2
I36
I633
tp4967
a(g2
I36
I634
tp4968
a(g2
I36
I635
tp4969
a(g2
I36
I636
tp4970
a(g2
I37
I637
tp4971
a(g2
I37
I638
tp4972
a(g2
I37
I639
tp4973
a(g2
I37
I640
tp4974
a(g2
I37
I641
tp4975
a(g2
I37
I642
tp4976
a(g2
I37
I637
tp4977
a(g2
I37
I638
tp4978
a(g2
I37
I639
tp4979
a(g2
I37
I640
tp4980
a(g2
I37
I641
tp4981
a(g2
I37
I642
tp4982
a(g2
I37
I643
tp4983
a(g2
I37
I644
tp4984
a(g2
I37
I645
tp4985
a(g2
I37
I646
tp4986
a(g2
I37
I647
tp4987
a(g2
I37
I648
tp4988
a(g2
I37
I649
tp4989
a(g2
I37
I650
tp4990
a(g2
I37
I651
tp4991
a(g2
I37
I652
tp4992
a(g2
I37
I653
tp4993
a(g2
I38
I654
tp4994
a(g2
I38
I655
tp4995
a(g2
I38
I656
tp4996
a(g2
I38
I657
tp4997
a(g2
I38
I658
tp4998
a(g2
I38
I659
tp4999
a(g2
I38
I654
tp5000
a(g2
I38
I655
tp5001
a(g2
I38
I656
tp5002
a(g2
I38
I657
tp5003
a(g2
I38
I658
tp5004
a(g2
I38
I659
tp5005
a(g2
I38
I660
tp5006
a(g2
I38
I661
tp5007
a(g2
I38
I662
tp5008
a(g2
I38
I663
tp5009
a(g2
I38
I664
tp5010
a(g2
I39
I665
tp5011
a(g2
I39
I666
tp5012
a(g2
I39
I667
tp5013
a(g2
I39
I668
tp5014
a(g2
I39
I669
tp5015
a(g2
I39
I670
tp5016
a(g2
I39
I664
tp5017
a(g2
I39
I665
tp5018
a(g2
I39
I666
tp5019
a(g2
I39
I667
tp5020
a(g2
I39
I668
tp5021
a(g2
I39
I669
tp5022
a(g2
I39
I670
tp5023
a(g2
I39
I671
tp5024
a(g2
I39
I672
tp5025
a(g2
I39
I673
tp5026
a(g2
I39
I674
tp5027
a(g2
I39
I675
tp5028
a(g2
I39
I676
tp5029
a(g2
I39
I677
tp5030
a(g2
I40
I678
tp5031
a(g2
I40
I679
tp5032
a(g2
I40
I680
tp5033
a(g2
I40
I681
tp5034
a(g2
I40
I682
tp5035
a(g2
I40
I683
tp5036
a(g2
I40
I681
tp5037
a(g2
I40
I682
tp5038
a(g2
I40
I683
tp5039
a(g2
I40
I684
tp5040
a(g2
I40
I685
tp5041
a(g2
I40
I686
tp5042
a(g2
I40
I687
tp5043
a(g2
I40
I688
tp5044
a(g2
I40
I689
tp5045
a(g2
I40
I690
tp5046
a(g2
I40
I691
tp5047
a(g2
I40
I692
tp5048
a(g2
I40
I693
tp5049
a(g2
I40
I694
tp5050
a(g2
I40
I695
tp5051
a(g2
I40
I696
tp5052
a(g2
I40
I697
tp5053
a(g2
I40
I698
tp5054
a(g2
I41
I699
tp5055
a(g2
I41
I700
tp5056
a(g2
I41
I701
tp5057
a(g2
I41
I702
tp5058
a(g2
I41
I703
tp5059
a(g2
I41
I704
tp5060
a(g2
I41
I697
tp5061
a(g2
I41
I698
tp5062
a(g2
I41
I699
tp5063
a(g2
I41
I700
tp5064
a(g2
I41
I701
tp5065
a(g2
I41
I702
tp5066
a(g2
I41
I703
tp5067
a(g2
I41
I704
tp5068
a(g2
I41
I705
tp5069
a(g2
I41
I706
tp5070
a(g2
I41
I707
tp5071
a(g2
I41
I708
tp5072
a(g2
I41
I709
tp5073
a(g2
I41
I710
tp5074
a(g2
I41
I711
tp5075
a(g2
I42
I712
tp5076
a(g2
I42
I713
tp5077
a(g2
I42
I714
tp5078
a(g2
I42
I715
tp5079
a(g2
I42
I716
tp5080
a(g2
I42
I717
tp5081
a(g2
I42
I710
tp5082
a(g2
I42
I711
tp5083
a(g2
I42
I712
tp5084
a(g2
I42
I713
tp5085
a(g2
I42
I714
tp5086
a(g2
I42
I715
tp5087
a(g2
I42
I716
tp5088
a(g2
I42
I717
tp5089
a(g2
I43
I718
tp5090
a(g2
I43
I719
tp5091
a(g2
I43
I720
tp5092
a(g2
I43
I721
tp5093
a(g2
I43
I722
tp5094
a(g2
I43
I723
tp5095
a(g2
I43
I711
tp5096
a(g2
I43
I712
tp5097
a(g2
I43
I713
tp5098
a(g2
I43
I714
tp5099
a(g2
I43
I715
tp5100
a(g2
I43
I716
tp5101
a(g2
I43
I717
tp5102
a(g2
I43
I718
tp5103
a(g2
I43
I719
tp5104
a(g2
I44
I720
tp5105
a(g2
I44
I721
tp5106
a(g2
I44
I722
tp5107
a(g2
I44
I723
tp5108
a(g2
I44
I724
tp5109
a(g2
I44
I725
tp5110
a(g2
I44
I718
tp5111
a(g2
I44
I719
tp5112
a(g2
I44
I720
tp5113
a(g2
I44
I721
tp5114
a(g2
I44
I722
tp5115
a(g2
I44
I723
tp5116
a(g2
I44
I724
tp5117
a(g2
I44
I725
tp5118
a(g2
I44
I726
tp5119
a(g2
I44
I727
tp5120
a(g2
I44
I728
tp5121
a(g2
I44
I729
tp5122
a(g2
I45
I730
tp5123
a(g2
I45
I731
tp5124
a(g2
I45
I732
tp5125
a(g2
I45
I733
tp5126
a(g2
I45
I734
tp5127
a(g2
I45
I735
tp5128
a(g2
I45
I722
tp5129
a(g2
I45
I723
tp5130
a(g2
I45
I724
tp5131
a(g2
I45
I725
tp5132
a(g2
I45
I726
tp5133
a(g2
I45
I727
tp5134
a(g2
I45
I728
tp5135
a(g2
I45
I729
tp5136
a(g2
I45
I730
tp5137
a(g2
I45
I731
tp5138
a(g2
I45
I732
tp5139
a(g2
I45
I733
tp5140
a(g2
I45
I734
tp5141
a(g2
I45
I735
tp5142
a(g2
I45
I736
tp5143
a(g2
I45
I737
tp5144
a(g2
I45
I738
tp5145
a(g2
I45
I739
tp5146
a(g2
I45
I740
tp5147
a(g2
I46
I741
tp5148
a(g2
I46
I742
tp5149
a(g2
I46
I743
tp5150
a(g2
I46
I744
tp5151
a(g2
I46
I745
tp5152
a(g2
I46
I746
tp5153
a(g2
I46
I739
tp5154
a(g2
I46
I740
tp5155
a(g2
I46
I741
tp5156
a(g2
I46
I742
tp5157
a(g2
I46
I743
tp5158
a(g2
I46
I744
tp5159
a(g2
I46
I745
tp5160
a(g2
I46
I746
tp5161
a(g2
I46
I747
tp5162
a(g2
I46
I748
tp5163
a(g2
I46
I749
tp5164
a(g2
I46
I750
tp5165
a(g2
I46
I751
tp5166
a(g2
I46
I752
tp5167
a(g2
I46
I753
tp5168
a(g2
I46
I754
tp5169
a(g2
I46
I755
tp5170
a(g2
I46
I756
tp5171
a(g2
I46
I757
tp5172
a(g2
I47
I758
tp5173
a(g2
I47
I759
tp5174
a(g2
I47
I760
tp5175
a(g2
I47
I761
tp5176
a(g2
I47
I762
tp5177
a(g2
I47
I763
tp5178
a(g2
I47
I756
tp5179
a(g2
I47
I757
tp5180
a(g2
I47
I758
tp5181
a(g2
I47
I759
tp5182
a(g2
I47
I760
tp5183
a(g2
I47
I761
tp5184
a(g2
I47
I762
tp5185
a(g2
I47
I763
tp5186
a(g2
I47
I764
tp5187
a(g2
I47
I765
tp5188
a(g2
I47
I766
tp5189
a(g2
I47
I767
tp5190
a(g2
I47
I768
tp5191
a(g2
I47
I769
tp5192
a(g2
I47
I770
tp5193
a(g2
I47
I771
tp5194
a(g2
I47
I772
tp5195
a(g2
I48
I773
tp5196
a(g2
I48
I774
tp5197
a(g2
I48
I775
tp5198
a(g2
I48
I776
tp5199
a(g2
I48
I777
tp5200
a(g2
I48
I778
tp5201
a(g2
I48
I761
tp5202
a(g2
I48
I762
tp5203
a(g2
I48
I763
tp5204
a(g2
I48
I764
tp5205
a(g2
I48
I765
tp5206
a(g2
I48
I766
tp5207
a(g2
I48
I767
tp5208
a(g2
I48
I768
tp5209
a(g2
I48
I769
tp5210
a(g2
I48
I770
tp5211
a(g2
I48
I771
tp5212
a(g2
I48
I772
tp5213
a(g2
I48
I773
tp5214
a(g2
I48
I774
tp5215
a(g2
I48
I775
tp5216
a(g2
I48
I776
tp5217
a(g2
I48
I777
tp5218
a(g2
I49
I778
tp5219
a(g2
I49
I779
tp5220
a(g2
I49
I780
tp5221
a(g2
I49
I781
tp5222
a(g2
I49
I782
tp5223
a(g2
I49
I783
tp5224
a(g2
I49
I775
tp5225
a(g2
I49
I776
tp5226
a(g2
I49
I777
tp5227
a(g2
I49
I778
tp5228
a(g2
I49
I779
tp5229
a(g2
I49
I780
tp5230
a(g2
I49
I781
tp5231
a(g2
I49
I782
tp5232
a(g2
I49
I783
tp5233
a(g2
I49
I784
tp5234
a(g2
I49
I785
tp5235
a(g2
I49
I786
tp5236
a(g2
I49
I787
tp5237
a(g2
I49
I788
tp5238
a(g2
I50
I789
tp5239
a(g2
I50
I790
tp5240
a(g2
I50
I791
tp5241
a(g2
I50
I792
tp5242
a(g2
I50
I793
tp5243
a(g2
I50
I794
tp5244
a(g2
I50
I781
tp5245
a(g2
I50
I782
tp5246
a(g2
I50
I783
tp5247
a(g2
I50
I784
tp5248
a(g2
I50
I785
tp5249
a(g2
I50
I786
tp5250
a(g2
I50
I787
tp5251
a(g2
I50
I788
tp5252
a(g2
I50
I789
tp5253
a(g2
I50
I790
tp5254
a(g2
I50
I791
tp5255
a(g2
I50
I792
tp5256
a(g2
I50
I793
tp5257
a(g2
I50
I794
tp5258
a(g2
I50
I795
tp5259
a(g2
I51
I796
tp5260
a(g2
I51
I797
tp5261
a(g2
I51
I798
tp5262
a(g2
I51
I799
tp5263
a(g2
I51
I800
tp5264
a(g2
I51
I801
tp5265
a(g2
I51
I793
tp5266
a(g2
I51
I794
tp5267
a(g2
I51
I795
tp5268
a(g2
I51
I796
tp5269
a(g2
I51
I797
tp5270
a(g2
I51
I798
tp5271
a(g2
I51
I799
tp5272
a(g2
I51
I800
tp5273
a(g2
I51
I801
tp5274
a(g2
I51
I802
tp5275
a(g2
I51
I803
tp5276
a(g2
I51
I804
tp5277
a(g2
I51
I805
tp5278
a(g2
I51
I806
tp5279
a(g2
I51
I807
tp5280
a(g2
I51
I808
tp5281
a(g2
I51
I809
tp5282
a(g2
I52
I810
tp5283
a(g2
I52
I811
tp5284
a(g2
I52
I812
tp5285
a(g2
I52
I813
tp5286
a(g2
I52
I814
tp5287
a(g2
I52
I815
tp5288
a(g2
I52
I798
tp5289
a(g2
I52
I799
tp5290
a(g2
I52
I800
tp5291
a(g2
I52
I801
tp5292
a(g2
I52
I802
tp5293
a(g2
I52
I803
tp5294
a(g2
I52
I804
tp5295
a(g2
I52
I805
tp5296
a(g2
I52
I806
tp5297
a(g2
I52
I807
tp5298
a(g2
I52
I808
tp5299
a(g2
I52
I809
tp5300
a(g2
I53
I810
tp5301
a(g2
I53
I811
tp5302
a(g2
I53
I812
tp5303
a(g2
I53
I813
tp5304
a(g2
I53
I814
tp5305
a(g2
I53
I815
tp5306
a(g2
I53
I808
tp5307
a(g2
I53
I809
tp5308
a(g2
I53
I810
tp5309
a(g2
I53
I811
tp5310
a(g2
I53
I812
tp5311
a(g2
I53
I813
tp5312
a(g2
I53
I814
tp5313
a(g2
I53
I815
tp5314
a(g2
I53
I816
tp5315
a(g2
I53
I817
tp5316
a(g2
I53
I818
tp5317
a(g2
I53
I819
tp5318
a(g2
I53
I820
tp5319
a(g2
I53
I821
tp5320
a(g2
I53
I822
tp5321
a(g2
I53
I823
tp5322
a(g2
I54
I824
tp5323
a(g2
I54
I825
tp5324
a(g2
I54
I826
tp5325
a(g2
I54
I827
tp5326
a(g2
I54
I828
tp5327
a(g2
I54
I829
tp5328
a(g2
I54
I818
tp5329
a(g2
I54
I819
tp5330
a(g2
I54
I820
tp5331
a(g2
I54
I821
tp5332
a(g2
I54
I822
tp5333
a(g2
I54
I823
tp5334
a(g2
I54
I824
tp5335
a(g2
I54
I825
tp5336
a(g2
I54
I826
tp5337
a(g2
I54
I827
tp5338
a(g2
I54
I828
tp5339
a(g2
I54
I829
tp5340
a(g2
I54
I830
tp5341
a(g2
I54
I831
tp5342
a(g2
I55
I832
tp5343
a(g2
I55
I833
tp5344
a(g2
I55
I834
tp5345
a(g2
I55
I835
tp5346
a(g2
I55
I836
tp5347
a(g2
I55
I837
tp5348
a(g2
I55
I829
tp5349
a(g2
I55
I830
tp5350
a(g2
I55
I831
tp5351
a(g2
I55
I832
tp5352
a(g2
I55
I833
tp5353
a(g2
I55
I834
tp5354
a(g2
I55
I835
tp5355
a(g2
I55
I836
tp5356
a(g2
I55
I837
tp5357
a(g2
I55
I838
tp5358
a(g2
I55
I839
tp5359
a(g2
I55
I840
tp5360
a(g2
I56
I841
tp5361
a(g2
I56
I842
tp5362
a(g2
I56
I843
tp5363
a(g2
I56
I844
tp5364
a(g2
I56
I845
tp5365
a(g2
I56
I846
tp5366
a(g2
I56
I835
tp5367
a(g2
I56
I836
tp5368
a(g2
I56
I837
tp5369
a(g2
I56
I838
tp5370
a(g2
I56
I839
tp5371
a(g2
I56
I840
tp5372
a(g2
I56
I841
tp5373
a(g2
I56
I842
tp5374
a(g2
I56
I843
tp5375
a(g2
I56
I844
tp5376
a(g2
I56
I845
tp5377
a(g2
I56
I846
tp5378
a(g2
I56
I847
tp5379
a(g2
I56
I848
tp5380
a(g2
I56
I849
tp5381
a(g2
I56
I850
tp5382
a(g2
I56
I851
tp5383
a(g2
I57
I852
tp5384
a(g2
I57
I853
tp5385
a(g2
I57
I854
tp5386
a(g2
I57
I855
tp5387
a(g2
I57
I856
tp5388
a(g2
I57
I857
tp5389
a(g2
I57
I844
tp5390
a(g2
I57
I845
tp5391
a(g2
I57
I846
tp5392
a(g2
I57
I847
tp5393
a(g2
I57
I848
tp5394
a(g2
I57
I849
tp5395
a(g2
I57
I850
tp5396
a(g2
I57
I851
tp5397
a(g2
I57
I852
tp5398
a(g2
I57
I853
tp5399
a(g2
I57
I854
tp5400
a(g2
I57
I855
tp5401
a(g2
I57
I856
tp5402
a(g2
I57
I857
tp5403
a(g2
I58
I858
tp5404
a(g2
I58
I859
tp5405
a(g2
I58
I860
tp5406
a(g2
I58
I861
tp5407
a(g2
I58
I862
tp5408
a(g2
I58
I863
tp5409
a(g2
I58
I846
tp5410
a(g2
I58
I847
tp5411
a(g2
I58
I848
tp5412
a(g2
I58
I849
tp5413
a(g2
I58
I850
tp5414
a(g2
I58
I851
tp5415
a(g2
I58
I852
tp5416
a(g2
I58
I853
tp5417
a(g2
I58
I854
tp5418
a(g2
I58
I855
tp5419
a(g2
I58
I856
tp5420
a(g2
I58
I857
tp5421
a(g2
I58
I858
tp5422
a(g2
I58
I859
tp5423
a(g2
I58
I860
tp5424
a(g2
I58
I861
tp5425
a(g2
I58
I862
tp5426
a(g2
I58
I863
tp5427
a(g2
I58
I864
tp5428
a(g2
I58
I865
tp5429
a(g2
I58
I866
tp5430
a(g2
I58
I867
tp5431
a(g2
I59
I868
tp5432
a(g2
I59
I869
tp5433
a(g2
I59
I870
tp5434
a(g2
I59
I871
tp5435
a(g2
I59
I872
tp5436
a(g2
I59
I873
tp5437
a(g2
I59
I857
tp5438
a(g2
I59
I858
tp5439
a(g2
I59
I859
tp5440
a(g2
I59
I860
tp5441
a(g2
I59
I861
tp5442
a(g2
I59
I862
tp5443
a(g2
I59
I863
tp5444
a(g2
I59
I864
tp5445
a(g2
I59
I865
tp5446
a(g2
I59
I866
tp5447
a(g2
I59
I867
tp5448
a(g2
I59
I868
tp5449
a(g2
I59
I869
tp5450
a(g2
I59
I870
tp5451
a(g2
I60
I871
tp5452
a(g2
I60
I872
tp5453
a(g2
I60
I873
tp5454
a(g2
I60
I874
tp5455
a(g2
I60
I875
tp5456
a(g2
I60
I876
tp5457
a(g2
I60
I865
tp5458
a(g2
I60
I866
tp5459
a(g2
I60
I867
tp5460
a(g2
I60
I868
tp5461
a(g2
I60
I869
tp5462
a(g2
I60
I870
tp5463
a(g2
I60
I871
tp5464
a(g2
I60
I872
tp5465
a(g2
I60
I873
tp5466
a(g2
I60
I874
tp5467
a(g2
I60
I875
tp5468
a(g2
I60
I876
tp5469
a(g2
I60
I877
tp5470
a(g2
I61
I878
tp5471
a(g2
I61
I879
tp5472
a(g2
I61
I880
tp5473
a(g2
I61
I881
tp5474
a(g2
I61
I882
tp5475
a(g2
I61
I883
tp5476
a(g2
I61
I865
tp5477
a(g2
I61
I866
tp5478
a(g2
I61
I867
tp5479
a(g2
I61
I868
tp5480
a(g2
I61
I869
tp5481
a(g2
I61
I870
tp5482
a(g2
I61
I871
tp5483
a(g2
I61
I872
tp5484
a(g2
I61
I873
tp5485
a(g2
I61
I874
tp5486
a(g2
I61
I875
tp5487
a(g2
I61
I876
tp5488
a(g2
I62
I877
tp5489
a(g2
I62
I878
tp5490
a(g2
I62
I879
tp5491
a(g2
I62
I880
tp5492
a(g2
I62
I881
tp5493
a(g2
I62
I882
tp5494
a(g2
I62
I875
tp5495
a(g2
I62
I876
tp5496
a(g2
I62
I877
tp5497
a(g2
I62
I878
tp5498
a(g2
I62
I879
tp5499
a(g2
I62
I880
tp5500
a(g2
I62
I881
tp5501
a(g2
I62
I882
tp5502
a(g2
I62
I883
tp5503
a(g2
I62
I884
tp5504
a(g2
I62
I885
tp5505
a(g2
I62
I886
tp5506
a(g2
I62
I887
tp5507
a(g2
I62
I888
tp5508
a(g2
I62
I889
tp5509
a(g2
I63
I890
tp5510
a(g2
I63
I891
tp5511
a(g2
I63
I892
tp5512
a(g2
I63
I893
tp5513
a(g2
I63
I894
tp5514
a(g2
I63
I895
tp5515
a(g2
I63
I882
tp5516
a(g2
I63
I883
tp5517
a(g2
I63
I884
tp5518
a(g2
I63
I885
tp5519
a(g2
I63
I886
tp5520
a(g2
I63
I887
tp5521
a(g2
I63
I888
tp5522
a(g2
I63
I889
tp5523
a(g2
I63
I890
tp5524
a(g2
I63
I891
tp5525
a(g2
I63
I892
tp5526
a(g2
I63
I893
tp5527
a(g2
I64
I894
tp5528
a(g2
I64
I895
tp5529
a(g2
I64
I896
tp5530
a(g2
I64
I897
tp5531
a(g2
I64
I898
tp5532
a(g2
I64
I899
tp5533
a(g2
I64
I892
tp5534
a(g2
I64
I893
tp5535
a(g2
I64
I894
tp5536
a(g2
I64
I895
tp5537
a(g2
I64
I896
tp5538
a(g2
I64
I897
tp5539
a(g2
I64
I898
tp5540
a(g2
I64
I899
tp5541
a(g2
I64
I900
tp5542
a(g2
I64
I901
tp5543
a(g2
I64
I902
tp5544
a(g2
I64
I903
tp5545
a(g2
I64
I904
tp5546
a(g2
I64
I905
tp5547
a(g2
I65
I906
tp5548
a(g2
I65
I907
tp5549
a(g2
I65
I908
tp5550
a(g2
I65
I909
tp5551
a(g2
I65
I910
tp5552
a(g2
I65
I911
tp5553
a(g2
I65
I902
tp5554
a(g2
I65
I903
tp5555
a(g2
I65
I904
tp5556
a(g2
I65
I905
tp5557
a(g2
I65
I906
tp5558
a(g2
I65
I907
tp5559
a(g2
I65
I908
tp5560
a(g2
I65
I909
tp5561
a(g2
I65
I910
tp5562
a(g2
I65
I911
tp5563
a(g2
I66
I912
tp5564
a(g2
I66
I913
tp5565
a(g2
I66
I914
tp5566
a(g2
I66
I915
tp5567
a(g2
I66
I916
tp5568
a(g2
I66
I917
tp5569
a(g2
I66
I904
tp5570
a(g2
I66
I905
tp5571
a(g2
I66
I906
tp5572
a(g2
I66
I907
tp5573
a(g2
I66
I908
tp5574
a(g2
I66
I909
tp5575
a(g2
I66
I910
tp5576
a(g2
I66
I911
tp5577
a(g2
I66
I912
tp5578
a(g2
I66
I913
tp5579
a(g2
I66
I914
tp5580
a(g2
I67
I915
tp5581
a(g2
I67
I916
tp5582
a(g2
I67
I917
tp5583
a(g2
I67
I918
tp5584
a(g2
I67
I919
tp5585
a(g2
I67
I920
tp5586
a(g2
I67
I912
tp5587
a(g2
I67
I913
tp5588
a(g2
I67
I914
tp5589
a(g2
I67
I915
tp5590
a(g2
I67
I916
tp5591
a(g2
I67
I917
tp5592
a(g2
I67
I918
tp5593
a(g2
I67
I919
tp5594
a(g2
I67
I920
tp5595
a(g2
I67
I921
tp5596
a(g2
I67
I922
tp5597
a(g2
I67
I923
tp5598
a(g2
I67
I924
tp5599
a(g2
I67
I925
tp5600
a(g2
I67
I926
tp5601
a(g2
I67
I927
tp5602
a(g2
I67
I928
tp5603
a(g2
I67
I929
tp5604
a(g2
I68
I930
tp5605
a(g2
I68
I931
tp5606
a(g2
I68
I932
tp5607
a(g2
I68
I933
tp5608
a(g2
I68
I934
tp5609
a(g2
I68
I935
tp5610
a(g2
I68
I923
tp5611
a(g2
I68
I924
tp5612
a(g2
I68
I925
tp5613
a(g2
I68
I926
tp5614
a(g2
I68
I927
tp5615
a(g2
I68
I928
tp5616
a(g2
I68
I929
tp5617
a(g2
I68
I930
tp5618
a(g2
I68
I931
tp5619
a(g2
I68
I932
tp5620
a(g2
I68
I933
tp5621
a(g2
I68
I934
tp5622
a(g2
I68
I935
tp5623
a(g2
I68
I936
tp5624
a(g2
I68
I937
tp5625
a(g2
I68
I938
tp5626
a(g2
I68
I939
tp5627
a(g2
I68
I940
tp5628
a(g2
I69
I941
tp5629
a(g2
I69
I942
tp5630
a(g2
I69
I943
tp5631
a(g2
I69
I944
tp5632
a(g2
I69
I945
tp5633
a(g2
I69
I946
tp5634
a(g2
I69
I938
tp5635
a(g2
I69
I939
tp5636
a(g2
I69
I940
tp5637
a(g2
I69
I941
tp5638
a(g2
I69
I942
tp5639
a(g2
I69
I943
tp5640
a(g2
I69
I944
tp5641
a(g2
I69
I945
tp5642
a(g2
I69
I946
tp5643
a(g2
I69
I947
tp5644
a(g2
I69
I948
tp5645
a(g2
I69
I949
tp5646
a(g2
I69
I950
tp5647
a(g2
I69
I951
tp5648
a(g2
I69
I952
tp5649
a(g2
I69
I953
tp5650
a(g2
I69
I954
tp5651
a(g2
I69
I955
tp5652
a(g2
I69
I956
tp5653
a(g2
I69
I957
tp5654
a(g2
I70
I958
tp5655
a(g2
I70
I959
tp5656
a(g2
I70
I960
tp5657
a(g2
I70
I961
tp5658
a(g2
I70
I962
tp5659
a(g2
I70
I963
tp5660
a(g2
I70
I945
tp5661
a(g2
I70
I946
tp5662
a(g2
I70
I947
tp5663
a(g2
I70
I948
tp5664
a(g2
I70
I949
tp5665
a(g2
I70
I950
tp5666
a(g2
I70
I951
tp5667
a(g2
I70
I952
tp5668
a(g2
I70
I953
tp5669
a(g2
I70
I954
tp5670
a(g2
I70
I955
tp5671
a(g2
I70
I956
tp5672
a(g2
I70
I957
tp5673
a(g2
I70
I958
tp5674
a(g2
I70
I959
tp5675
a(g2
I71
I960
tp5676
a(g2
I71
I961
tp5677
a(g2
I71
I962
tp5678
a(g2
I71
I963
tp5679
a(g2
I71
I964
tp5680
a(g2
I71
I965
tp5681
a(g2
I71
I950
tp5682
a(g2
I71
I951
tp5683
a(g2
I71
I952
tp5684
a(g2
I71
I953
tp5685
a(g2
I71
I954
tp5686
a(g2
I71
I955
tp5687
a(g2
I71
I956
tp5688
a(g2
I71
I957
tp5689
a(g2
I71
I958
tp5690
a(g2
I71
I959
tp5691
a(g2
I71
I960
tp5692
a(g2
I71
I961
tp5693
a(g2
I71
I962
tp5694
a(g2
I71
I963
tp5695
a(g2
I71
I964
tp5696
a(g2
I71
I965
tp5697
a(g2
I72
I966
tp5698
a(g2
I72
I967
tp5699
a(g2
I72
I968
tp5700
a(g2
I72
I969
tp5701
a(g2
I72
I970
tp5702
a(g2
I72
I971
tp5703
a(g2
I72
I958
tp5704
a(g2
I72
I959
tp5705
a(g2
I72
I960
tp5706
a(g2
I72
I961
tp5707
a(g2
I72
I962
tp5708
a(g2
I72
I963
tp5709
a(g2
I72
I964
tp5710
a(g2
I72
I965
tp5711
a(g2
I72
I966
tp5712
a(g2
I72
I967
tp5713
a(g2
I72
I968
tp5714
a(g2
I72
I969
tp5715
a(g2
I72
I970
tp5716
a(g2
I72
I971
tp5717
a(g2
I72
I972
tp5718
a(g2
I72
I973
tp5719
a(g2
I72
I974
tp5720
a(g2
I72
I975
tp5721
a(g2
I72
I976
tp5722
a(g2
I73
I977
tp5723
a(g2
I73
I978
tp5724
a(g2
I73
I979
tp5725
a(g2
I73
I980
tp5726
a(g2
I73
I981
tp5727
a(g2
I73
I982
tp5728
a(g2
I73
I965
tp5729
a(g2
I73
I966
tp5730
a(g2
I73
I967
tp5731
a(g2
I73
I968
tp5732
a(g2
I73
I969
tp5733
a(g2
I73
I970
tp5734
a(g2
I73
I971
tp5735
a(g2
I73
I972
tp5736
a(g2
I73
I973
tp5737
a(g2
I73
I974
tp5738
a(g2
I73
I975
tp5739
a(g2
I73
I976
tp5740
a(g2
I73
I977
tp5741
a(g2
I74
I978
tp5742
a(g2
I74
I979
tp5743
a(g2
I74
I980
tp5744
a(g2
I74
I981
tp5745
a(g2
I74
I982
tp5746
a(g2
I74
I983
tp5747
a(g2
I74
I966
tp5748
a(g2
I74
I967
tp5749
a(g2
I74
I968
tp5750
a(g2
I74
I969
tp5751
a(g2
I74
I970
tp5752
a(g2
I74
I971
tp5753
a(g2
I74
I972
tp5754
a(g2
I74
I973
tp5755
a(g2
I74
I974
tp5756
a(g2
I74
I975
tp5757
a(g2
I74
I976
tp5758
a(g2
I74
I977
tp5759
a(g2
I74
I978
tp5760
a(g2
I74
I979
tp5761
a(g2
I75
I980
tp5762
a(g2
I75
I981
tp5763
a(g2
I75
I982
tp5764
a(g2
I75
I983
tp5765
a(g2
I75
I984
tp5766
a(g2
I75
I985
tp5767
a(g2
I75
I969
tp5768
a(g2
I75
I970
tp5769
a(g2
I75
I971
tp5770
a(g2
I75
I972
tp5771
a(g2
I75
I973
tp5772
a(g2
I75
I974
tp5773
a(g2
I75
I975
tp5774
a(g2
I75
I976
tp5775
a(g2
I75
I977
tp5776
a(g2
I75
I978
tp5777
a(g2
I75
I979
tp5778
a(g2
I75
I980
tp5779
a(g2
I75
I981
tp5780
a(g2
I75
I982
tp5781
a(g2
I75
I983
tp5782
a(g2
I75
I984
tp5783
a(g2
I75
I985
tp5784
a(g2
I75
I986
tp5785
a(g2
I75
I987
tp5786
a(g2
I75
I988
tp5787
a(g2
I75
I989
tp5788
a(g2
I75
I990
tp5789
a(g2
I76
I991
tp5790
a(g2
I76
I992
tp5791
a(g2
I76
I993
tp5792
a(g2
I76
I994
tp5793
a(g2
I76
I995
tp5794
a(g2
I76
I996
tp5795
a(g2
I76
I971
tp5796
a(g2
I76
I972
tp5797
a(g2
I76
I973
tp5798
a(g2
I76
I974
tp5799
a(g2
I76
I975
tp5800
a(g2
I76
I976
tp5801
a(g2
I76
I977
tp5802
a(g2
I76
I978
tp5803
a(g2
I76
I979
tp5804
a(g2
I76
I980
tp5805
a(g2
I76
I981
tp5806
a(g2
I76
I982
tp5807
a(g2
I76
I983
tp5808
a(g2
I76
I984
tp5809
a(g2
I76
I985
tp5810
a(g2
I76
I986
tp5811
a(g2
I77
I987
tp5812
a(g2
I77
I988
tp5813
a(g2
I77
I989
tp5814
a(g2
I77
I990
tp5815
a(g2
I77
I991
tp5816
a(g2
I77
I992
tp5817
a(g2
I77
I977
tp5818
a(g2
I77
I978
tp5819
a(g2
I77
I979
tp5820
a(g2
I77
I980
tp5821
a(g2
I77
I981
tp5822
a(g2
I77
I982
tp5823
a(g2
I77
I983
tp5824
a(g2
I77
I984
tp5825
a(g2
I77
I985
tp5826
a(g2
I77
I986
tp5827
a(g2
I77
I987
tp5828
a(g2
I77
I988
tp5829
a(g2
I77
I989
tp5830
a(g2
I77
I990
tp5831
a(g2
I77
I991
tp5832
a(g2
I78
I992
tp5833
a(g2
I78
I993
tp5834
a(g2
I78
I994
tp5835
a(g2
I78
I995
tp5836
a(g2
I78
I996
tp5837
a(g2
I78
I997
tp5838
a(g2
I78
I977
tp5839
a(g2
I78
I978
tp5840
a(g2
I78
I979
tp5841
a(g2
I78
I980
tp5842
a(g2
I78
I981
tp5843
a(g2
I78
I982
tp5844
a(g2
I78
I983
tp5845
a(g2
I78
I984
tp5846
a(g2
I78
I985
tp5847
a(g2
I78
I986
tp5848
a(g2
I79
I987
tp5849
a(g2
I79
I988
tp5850
a(g2
I79
I989
tp5851
a(g2
I79
I990
tp5852
a(g2
I79
I991
tp5853
a(g2
I79
I992
tp5854
a(g2
I79
I977
tp5855
a(g2
I79
I978
tp5856
a(g2
I79
I979
tp5857
a(g2
I79
I980
tp5858
a(g2
I79
I981
tp5859
a(g2
I79
I982
tp5860
a(g2
I79
I983
tp5861
a(g2
I79
I984
tp5862
a(g2
I79
I985
tp5863
a(g2
I79
I986
tp5864
a(g2
I79
I987
tp5865
a(g2
I79
I988
tp5866
a(g2
I79
I989
tp5867
a(g2
I79
I990
tp5868
a(g2
I80
I991
tp5869
a(g2
I80
I992
tp5870
a(g2
I80
I993
tp5871
a(g2
I80
I994
tp5872
a(g2
I80
I995
tp5873
a(g2
I80
I996
tp5874
a(g2
I80
I978
tp5875
a(g2
I80
I979
tp5876
a(g2
I80
I980
tp5877
a(g2
I80
I981
tp5878
a(g2
I80
I982
tp5879
a(g2
I80
I983
tp5880
a(g2
I80
I984
tp5881
a(g2
I80
I985
tp5882
a(g2
I80
I986
tp5883
a(g2
I80
I987
tp5884
a(g2
I80
I988
tp5885
a(g2
I80
I989
tp5886
a(g2
I80
I990
tp5887
a(g2
I80
I991
tp5888
a(g2
I80
I992
tp5889
a(g2
I80
I993
tp5890
a(g2
I81
I994
tp5891
a(g2
I81
I995
tp5892
a(g2
I81
I996
tp5893
a(g2
I81
I997
tp5894
a(g2
I81
I998
tp5895
a(g2
I81
I999
tp5896
a(g2
I81
I979
tp5897
a(g2
I81
I980
tp5898
a(g2
I81
I981
tp5899
a(g2
I81
I982
tp5900
a(g2
I81
I983
tp5901
a(g2
I81
I984
tp5902
a(g2
I81
I985
tp5903
a(g2
I81
I986
tp5904
a(g2
I81
I987
tp5905
a(g2
I81
I988
tp5906
a(g2
I81
I989
tp5907
a(g2
I82
I990
tp5908
a(g2
I82
I991
tp5909
a(g2
I82
I992
tp5910
a(g2
I82
I993
tp5911
a(g2
I82
I994
tp5912
a(g2
I82
I995
tp5913
a(g2
I82
I978
tp5914
a(g2
I82
I979
tp5915
a(g2
I82
I980
tp5916
a(g2
I82
I981
tp5917
a(g2
I82
I982
tp5918
a(g2
I82
I983
tp5919
a(g2
I82
I984
tp5920
a(g2
I82
I985
tp5921
a(g2
I82
I986
tp5922
a(g2
I82
I987
tp5923
a(g2
I82
I988
tp5924
a(g2
I83
I989
tp5925
a(g2
I83
I990
tp5926
a(g2
I83
I991
tp5927
a(g2
I83
I992
tp5928
a(g2
I83
I993
tp5929
a(g2
I83
I994
tp5930
a(g2
I83
I980
tp5931
a(g2
I83
I981
tp5932
a(g2
I83
I982
tp5933
a(g2
I83
I983
tp5934
a(g2
I83
I984
tp5935
a(g2
I83
I985
tp5936
a(g2
I83
I986
tp5937
a(g2
I83
I987
tp5938
a(g2
I83
I988
tp5939
a(g2
I83
I989
tp5940
a(g2
I83
I990
tp5941
a(g2
I83
I991
tp5942
a(g2
I83
I992
tp5943
a(g2
I83
I993
tp5944
a(g2
I83
I994
tp5945
a(g2
I83
I995
tp5946
a(g2
I84
I996
tp5947
a(g2
I84
I997
tp5948
a(g2
I84
I998
tp5949
a(g2
I84
I999
tp5950
a(g2
I84
I1000
tp5951
a(g2
I84
I1001
tp5952
a(g2
I84
I982
tp5953
a(g2
I84
I983
tp5954
a(g2
I84
I984
tp5955
a(g2
I84
I985
tp5956
a(g2
I84
I986
tp5957
a(g2
I84
I987
tp5958
a(g2
I84
I988
tp5959
a(g2
I84
I989
tp5960
a(g2
I84
I990
tp5961
a(g2
I84
I991
tp5962
a(g2
I84
I992
tp5963
a(g2
I84
I993
tp5964
a(g2
I84
I994
tp5965
a(g2
I84
I995
tp5966
a(g2
I84
I996
tp5967
a(g2
I84
I997
tp5968
a(g2
I84
I998
tp5969
a(g2
I85
I999
tp5970
a(g2
I85
I1000
tp5971
a(g2
I85
I1001
tp5972
a(g2
I85
I1002
tp5973
a(g2
I85
I1003
tp5974
a(g2
I85
I1004
tp5975
a(g2
I85
I988
tp5976
a(g2
I85
I989
tp5977
a(g2
I85
I990
tp5978
a(g2
I85
I991
tp5979
a(g2
I85
I992
tp5980
a(g2
I85
I993
tp5981
a(g2
I85
I994
tp5982
a(g2
I85
I995
tp5983
a(g2
I85
I996
tp5984
a(g2
I85
I997
tp5985
a(g2
I85
I998
tp5986
a(g2
I85
I999
tp5987
a(g2
I85
I1000
tp5988
a(g2
I85
I1001
tp5989
a(g2
I85
I1002
tp5990
a(g2
I85
I1003
tp5991
a(g2
I86
I1004
tp5992
a(g2
I86
I1005
tp5993
a(g2
I86
I1006
tp5994
a(g2
I86
I1007
tp5995
a(g2
I86
I1008
tp5996
a(g2
I86
I1009
tp5997
a(g2
I86
I983
tp5998
a(g2
I86
I984
tp5999
a(g2
I86
I985
tp6000
a(g2
I86
I986
tp6001
a(g2
I86
I987
tp6002
a(g2
I86
I988
tp6003
a(g2
I86
I989
tp6004
a(g2
I86
I990
tp6005
a(g2
I87
I991
tp6006
a(g2
I87
I992
tp6007
a(g2
I87
I993
tp6008
a(g2
I87
I994
tp6009
a(g2
I87
I995
tp6010
a(g2
I87
I996
tp6011
a(g2
I87
I980
tp6012
a(g2
I87
I981
tp6013
a(g2
I87
I982
tp6014
a(g2
I87
I983
tp6015
a(g2
I87
I984
tp6016
a(g2
I87
I985
tp6017
a(g2
I87
I986
tp6018
a(g2
I87
I987
tp6019
a(g2
I87
I988
tp6020
a(g2
I87
I989
tp6021
a(g2
I87
I990
tp6022
a(g2
I87
I991
tp6023
a(g2
I87
I992
tp6024
a(g2
I87
I993
tp6025
a(g2
I87
I994
tp6026
a(g2
I87
I995
tp6027
a(g2
I88
I996
tp6028
a(g2
I88
I997
tp6029
a(g2
I88
I998
tp6030
a(g2
I88
I999
tp6031
a(g2
I88
I1000
tp6032
a(g2
I88
I1001
tp6033
a(g2
I88
I982
tp6034
a(g2
I88
I983
tp6035
a(g2
I88
I984
tp6036
a(g2
I88
I985
tp6037
a(g2
I88
I986
tp6038
a(g2
I88
I987
tp6039
a(g2
I88
I988
tp6040
a(g2
I88
I989
tp6041
a(g2
I88
I990
tp6042
a(g2
I88
I991
tp6043
a(g2
I88
I992
tp6044
a(g2
I88
I993
tp6045
a(g2
I88
I994
tp6046
a(g2
I88
I995
tp6047
a(g2
I88
I996
tp6048
a(g2
I88
I997
tp6049
a(g2
I89
I998
tp6050
a(g2
I89
I999
tp6051
a(g2
I89
I1000
tp6052
a(g2
I89
I1001
tp6053
a(g2
I89
I1002
tp6054
a(g2
I89
I1003
tp6055
a(g2
I89
I991
tp6056
a(g2
I89
I992
tp6057
a(g2
I89
I993
tp6058
a(g2
I89
I994
tp6059
a(g2
I89
I995
tp6060
a(g2
I89
I996
tp6061
a(g2
I89
I997
tp6062
a(g2
I89
I998
tp6063
a(g2
I89
I999
tp6064
a(g2
I89
I1000
tp6065
a(g2
I89
I1001
tp6066
a(g2
I89
I1002
tp6067
a(g2
I89
I1003
tp6068
a(g2
I90
I1004
tp6069
a(g2
I90
I1005
tp6070
a(g2
I90
I1006
tp6071
a(g2
I90
I1007
tp6072
a(g2
I90
I1008
tp6073
a(g2
I90
I1009
tp6074
a(g2
I90
I997
tp6075
a(g2
I90
I998
tp6076
a(g2
I91
I999
tp6077
a(g2
I91
I1000
tp6078
a(g2
I91
I1001
tp6079
a(g2
I91
I1002
tp6080
a(g2
I91
I1003
tp6081
a(g2
I91
I1004
tp6082
a(g2
I91
I983
tp6083
a(g2
I91
I984
tp6084
a(g2
I91
I985
tp6085
a(g2
I91
I986
tp6086
a(g2
I91
I987
tp6087
a(g2
I91
I988
tp6088
a(g2
I91
I989
tp6089
a(g2
I91
I990
tp6090
a(g2
I91
I991
tp6091
a(g2
I91
I992
tp6092
a(g2
I91
I993
tp6093
a(g2
I91
I994
tp6094
a(g2
I91
I995
tp6095
a(g2
I91
I996
tp6096
a(g2
I91
I997
tp6097
a(g2
I91
I998
tp6098
a(g2
I92
I999
tp6099
a(g2
I92
I1000
tp6100
a(g2
I92
I1001
tp6101
a(g2
I92
I1002
tp6102
a(g2
I92
I1003
tp6103
a(g2
I92
I1004
tp6104
a(g2
I92
I989
tp6105
a(g2
I92
I990
tp6106
a(g2
I92
I991
tp6107
a(g2
I92
I992
tp6108
a(g2
I92
I993
tp6109
a(g2
I92
I994
tp6110
a(g2
I92
I995
tp6111
a(g2
I92
I996
tp6112
a(g2
I92
I997
tp6113
a(g2
I92
I998
tp6114
a(g2
I92
I999
tp6115
a(g2
I92
I1000
tp6116
a(g2
I92
I1001
tp6117
a(g2
I92
I1002
tp6118
a(g2
I93
I1003
tp6119
a(g2
I93
I1004
tp6120
a(g2
I93
I1005
tp6121
a(g2
I93
I1006
tp6122
a(g2
I93
I1007
tp6123
a(g2
I93
I1008
tp6124
a(g2
I93
I989
tp6125
a(g2
I93
I990
tp6126
a(g2
I93
I991
tp6127
a(g2
I93
I992
tp6128
a(g2
I93
I993
tp6129
a(g2
I93
I994
tp6130
a(g2
I93
I995
tp6131
a(g2
I93
I996
tp6132
a(g2
I94
I997
tp6133
a(g2
I94
I998
tp6134
a(g2
I94
I999
tp6135
a(g2
I94
I1000
tp6136
a(g2
I94
I1001
tp6137
a(g2
I94
I1002
tp6138
a(g2
I94
I988
tp6139
a(g2
I94
I989
tp6140
a(g2
I94
I990
tp6141
a(g2
I94
I991
tp6142
a(g2
I94
I992
tp6143
a(g2
I94
I993
tp6144
a(g2
I94
I994
tp6145
a(g2
I94
I995
tp6146
a(g2
I94
I996
tp6147
a(g2
I94
I997
tp6148
a(g2
I94
I998
tp6149
a(g2
I94
I999
tp6150
a(g2
I94
I1000
tp6151
a(g2
I94
I1001
tp6152
a(g2
I94
I1002
tp6153
a(g2
I94
I1003
tp6154
a(g2
I94
I1004
tp6155
a(g2
I95
I1005
tp6156
a(g2
I95
I1006
tp6157
a(g2
I95
I1007
tp6158
a(g2
I95
I1008
tp6159
a(g2
I95
I1009
tp6160
a(g2
I95
I1010
tp6161
a(g2
I95
I994
tp6162
a(g2
I95
I995
tp6163
a(g2
I95
I996
tp6164
a(g2
I95
I997
tp6165
a(g2
I95
I998
tp6166
a(g2
I95
I999
tp6167
a(g2
I95
I1000
tp6168
a(g2
I95
I1001
tp6169
a(g2
I95
I1002
tp6170
a(g2
I95
I1003
tp6171
a(g2
I95
I1004
tp6172
a(g2
I95
I1005
tp6173
a(g2
I96
I1006
tp6174
a(g2
I96
I1007
tp6175
a(g2
I96
I1008
tp6176
a(g2
I96
I1009
tp6177
a(g2
I96
I1010
tp6178
a(g2
I96
I1011
tp6179
a(g2
I96
I996
tp6180
a(g2
I96
I997
tp6181
a(g2
I96
I998
tp6182
a(g2
I96
I999
tp6183
a(g2
I96
I1000
tp6184
a(g2
I96
I1001
tp6185
a(g2
I96
I1002
tp6186
a(g2
I96
I1003
tp6187
a(g2
I96
I1004
tp6188
a(g2
I96
I1005
tp6189
a(g2
I96
I1006
tp6190
a(g2
I96
I1007
tp6191
a(g2
I96
I1008
tp6192
a(g2
I96
I1009
tp6193
a(g2
I96
I1010
tp6194
a(g2
I96
I1011
tp6195
a(g2
I96
I1012
tp6196
a(g2
I96
I1013
tp6197
a(g2
I97
I1014
tp6198
a(g2
I97
I1015
tp6199
a(g2
I97
I1016
tp6200
a(g2
I97
I1017
tp6201
a(g2
I97
I1018
tp6202
a(g2
I97
I1019
tp6203
a(g2
I97
I1008
tp6204
a(g2
I97
I1009
tp6205
a(g2
I97
I1010
tp6206
a(g2
I97
I1011
tp6207
a(g2
I97
I1012
tp6208
a(g2
I97
I1013
tp6209
a(g2
I97
I1014
tp6210
a(g2
I97
I1015
tp6211
a(g2
I97
I1016
tp6212
a(g2
I97
I1017
tp6213
a(g2
I97
I1018
tp6214
a(g2
I97
I1019
tp6215
a(g2
I97
I1020
tp6216
a(g2
I97
I1021
tp6217
a(g2
I97
I1022
tp6218
a(g2
I97
I1023
tp6219
a(g2
I97
I1024
tp6220
a(g2
I97
I1025
tp6221
a(g2
I97
I1026
tp6222
a(g2
I98
I1027
tp6223
a(g2
I98
I1028
tp6224
a(g2
I98
I1029
tp6225
a(g2
I98
I1030
tp6226
a(g2
I98
I1031
tp6227
a(g2
I98
I1032
tp6228
a(g2
I98
I1017
tp6229
a(g2
I98
I1018
tp6230
a(g2
I98
I1019
tp6231
a(g2
I98
I1020
tp6232
a(g2
I98
I1021
tp6233
a(g2
I98
I1022
tp6234
a(g2
I98
I1023
tp6235
a(g2
I98
I1024
tp6236
a(g2
I98
I1025
tp6237
a(g2
I98
I1026
tp6238
a(g2
I98
I1027
tp6239
a(g2
I99
I1028
tp6240
a(g2
I99
I1029
tp6241
a(g2
I99
I1030
tp6242
a(g2
I99
I1031
tp6243
a(g2
I99
I1032
tp6244
a(g2
I99
I1033
tp6245
a(g2
I99
I1014
tp6246
a(g2
I99
I1015
tp6247
a(g2
I99
I1016
tp6248
a(g2
I99
I1017
tp6249
a(g2
I99
I1018
tp6250
a(g2
I99
I1019
tp6251
a(g2
I99
I1020
tp6252
a(g2
I99
I1021
tp6253
a(g2
I99
I1022
tp6254
a(g2
I99
I1023
tp6255
a(g2
I99
I1024
tp6256
a(g2
I99
I1025
tp6257
a(g2
I99
I1026
tp6258
a(g2
I99
I1027
tp6259
a(g2
I99
I1028
tp6260
a(g2
I99
I1029
tp6261
a(g2
I100
I1030
tp6262
a(g2
I100
I1031
tp6263
a(g2
I100
I1032
tp6264
a(g2
I100
I1033
tp6265
a(g2
I100
I1034
tp6266
a(g2
I100
I1035
tp6267
a(g2
I100
I1017
tp6268
a(g2
I100
I1018
tp6269
a(g2
I100
I1019
tp6270
a(g2
I100
I1020
tp6271
a(g2
I100
I1021
tp6272
a(g2
I100
I1022
tp6273
a(g2
I100
I1023
tp6274
a(g2
I100
I1024
tp6275
a(g2
I100
I1025
tp6276
a(g2
I100
I1026
tp6277
a(g2
I100
I1027
tp6278
a(g2
I100
I1028
tp6279
a(g2
I100
I1029
tp6280
a(g2
I100
I1030
tp6281
a(g2
I100
I1031
tp6282
a(g2
I101
I1032
tp6283
a(g2
I101
I1033
tp6284
a(g2
I101
I1034
tp6285
a(g2
I101
I1035
tp6286
a(g2
I101
I1036
tp6287
a(g2
I101
I1037
tp6288
a(g2
I101
I1025
tp6289
a(g2
I101
I1026
tp6290
a(g2
I101
I1027
tp6291
a(g2
I101
I1028
tp6292
a(g2
I101
I1029
tp6293
a(g2
I101
I1030
tp6294
a(g2
I101
I1031
tp6295
a(g2
I101
I1032
tp6296
a(g2
I101
I1033
tp6297
a(g2
I101
I1034
tp6298
a(g2
I101
I1035
tp6299
a(g2
I101
I1036
tp6300
a(g2
I101
I1037
tp6301
a(g2
I101
I1038
tp6302
a(g2
I102
I1039
tp6303
a(g2
I102
I1040
tp6304
a(g2
I102
I1041
tp6305
a(g2
I102
I1042
tp6306
a(g2
I102
I1043
tp6307
a(g2
I102
I1044
tp6308
a(g2
I102
I1030
tp6309
a(g2
I102
I1031
tp6310
a(g2
I102
I1032
tp6311
a(g2
I102
I1033
tp6312
a(g2
I102
I1034
tp6313
a(g2
I102
I1035
tp6314
a(g2
I102
I1036
tp6315
a(g2
I102
I1037
tp6316
a(g2
I102
I1038
tp6317
a(g2
I102
I1039
tp6318
a(g2
I102
I1040
tp6319
a(g2
I102
I1041
tp6320
a(g2
I102
I1042
tp6321
a(g2
I102
I1043
tp6322
a(g2
I102
I1044
tp6323
a(g2
I102
I1045
tp6324
a(g2
I103
I1046
tp6325
a(g2
I103
I1047
tp6326
a(g2
I103
I1048
tp6327
a(g2
I103
I1049
tp6328
a(g2
I103
I1050
tp6329
a(g2
I103
I1051
tp6330
a(g2
I103
I1035
tp6331
a(g2
I103
I1036
tp6332
a(g2
I103
I1037
tp6333
a(g2
I103
I1038
tp6334
a(g2
I103
I1039
tp6335
a(g2
I103
I1040
tp6336
a(g2
I103
I1041
tp6337
a(g2
I103
I1042
tp6338
a(g2
I103
I1043
tp6339
a(g2
I103
I1044
tp6340
a(g2
I103
I1045
tp6341
a(g2
I103
I1046
tp6342
a(g2
I103
I1047
tp6343
a(g2
I103
I1048
tp6344
a(g2
I103
I1049
tp6345
a(g2
I103
I1050
tp6346
a(g2
I103
I1051
tp6347
aa.