(lp0
(lp1
(S'week = '
p2
I0
I0
tp3
a(g2
I1
I0
tp4
a(g2
I2
cnumpy.core.multiarray
scalar
p5
(cnumpy
dtype
p6
(S'f8'
p7
I0
I1
tp8
Rp9
(I3
S'<'
p10
NNNI-1
I-1
I0
tp11
bS'\xb7\xa4i`\xf8eU@'
p12
tp13
Rp14
tp15
a(g2
I3
I0
tp16
a(g2
I4
g5
(g9
S'|\x83.\x8e\xe5\xb3G@'
p17
tp18
Rp19
tp20
a(g2
I5
g5
(g9
S'k\x12\x9b9E\x0eM@'
p21
tp22
Rp23
tp24
a(g2
I6
g5
(g9
S'\x06\xb3\x8bgty`@'
p25
tp26
Rp27
tp28
a(g2
I7
g5
(g9
S'<\xac0F|%9@'
p29
tp30
Rp31
tp32
a(g2
I8
g5
(g9
S"('G\x1e\x0e\xfdl@"
p33
tp34
Rp35
tp36
a(g2
I9
g5
(g9
S'U\xe0\x8e\xf1|;H@'
p37
tp38
Rp39
tp40
a(g2
I10
g5
(g9
S'w,#\x13\x92Ue@'
p41
tp42
Rp43
tp44
a(g2
I11
g5
(g9
S"\x04\x87'\x0b\xa3pP@"
p45
tp46
Rp47
tp48
a(g2
I12
g5
(g9
S'\x16\x85q\x0fW$i@'
p49
tp50
Rp51
tp52
a(g2
I13
g5
(g9
S'\xf7)\x06b\xeaT[@'
p53
tp54
Rp55
tp56
a(g2
I14
g5
(g9
S'E*\x92\xee]\xf6O@'
p57
tp58
Rp59
tp60
a(g2
I15
g5
(g9
S'\x82\xf6A-\r\x1aY@'
p61
tp62
Rp63
tp64
a(g2
I16
g5
(g9
S"Mc\x82'\xa2']@"
p65
tp66
Rp67
tp68
a(g2
I17
g5
(g9
S'\x8d(C\x08\xfe^Y@'
p69
tp70
Rp71
tp72
a(g2
I18
g5
(g9
S'\xa2,P\xc3\x01NR@'
p73
tp74
Rp75
tp76
a(g2
I19
g5
(g9
S'\xcc\xc1v\xfd\x97\x06W@'
p77
tp78
Rp79
tp80
a(g2
I20
g5
(g9
S'\xcb\xfc\x9e\xc8\xf8\xea]@'
p81
tp82
Rp83
tp84
a(g2
I21
g5
(g9
S'\xbd\x96\x0f\n\xa4\xf8T@'
p85
tp86
Rp87
tp88
a(g2
I22
g5
(g9
S'i\x055\x1b\x05Rb@'
p89
tp90
Rp91
tp92
a(g2
I23
g5
(g9
S'f\x03W\x9a0\xec`@'
p93
tp94
Rp95
tp96
a(g2
I24
g5
(g9
S'\x04\x1bX\x1f\xb5G[@'
p97
tp98
Rp99
tp100
a(g2
I25
g5
(g9
S'\xb4\x8fT\xd0\xbe\xc9`@'
p101
tp102
Rp103
tp104
a(g2
I26
g5
(g9
S'g.u\xce\x0eah@'
p105
tp106
Rp107
tp108
a(g2
I27
g5
(g9
S'b\x06r\xc3\xf7\xed]@'
p109
tp110
Rp111
tp112
a(g2
I28
g5
(g9
S'\xc5S\xa663\xb0]@'
p113
tp114
Rp115
tp116
a(g2
I29
g5
(g9
S'\x17\x14\xad\xc7K\xf4^@'
p117
tp118
Rp119
tp120
a(g2
I30
g5
(g9
S'\x8f\x0f\x1fS|}f@'
p121
tp122
Rp123
tp124
a(g2
I31
g5
(g9
S'\xc4L\x9cR\x1b\xcd_@'
p125
tp126
Rp127
tp128
a(g2
I32
g5
(g9
S'==\x92|\xf0+a@'
p129
tp130
Rp131
tp132
a(g2
I33
g5
(g9
S'\x83P\x1e_\x8a\xe9_@'
p133
tp134
Rp135
tp136
a(g2
I34
g5
(g9
S'W\x06\xa9\x85y\x8bb@'
p137
tp138
Rp139
tp140
a(g2
I35
g5
(g9
S'\xc9\xdf\xb8\xc4\xd3\xc7Z@'
p141
tp142
Rp143
tp144
a(g2
I36
g5
(g9
S'\x96\x18\xd6wG\xc0a@'
p145
tp146
Rp147
tp148
a(g2
I37
g5
(g9
S'H\xe3\x1f\xf9M\x7fY@'
p149
tp150
Rp151
tp152
a(g2
I38
g5
(g9
S'T\x05e\r\xefn]@'
p153
tp154
Rp155
tp156
a(g2
I39
g5
(g9
S'\x16?\xc1\x8f6Sc@'
p157
tp158
Rp159
tp160
a(g2
I40
g5
(g9
S'\x92s\x10_\xdd-_@'
p161
tp162
Rp163
tp164
a(g2
I41
g5
(g9
S'\xe3fB\x9f\xea[[@'
p165
tp166
Rp167
tp168
a(g2
I42
g5
(g9
S'\x95G#\xe9\x14ma@'
p169
tp170
Rp171
tp172
a(g2
I43
g5
(g9
S'cZs\x13wE]@'
p173
tp174
Rp175
tp176
a(g2
I44
g5
(g9
S'p\x83\xcbA\xe0x^@'
p177
tp178
Rp179
tp180
a(g2
I45
g5
(g9
S'\xfe\x0b\xc7\xea\x8dkX@'
p181
tp182
Rp183
tp184
a(g2
I46
g5
(g9
S'\x82\x87\xfd&\x0e\x99a@'
p185
tp186
Rp187
tp188
a(g2
I47
g5
(g9
S'\x9d?S\xc2k>[@'
p189
tp190
Rp191
tp192
a(g2
I48
g5
(g9
S'\xb8\xbc\xe4\xb7\xeb\xa4Y@'
p193
tp194
Rp195
tp196
a(g2
I49
g5
(g9
S'\xbd"\xeeJ\xd6\xabZ@'
p197
tp198
Rp199
tp200
a(g2
I50
g5
(g9
S'\x94\xce\x8c\x1c\xfe\x86^@'
p201
tp202
Rp203
tp204
a(g2
I51
g5
(g9
S'\xcc\xb3\xd5b\x05\x93a@'
p205
tp206
Rp207
tp208
a(g2
I52
g5
(g9
S'"\x86:\xde\x13db@'
p209
tp210
Rp211
tp212
a(g2
I53
g5
(g9
S'\xda%\t\x1a\xd1lb@'
p213
tp214
Rp215
tp216
a(g2
I54
g5
(g9
S'\xd9,\xf9\x1czn^@'
p217
tp218
Rp219
tp220
a(g2
I55
g5
(g9
S'\x93w\xd7\xf8\xf1\xee`@'
p221
tp222
Rp223
tp224
a(g2
I56
g5
(g9
S'\x16\x05\x19\xc8-i]@'
p225
tp226
Rp227
tp228
a(g2
I57
g5
(g9
S'E-|nJ\xb2\\@'
p229
tp230
Rp231
tp232
a(g2
I58
g5
(g9
S'\xe9\x9f\xda$\xdd\x86_@'
p233
tp234
Rp235
tp236
a(g2
I59
g5
(g9
S'^;C\xae\x1aR`@'
p237
tp238
Rp239
tp240
a(g2
I60
g5
(g9
S'<\x91\xb9\xc1_\xe0]@'
p241
tp242
Rp243
tp244
a(g2
I61
g5
(g9
S'\xbbx\xb9lr\x80_@'
p245
tp246
Rp247
tp248
a(g2
I62
g5
(g9
S'uV\xbe\xd4&\x00`@'
p249
tp250
Rp251
tp252
a(g2
I63
g5
(g9
S'`/\x96\xbb\x82T^@'
p253
tp254
Rp255
tp256
a(g2
I64
g5
(g9
S'E\xcc\xbd\xbe\xde\x90]@'
p257
tp258
Rp259
tp260
a(g2
I65
g5
(g9
S'A\xcc\x8f1\xb3\x05`@'
p261
tp262
Rp263
tp264
a(g2
I66
g5
(g9
S'\xaaTU^\xb8\xe3^@'
p265
tp266
Rp267
tp268
a(g2
I67
g5
(g9
S')\nV\x90\xca;`@'
p269
tp270
Rp271
tp272
a(g2
I68
g5
(g9
S'\xe81\xe6\xe7A\x11a@'
p273
tp274
Rp275
tp276
a(g2
I69
g5
(g9
S'e<\xc32\x14\xe3]@'
p277
tp278
Rp279
tp280
a(g2
I70
g5
(g9
S'\x0e\xaf\xe9\xeb\x07%_@'
p281
tp282
Rp283
tp284
a(g2
I71
g5
(g9
S'\x08(\x01\xd0\xdby^@'
p285
tp286
Rp287
tp288
a(g2
I72
g5
(g9
S'zB\xb9\xb9y\x84\\@'
p289
tp290
Rp291
tp292
a(g2
I73
g5
(g9
S'\xb9g\xc6wn\xef`@'
p293
tp294
Rp295
tp296
a(g2
I74
g5
(g9
S'Fu\xd0\x88\xe3ia@'
p297
tp298
Rp299
tp300
a(g2
I75
g5
(g9
S'\x14\xe3X\xf5\xb3\xab^@'
p301
tp302
Rp303
tp304
a(g2
I76
g5
(g9
S'.\xff\x8f\xa7\x04\xeb`@'
p305
tp306
Rp307
tp308
a(g2
I77
g5
(g9
S'\xf78]\x13\xdc\xe5]@'
p309
tp310
Rp311
tp312
a(g2
I78
g5
(g9
S'\xb6\x8d\x17\xc0\xe2`_@'
p313
tp314
Rp315
tp316
a(g2
I79
g5
(g9
S'kV\xb7\x8e\xfc:^@'
p317
tp318
Rp319
tp320
a(g2
I80
g5
(g9
S'\x08i\x8bd\xb8\xf2^@'
p321
tp322
Rp323
tp324
a(g2
I81
g5
(g9
S'\xac\xb8\xf6\xa7\xf2C`@'
p325
tp326
Rp327
tp328
a(g2
I82
g5
(g9
S'\x07\xc00i.\x1b`@'
p329
tp330
Rp331
tp332
a(g2
I83
g5
(g9
S'\xfc#r\x17\x88|^@'
p333
tp334
Rp335
tp336
a(g2
I84
g5
(g9
S'\xdb\xf0VrMJ\\@'
p337
tp338
Rp339
tp340
a(g2
I85
g5
(g9
S'\xda\xfdDf\x93\xcc_@'
p341
tp342
Rp343
tp344
a(g2
I86
g5
(g9
S':\x94\xd7\xf9\x10L]@'
p345
tp346
Rp347
tp348
a(g2
I87
g5
(g9
S'\xcd\xa4\xb5\xe5&]^@'
p349
tp350
Rp351
tp352
a(g2
I88
g5
(g9
S'\xf2A\xeb\x8a\x89\xbb[@'
p353
tp354
Rp355
tp356
a(g2
I89
g5
(g9
S'\x9b\xffH\xfcPv_@'
p357
tp358
Rp359
tp360
a(g2
I90
g5
(g9
S'\xc3\xcc\xa9\x04\x03\x9c_@'
p361
tp362
Rp363
tp364
a(g2
I91
g5
(g9
S'eo\xd4@\xd3\xd0_@'
p365
tp366
Rp367
tp368
a(g2
I92
g5
(g9
S'6k\xc8&Z\xb8`@'
p369
tp370
Rp371
tp372
a(g2
I93
g5
(g9
S'R\x9dz\x16\x1bHb@'
p373
tp374
Rp375
tp376
a(g2
I94
g5
(g9
S'\xd5q\xb8\t\xbb3_@'
p377
tp378
Rp379
tp380
a(g2
I95
g5
(g9
S'\xc3"](\xde\\`@'
p381
tp382
Rp383
tp384
a(g2
I96
g5
(g9
S'z\x84~=\x1a\x16^@'
p385
tp386
Rp387
tp388
a(g2
I97
g5
(g9
S'\xec\xb7\xe6\xee\xe7+a@'
p389
tp390
Rp391
tp392
a(g2
I98
g5
(g9
S'\x1e\x18\xe3-\xdfma@'
p393
tp394
Rp395
tp396
a(g2
I99
g5
(g9
S'7\r\x8e\xfdY\xc8b@'
p397
tp398
Rp399
tp400
a(g2
I100
g5
(g9
S'\\ \x12\x0f\xb0)^@'
p401
tp402
Rp403
tp404
a(g2
I101
g5
(g9
S'\xde{\x9e\x01\xa8\xc0`@'
p405
tp406
Rp407
tp408
a(g2
I102
g5
(g9
S'J\xb1\xe6\x97\xb3\xab\\@'
p409
tp410
Rp411
tp412
a(g2
I103
g5
(g9
S'$\xfc$\xe4G=`@'
p413
tp414
Rp415
tp416
aa(lp417
(g2
I0
I0
tp418
a(g2
I1
I0
tp419
a(g2
I2
g5
(g9
S'\x04\x08p\x08\x95TR@'
p420
tp421
Rp422
tp423
a(g2
I3
g5
(g9
S'\xd1\xa5\xb8\xc6d\xf4,@'
p424
tp425
Rp426
tp427
a(g2
I4
I0
tp428
a(g2
I5
g5
(g9
S'\x06\x93\xff\xc5\xdd?Q@'
p429
tp430
Rp431
tp432
a(g2
I6
g5
(g9
S'A\x90O\x00\xd8\xd2k@'
p433
tp434
Rp435
tp436
a(g2
I7
g5
(g9
S'\xf6U\xcd\xdc+ k@'
p437
tp438
Rp439
tp440
a(g2
I8
g5
(g9
S'\xddH\xb4 \x90\x1a6@'
p441
tp442
Rp443
tp444
a(g2
I9
g5
(g9
S'H\x8e:}\xb1\x1a[@'
p445
tp446
Rp447
tp448
a(g2
I10
g5
(g9
S'vp\xb0\xe6\xc8ke@'
p449
tp450
Rp451
tp452
a(g2
I11
g5
(g9
S'\x07\n\xbf\xbfo\xb7_@'
p453
tp454
Rp455
tp456
a(g2
I12
g5
(g9
S': \x87&S\xfbi@'
p457
tp458
Rp459
tp460
a(g2
I13
g5
(g9
S'^\x89\x89m\xb7\xa9`@'
p461
tp462
Rp463
tp464
a(g2
I14
g5
(g9
S'\xdc\nz\xb5\xff9G@'
p465
tp466
Rp467
tp468
a(g2
I15
g5
(g9
S'\xaaf*\xfe\xcd\xe0l@'
p469
tp470
Rp471
tp472
a(g2
I16
g5
(g9
S'\x8e\x1b\xc8o\xc6hP@'
p473
tp474
Rp475
tp476
a(g2
I17
g5
(g9
S'\xa1:\xdc\x16t\xc4f@'
p477
tp478
Rp479
tp480
a(g2
I18
g5
(g9
S'd\xda\x96q&\xf6b@'
p481
tp482
Rp483
tp484
a(g2
I19
g5
(g9
S'W\xa0\xf9\x0e\xc0sV@'
p485
tp486
Rp487
tp488
a(g2
I20
g5
(g9
S'\xd2f\xb7\xae\x9aI[@'
p489
tp490
Rp491
tp492
a(g2
I21
g5
(g9
S'G\x00\xd1\xb5\xb1\x00Z@'
p493
tp494
Rp495
tp496
a(g2
I22
g5
(g9
S'\xbb\xce\x0f~|\xdae@'
p497
tp498
Rp499
tp500
a(g2
I23
g5
(g9
S'!\xb0X\xe5C\x11d@'
p501
tp502
Rp503
tp504
a(g2
I24
g5
(g9
S'\x08\x9fn\xd1V\xb9Q@'
p505
tp506
Rp507
tp508
a(g2
I25
g5
(g9
S'9\xe62\xa4\xf7\xde\\@'
p509
tp510
Rp511
tp512
a(g2
I26
g5
(g9
S'\xcb\x17\xf7y_^[@'
p513
tp514
Rp515
tp516
a(g2
I27
g5
(g9
S'\xb7\xd3\xcf\x1a\xf2n`@'
p517
tp518
Rp519
tp520
a(g2
I28
g5
(g9
S'X\xa9\xa6Y\xfb\xbb[@'
p521
tp522
Rp523
tp524
a(g2
I29
g5
(g9
S'\x88\xd3\xe2\xd0\xa2PW@'
p525
tp526
Rp527
tp528
a(g2
I30
g5
(g9
S'\x8a\xb5eQ\xa4\x88a@'
p529
tp530
Rp531
tp532
a(g2
I31
g5
(g9
S'|\x80\xd3\x19\\\x1d_@'
p533
tp534
Rp535
tp536
a(g2
I32
g5
(g9
S'\xa3\xbb\xe0>Y\x91_@'
p537
tp538
Rp539
tp540
a(g2
I33
g5
(g9
S"\r\xc5'\xe5K`X@"
p541
tp542
Rp543
tp544
a(g2
I34
g5
(g9
S'\xb2\x80I\x13\x82\x96W@'
p545
tp546
Rp547
tp548
a(g2
I35
g5
(g9
S'\x8f\xae"a\x94n]@'
p549
tp550
Rp551
tp552
a(g2
I36
g5
(g9
S'd*\xa0\xc6\xe9\xbc`@'
p553
tp554
Rp555
tp556
a(g2
I37
g5
(g9
S'\x18\xc0\x1e\x1d\xb0\x04U@'
p557
tp558
Rp559
tp560
a(g2
I38
g5
(g9
S'2\xc2\xf2\x85P\na@'
p561
tp562
Rp563
tp564
a(g2
I39
g5
(g9
S'\xc91\xc3\xbf\xccE]@'
p565
tp566
Rp567
tp568
a(g2
I40
g5
(g9
S'R\x15\xd7\x03\x1bT[@'
p569
tp570
Rp571
tp572
a(g2
I41
g5
(g9
S'\x06\xb8\x812\x96(X@'
p573
tp574
Rp575
tp576
a(g2
I42
g5
(g9
S'9\xc4n\x1f\xd8[\\@'
p577
tp578
Rp579
tp580
a(g2
I43
g5
(g9
S'\xea/{\x96[d]@'
p581
tp582
Rp583
tp584
a(g2
I44
g5
(g9
S'\x9aRG\x92!\xcd_@'
p585
tp586
Rp587
tp588
a(g2
I45
g5
(g9
S'\xf9\xf1v:1va@'
p589
tp590
Rp591
tp592
a(g2
I46
g5
(g9
S' .Zq#\x97Z@'
p593
tp594
Rp595
tp596
a(g2
I47
g5
(g9
S'\xefI\x8b\xa4V\x07_@'
p597
tp598
Rp599
tp600
a(g2
I48
g5
(g9
S'\x04\x1c<n\xfc\xda^@'
p601
tp602
Rp603
tp604
a(g2
I49
g5
(g9
S'\xd0\xf3P\x7f\xa6k^@'
p605
tp606
Rp607
tp608
a(g2
I50
g5
(g9
S'\xe5L\x8a\x1fE\xdd`@'
p609
tp610
Rp611
tp612
a(g2
I51
g5
(g9
S'\xf6\xd3z\x85\xf1{a@'
p613
tp614
Rp615
tp616
a(g2
I52
g5
(g9
S'\xd6\xd0Y\xd8\xcb\x01\\@'
p617
tp618
Rp619
tp620
a(g2
I53
g5
(g9
S'\xe8\x08\x04\x8e\xdf\xf6_@'
p621
tp622
Rp623
tp624
a(g2
I54
g5
(g9
S'\xe1\xfe\xc4\x84\x10\xc6Z@'
p625
tp626
Rp627
tp628
a(g2
I55
g5
(g9
S'\x98\xa4<\x08\xb5\x0f^@'
p629
tp630
Rp631
tp632
a(g2
I56
g5
(g9
S'\xc6&\xbb\xf0,>]@'
p633
tp634
Rp635
tp636
a(g2
I57
g5
(g9
S'\xf1\xd3^X\x97l]@'
p637
tp638
Rp639
tp640
a(g2
I58
g5
(g9
S'\xb8$\x0bnpq]@'
p641
tp642
Rp643
tp644
a(g2
I59
g5
(g9
S'Z\xec=\xc2\xf8\x01`@'
p645
tp646
Rp647
tp648
a(g2
I60
g5
(g9
S'\x93#\x16)\xcb\x9ea@'
p649
tp650
Rp651
tp652
a(g2
I61
g5
(g9
S"\xd0\xe85\xb5\xa5'c@"
p653
tp654
Rp655
tp656
a(g2
I62
g5
(g9
S'2\x11i\x02!xc@'
p657
tp658
Rp659
tp660
a(g2
I63
g5
(g9
S'\xc7|\xa0_p\x1e[@'
p661
tp662
Rp663
tp664
a(g2
I64
g5
(g9
S'1\xe4\xb9\xc4\x84h`@'
p665
tp666
Rp667
tp668
a(g2
I65
g5
(g9
S'\xe3P\xb1\x1dD/`@'
p669
tp670
Rp671
tp672
a(g2
I66
g5
(g9
S'\x13\xeee\x17vh_@'
p673
tp674
Rp675
tp676
a(g2
I67
g5
(g9
S' [tW\x88)[@'
p677
tp678
Rp679
tp680
a(g2
I68
g5
(g9
S'\t\xa5\xd8B\xe1\xd3]@'
p681
tp682
Rp683
tp684
a(g2
I69
g5
(g9
S'L\xf8\x19d4\xf5_@'
p685
tp686
Rp687
tp688
a(g2
I70
g5
(g9
S'R\xda\xae\x8e\xa2\x8b]@'
p689
tp690
Rp691
tp692
a(g2
I71
g5
(g9
S'\x83\xaaK\x8a\x9a\x11Z@'
p693
tp694
Rp695
tp696
a(g2
I72
g5
(g9
S'\xcc\x07z\x03\x069b@'
p697
tp698
Rp699
tp700
a(g2
I73
g5
(g9
S'\xf6[j\t\x01\x84\\@'
p701
tp702
Rp703
tp704
a(g2
I74
g5
(g9
S'.\x191wJl`@'
p705
tp706
Rp707
tp708
a(g2
I75
g5
(g9
S'\xbc\xd3\xcfQ9\x7f^@'
p709
tp710
Rp711
tp712
a(g2
I76
g5
(g9
S'\xfb\x86\xd2\xd6\x12\x81\\@'
p713
tp714
Rp715
tp716
a(g2
I77
g5
(g9
S'q\x18u\x12\xbak]@'
p717
tp718
Rp719
tp720
a(g2
I78
g5
(g9
S'?\xe7\x96#\x7f\xa5`@'
p721
tp722
Rp723
tp724
a(g2
I79
g5
(g9
S't\xfe\xdb6v\xe6\\@'
p725
tp726
Rp727
tp728
a(g2
I80
g5
(g9
S'W,\x95G\xcd\x9fa@'
p729
tp730
Rp731
tp732
a(g2
I81
g5
(g9
S'J\x9d\x95;\xca\x87a@'
p733
tp734
Rp735
tp736
a(g2
I82
g5
(g9
S'\x17,\xcd\xcf\xecu`@'
p737
tp738
Rp739
tp740
a(g2
I83
g5
(g9
S'$\xf5\xf7\xe8u\xef\\@'
p741
tp742
Rp743
tp744
a(g2
I84
g5
(g9
S'\x9a\xe4/\x8dr\x10_@'
p745
tp746
Rp747
tp748
a(g2
I85
g5
(g9
S'\xc3\xbeB[\x8f\x10]@'
p749
tp750
Rp751
tp752
a(g2
I86
g5
(g9
S'\xfe[\x07\xea\xe6\x02`@'
p753
tp754
Rp755
tp756
a(g2
I87
g5
(g9
S"#e'\xb0e\xdc]@"
p757
tp758
Rp759
tp760
a(g2
I88
g5
(g9
S'\x9b\xaf\xc0<\x9f\x89a@'
p761
tp762
Rp763
tp764
a(g2
I89
g5
(g9
S'\xe0pe\x1aL(`@'
p765
tp766
Rp767
tp768
a(g2
I90
g5
(g9
S'\\\xa06\xb4\\\x07`@'
p769
tp770
Rp771
tp772
a(g2
I91
g5
(g9
S'\xf6=TI\xb5\xbd]@'
p773
tp774
Rp775
tp776
a(g2
I92
g5
(g9
S'!\x14\xd4A\x95\xf9_@'
p777
tp778
Rp779
tp780
a(g2
I93
g5
(g9
S'\xf9\x19\xe0]Y\xac`@'
p781
tp782
Rp783
tp784
a(g2
I94
g5
(g9
S'Z\xa2\xcf\xad\x11\xfd]@'
p785
tp786
Rp787
tp788
a(g2
I95
g5
(g9
S'\x1f\xe3\x94\x11JI]@'
p789
tp790
Rp791
tp792
a(g2
I96
g5
(g9
S'\x8e\xb8,\xe3X\x8e_@'
p793
tp794
Rp795
tp796
a(g2
I97
g5
(g9
S'\x02\x16\xd2\xac]\xec_@'
p797
tp798
Rp799
tp800
a(g2
I98
g5
(g9
S'r6\xe3\\\xba,^@'
p801
tp802
Rp803
tp804
a(g2
I99
g5
(g9
S'U K8u\xdd]@'
p805
tp806
Rp807
tp808
a(g2
I100
g5
(g9
S'\xb5"3\x11\xd3\xa3`@'
p809
tp810
Rp811
tp812
a(g2
I101
g5
(g9
S'k\xf84\xc4t\x12`@'
p813
tp814
Rp815
tp816
a(g2
I102
g5
(g9
S'\xc1\x9b\x11\xea\xb4n`@'
p817
tp818
Rp819
tp820
a(g2
I103
g5
(g9
S'=\xdf\xd6\xe7i\xc6`@'
p821
tp822
Rp823
tp824
aa(lp825
(g2
I0
I0
tp826
a(g2
I1
I0
tp827
a(g2
I2
g5
(g9
S'D\x12\xf7\xbbR\x0fF@'
p828
tp829
Rp830
tp831
a(g2
I3
g5
(g9
S'\xd0f\xbc\x9d\xd4\xd7g@'
p832
tp833
Rp834
tp835
a(g2
I4
g5
(g9
S'-cU\xeb\xe0\xf5T@'
p836
tp837
Rp838
tp839
a(g2
I5
I0
tp840
a(g2
I6
g5
(g9
S'\xff*\xce\xf55tl@'
p841
tp842
Rp843
tp844
a(g2
I7
g5
(g9
S';\x9a\xe27\x89jg@'
p845
tp846
Rp847
tp848
a(g2
I8
g5
(g9
S'\x85pT\xdb]t5@'
p849
tp850
Rp851
tp852
a(g2
I9
g5
(g9
S"\xf3'Zs\x89\x03j@"
p853
tp854
Rp855
tp856
a(g2
I10
g5
(g9
S'\xbf\x9f\xaf\x05\xcc\x97a@'
p857
tp858
Rp859
tp860
a(g2
I11
g5
(g9
S'`\x07\xbd\xbf\x9b)[@'
p861
tp862
Rp863
tp864
a(g2
I12
g5
(g9
S'=I\x87\xc3\xdf\x9cg@'
p865
tp866
Rp867
tp868
a(g2
I13
g5
(g9
S'\xd4\xef\xc0\xa23\x03^@'
p869
tp870
Rp871
tp872
a(g2
I14
g5
(g9
S'x"7\x8d\xa8sP@'
p873
tp874
Rp875
tp876
a(g2
I15
g5
(g9
S'ho\xbfhW(W@'
p877
tp878
Rp879
tp880
a(g2
I16
g5
(g9
S'o\xff\xb2\xab\x07\xa3[@'
p881
tp882
Rp883
tp884
a(g2
I17
g5
(g9
S'}\x04\r\x02\xe5\xa5Y@'
p885
tp886
Rp887
tp888
a(g2
I18
g5
(g9
S'n\x18v\x86\x96\x81]@'
p889
tp890
Rp891
tp892
a(g2
I19
g5
(g9
S"\xe1\xbc'\x14\xe1\xbca@"
p893
tp894
Rp895
tp896
a(g2
I20
g5
(g9
S'\x87\xa4:?\xaa\xf8]@'
p897
tp898
Rp899
tp900
a(g2
I21
g5
(g9
S',%\x82\xfb\x10\xc0`@'
p901
tp902
Rp903
tp904
a(g2
I22
g5
(g9
S'\xc2\x1f\xb9`\x01\xe2\\@'
p905
tp906
Rp907
tp908
a(g2
I23
g5
(g9
S'\xad\x03z\\ \x19S@'
p909
tp910
Rp911
tp912
a(g2
I24
g5
(g9
S'c\xb2\xd23\x8b\x04Z@'
p913
tp914
Rp915
tp916
a(g2
I25
g5
(g9
S'-\xbc8k\xeb\x95Z@'
p917
tp918
Rp919
tp920
a(g2
I26
g5
(g9
S'\xf8g\xadB\xd6S[@'
p921
tp922
Rp923
tp924
a(g2
I27
g5
(g9
S'\xe0\xa1hU\xc2\xa1W@'
p925
tp926
Rp927
tp928
a(g2
I28
g5
(g9
S"\xa0n'W0\x16`@"
p929
tp930
Rp931
tp932
a(g2
I29
g5
(g9
S'H\xcdNmX\x07b@'
p933
tp934
Rp935
tp936
a(g2
I30
g5
(g9
S'p\xf7Q\xe9\xb3\x9ca@'
p937
tp938
Rp939
tp940
a(g2
I31
g5
(g9
S'\xde"\x00\xd0\xb3\x19a@'
p941
tp942
Rp943
tp944
a(g2
I32
g5
(g9
S's0\x1fI\xa7\xa0Y@'
p945
tp946
Rp947
tp948
a(g2
I33
g5
(g9
S'\xa7\xd3\xad?\xcc\xce^@'
p949
tp950
Rp951
tp952
a(g2
I34
g5
(g9
S'\x1ew\xbdM\xd7,[@'
p953
tp954
Rp955
tp956
a(g2
I35
g5
(g9
S'\x1f\x15\xb7\x95\x90\xaaY@'
p957
tp958
Rp959
tp960
a(g2
I36
g5
(g9
S'q^\r\x12p8]@'
p961
tp962
Rp963
tp964
a(g2
I37
g5
(g9
S'\x12-!\xae\xc0JV@'
p965
tp966
Rp967
tp968
a(g2
I38
g5
(g9
S'\xa5%[5g\xd2]@'
p969
tp970
Rp971
tp972
a(g2
I39
g5
(g9
S'\x03\xd4\x84\x1e\x8d\xc8_@'
p973
tp974
Rp975
tp976
a(g2
I40
g5
(g9
S'\xd5\xbb\xa9\xfb!\xd6_@'
p977
tp978
Rp979
tp980
a(g2
I41
g5
(g9
S'\xbb\xfa\x1e\x07\xc0e\\@'
p981
tp982
Rp983
tp984
a(g2
I42
g5
(g9
S'r\xbf\xb8R\xffH\\@'
p985
tp986
Rp987
tp988
a(g2
I43
g5
(g9
S'\xb3\xa3\xe2rO\xfd]@'
p989
tp990
Rp991
tp992
a(g2
I44
g5
(g9
S'\xd0\xf5E\xbe\xbf0]@'
p993
tp994
Rp995
tp996
a(g2
I45
g5
(g9
S'\xe9`\xfa)Z7b@'
p997
tp998
Rp999
tp1000
a(g2
I46
g5
(g9
S'\xa1{\xd8\xa1\xddW`@'
p1001
tp1002
Rp1003
tp1004
a(g2
I47
g5
(g9
S'_\xcaaA\x1d\xa2]@'
p1005
tp1006
Rp1007
tp1008
a(g2
I48
g5
(g9
S'RA\xc9\x03H\xc4\\@'
p1009
tp1010
Rp1011
tp1012
a(g2
I49
g5
(g9
S'\x8ds\x13\xee7x`@'
p1013
tp1014
Rp1015
tp1016
a(g2
I50
g5
(g9
S'W\x9bOT\x00\xe7\\@'
p1017
tp1018
Rp1019
tp1020
a(g2
I51
g5
(g9
S'<E\xde\x9dX\xaa`@'
p1021
tp1022
Rp1023
tp1024
a(g2
I52
g5
(g9
S'\xb0.{i\xb1W`@'
p1025
tp1026
Rp1027
tp1028
a(g2
I53
g5
(g9
S'Q\xd7\x81\xf7\x013_@'
p1029
tp1030
Rp1031
tp1032
a(g2
I54
g5
(g9
S'\xc1\xab\xfeg(\xc0^@'
p1033
tp1034
Rp1035
tp1036
a(g2
I55
g5
(g9
S'\x0f\xf1\xd593\x88a@'
p1037
tp1038
Rp1039
tp1040
a(g2
I56
g5
(g9
S'\x0e\xef\x96\xb9\xa7\x88^@'
p1041
tp1042
Rp1043
tp1044
a(g2
I57
g5
(g9
S'\xda\x06\x8c1\x9dy\\@'
p1045
tp1046
Rp1047
tp1048
a(g2
I58
g5
(g9
S'\xd1\xad\x10\xb2\xa0\x01`@'
p1049
tp1050
Rp1051
tp1052
a(g2
I59
g5
(g9
S'\x90\xa5\xde|\xf9ga@'
p1053
tp1054
Rp1055
tp1056
a(g2
I60
g5
(g9
S'\x10\x9f\x88\x9em\x88`@'
p1057
tp1058
Rp1059
tp1060
a(g2
I61
g5
(g9
S'%\xa1\xac\xd1\xd7\xa4\\@'
p1061
tp1062
Rp1063
tp1064
a(g2
I62
g5
(g9
S'\x0c\xd4\xbcy\xcb\x98d@'
p1065
tp1066
Rp1067
tp1068
a(g2
I63
g5
(g9
S'_\xc1\xb1\xe8\xadnZ@'
p1069
tp1070
Rp1071
tp1072
a(g2
I64
g5
(g9
S'g\x19\x84\xe2\x8c\x10`@'
p1073
tp1074
Rp1075
tp1076
a(g2
I65
g5
(g9
S"6?\xbd\x86'\xb6^@"
p1077
tp1078
Rp1079
tp1080
a(g2
I66
g5
(g9
S'\x0b\xc2I\xc8\xb5\x19_@'
p1081
tp1082
Rp1083
tp1084
a(g2
I67
g5
(g9
S'\xd0\xcd8\xa8\x16\x8d`@'
p1085
tp1086
Rp1087
tp1088
a(g2
I68
g5
(g9
S'\xb6\xb5\xf5\x85~\x0c]@'
p1089
tp1090
Rp1091
tp1092
a(g2
I69
g5
(g9
S'\x86bwlf9`@'
p1093
tp1094
Rp1095
tp1096
a(g2
I70
g5
(g9
S'\xb7\xab/\xcaPk]@'
p1097
tp1098
Rp1099
tp1100
a(g2
I71
g5
(g9
S'\\\x85\x9e\xe5\xa4\xf1[@'
p1101
tp1102
Rp1103
tp1104
a(g2
I72
g5
(g9
S'\x18D\xd0\x17I\x01a@'
p1105
tp1106
Rp1107
tp1108
a(g2
I73
g5
(g9
S'&\xb0O\xcb\xf09_@'
p1109
tp1110
Rp1111
tp1112
a(g2
I74
g5
(g9
S'k\xf7$\x84\xca\x11`@'
p1113
tp1114
Rp1115
tp1116
a(g2
I75
g5
(g9
S'7\x82\xdf;\xe3q^@'
p1117
tp1118
Rp1119
tp1120
a(g2
I76
g5
(g9
S'\x1e\xe1\xd3\xaf1D^@'
p1121
tp1122
Rp1123
tp1124
a(g2
I77
g5
(g9
S'\x17\x8dpzo\xb6^@'
p1125
tp1126
Rp1127
tp1128
a(g2
I78
g5
(g9
S'\xb2\x9b\xc9\xcc\x03Q`@'
p1129
tp1130
Rp1131
tp1132
a(g2
I79
g5
(g9
S',C\xd4\xe7\x84\xb9_@'
p1133
tp1134
Rp1135
tp1136
a(g2
I80
g5
(g9
S'~\xd8\xf4\xe5\x1dd`@'
p1137
tp1138
Rp1139
tp1140
a(g2
I81
g5
(g9
S'\x82\xa4Yn\x80\xe0^@'
p1141
tp1142
Rp1143
tp1144
a(g2
I82
g5
(g9
S'\xac\xc1\xea\x8a\xb21`@'
p1145
tp1146
Rp1147
tp1148
a(g2
I83
g5
(g9
S'\xecd\xcd9~BZ@'
p1149
tp1150
Rp1151
tp1152
a(g2
I84
g5
(g9
S'9\xb0\xcf\x8d \x98`@'
p1153
tp1154
Rp1155
tp1156
a(g2
I85
g5
(g9
S')\x1c\xd7\xde\xdc;]@'
p1157
tp1158
Rp1159
tp1160
a(g2
I86
g5
(g9
S'\x11\x9az\xb2\xbe\x0e]@'
p1161
tp1162
Rp1163
tp1164
a(g2
I87
g5
(g9
S',a\x03\x03M\xa5\\@'
p1165
tp1166
Rp1167
tp1168
a(g2
I88
g5
(g9
S'\xc5\x90\x04\xf9\x10N[@'
p1169
tp1170
Rp1171
tp1172
a(g2
I89
g5
(g9
S'-\xa3\x18\x13\xe9\xca\\@'
p1173
tp1174
Rp1175
tp1176
a(g2
I90
g5
(g9
S'\xe8\x07!\xd4\xd2d\\@'
p1177
tp1178
Rp1179
tp1180
a(g2
I91
g5
(g9
S'|\xe2\xc8\x19V\xafa@'
p1181
tp1182
Rp1183
tp1184
a(g2
I92
g5
(g9
S't\xc2;F\x03B]@'
p1185
tp1186
Rp1187
tp1188
a(g2
I93
g5
(g9
S'G\xf8\x05\x1ce\xf6\\@'
p1189
tp1190
Rp1191
tp1192
a(g2
I94
g5
(g9
S'\x92rc\t\x8av^@'
p1193
tp1194
Rp1195
tp1196
a(g2
I95
g5
(g9
S'\xf2H0\xf86\x8e[@'
p1197
tp1198
Rp1199
tp1200
a(g2
I96
g5
(g9
S'=(?\xc4\x13\x9c]@'
p1201
tp1202
Rp1203
tp1204
a(g2
I97
g5
(g9
S'2Os\xd3]\x0ea@'
p1205
tp1206
Rp1207
tp1208
a(g2
I98
g5
(g9
S'S\xd1t\x8d\x81T`@'
p1209
tp1210
Rp1211
tp1212
a(g2
I99
g5
(g9
S'\x85:\xaf\x10\xd3\x98`@'
p1213
tp1214
Rp1215
tp1216
a(g2
I100
g5
(g9
S'\xce\xcf\xb6\xb7\xd5\x9c]@'
p1217
tp1218
Rp1219
tp1220
a(g2
I101
g5
(g9
S'\xe3z\xbd\x1bj\xa9_@'
p1221
tp1222
Rp1223
tp1224
a(g2
I102
g5
(g9
S'/T\x92#\xa04`@'
p1225
tp1226
Rp1227
tp1228
a(g2
I103
g5
(g9
S'\xc6\xca\xbd\xcd\xc4\xc6Y@'
p1229
tp1230
Rp1231
tp1232
aa.