(lp0
(lp1
(S'week = '
p2
I0
I0
tp3
a(g2
I1
cnumpy.core.multiarray
scalar
p4
(cnumpy
dtype
p5
(S'f8'
p6
I0
I1
tp7
Rp8
(I3
S'<'
p9
NNNI-1
I-1
I0
tp10
bS'\x9c-\xb0.\x80PX@'
p11
tp12
Rp13
tp14
a(g2
I2
g4
(g8
S'?\x13\x18\xbb\xc6\xc8K@'
p15
tp16
Rp17
tp18
a(g2
I3
g4
(g8
S'\xb0\xb4+\xf9\xcc\xe87\xc0'
p19
tp20
Rp21
tp22
a(g2
I4
g4
(g8
S'\xf5\xd1\xb5\x1c\x0f\x83A@'
p23
tp24
Rp25
tp26
a(g2
I5
g4
(g8
S'|M\xad\xdc\x8c$e@'
p27
tp28
Rp29
tp30
a(g2
I6
I0
tp31
a(g2
I7
g4
(g8
S'm\xc6\x8b&R\xe8C@'
p32
tp33
Rp34
tp35
a(g2
I8
g4
(g8
S'\x00\x8e\x05\xf3\x92\xf3\xdf\xbf'
p36
tp37
Rp38
tp39
a(g2
I9
g4
(g8
S'\xf6{H\x90\xc3\x9cD@'
p40
tp41
Rp42
tp43
a(g2
I10
I0
tp44
a(g2
I11
g4
(g8
S'r\xceR\x83/\xd5K@'
p45
tp46
Rp47
tp48
a(g2
I12
I0
tp49
a(g2
I13
I0
tp50
a(g2
I14
g4
(g8
S'\x9b\xeb\xac\xc5\xf2xQ@'
p51
tp52
Rp53
tp54
a(g2
I15
g4
(g8
S'\xb0\x88\x12\xeda\x9bC@'
p55
tp56
Rp57
tp58
a(g2
I16
g4
(g8
S'xk\xe9V\xa7\x1bE@'
p59
tp60
Rp61
tp62
a(g2
I17
g4
(g8
S'\xa5I\x19\xba+;R@'
p63
tp64
Rp65
tp66
a(g2
I18
I0
tp67
a(g2
I19
g4
(g8
S'P\xfb*O\xacP=@'
p68
tp69
Rp70
tp71
a(g2
I20
g4
(g8
S'\x1d\x82&1\xb1\xf5B@'
p72
tp73
Rp74
tp75
a(g2
I21
g4
(g8
S'\x07\xa7p\x9a\x0fC9@'
p76
tp77
Rp78
tp79
a(g2
I22
g4
(g8
S'4\x9f\xf4}\xed@\x04@'
p80
tp81
Rp82
tp83
a(g2
I23
g4
(g8
S'(<\x01\xe3\t\xa8\x19@'
p84
tp85
Rp86
tp87
a(g2
I24
g4
(g8
S'\xa5\xdd\xdaPh\x06K@'
p88
tp89
Rp90
tp91
a(g2
I25
g4
(g8
S'\xd4\xb9D\xf6 {@@'
p92
tp93
Rp94
tp95
a(g2
I26
g4
(g8
S'I\x1c\xbbv\xc6\xdbU@'
p96
tp97
Rp98
tp99
a(g2
I27
g4
(g8
S'\xec\x06\xad\x04\xc2\x84L@'
p100
tp101
Rp102
tp103
a(g2
I28
g4
(g8
S'v\xb7g\x1b\x9d\xc4<@'
p104
tp105
Rp106
tp107
a(g2
I29
g4
(g8
S'/\xe6\xb8\xee\xbc\xdeF@'
p108
tp109
Rp110
tp111
a(g2
I30
g4
(g8
S'\xcbt\x19\xd4StF@'
p112
tp113
Rp114
tp115
a(g2
I31
g4
(g8
S'\xb7\x05*\xfc\xf5mD@'
p116
tp117
Rp118
tp119
a(g2
I32
g4
(g8
S'\xbc\xbf\x11\x16\xd5GU@'
p120
tp121
Rp122
tp123
a(g2
I33
g4
(g8
S'e\xda"\x7f\xc0bS@'
p124
tp125
Rp126
tp127
a(g2
I34
g4
(g8
S'\xbfKZ\xf7\xa2\xe3Z@'
p128
tp129
Rp130
tp131
a(g2
I35
g4
(g8
S'GGdS\xe32I@'
p132
tp133
Rp134
tp135
a(g2
I36
g4
(g8
S'=\x13\xd7he?P@'
p136
tp137
Rp138
tp139
a(g2
I37
g4
(g8
S'\x1c\xc0\x0fz\xa8DN@'
p140
tp141
Rp142
tp143
a(g2
I38
g4
(g8
S'\xa0\x9f\x05\xd3\xdbqA@'
p144
tp145
Rp146
tp147
a(g2
I39
g4
(g8
S'c\xc2&\xb9&\x80E@'
p148
tp149
Rp150
tp151
a(g2
I40
g4
(g8
S'\x8e\xcaP\xfc*\x91S@'
p152
tp153
Rp154
tp155
a(g2
I41
g4
(g8
S'x6\xf2\x16\x96\xf6K@'
p156
tp157
Rp158
tp159
a(g2
I42
g4
(g8
S'v\xbeWS\x04&G@'
p160
tp161
Rp162
tp163
a(g2
I43
g4
(g8
S'\x88\xd3Bf\xf8_F@'
p164
tp165
Rp166
tp167
a(g2
I44
g4
(g8
S'\xd1,\xbdn\xed\x8cF@'
p168
tp169
Rp170
tp171
a(g2
I45
g4
(g8
S'jS\xc2s\x12HP@'
p172
tp173
Rp174
tp175
a(g2
I46
g4
(g8
S'^\xd0\x0f\x194rS@'
p176
tp177
Rp178
tp179
a(g2
I47
g4
(g8
S'\x00\x10+[\xeb\xb3O@'
p180
tp181
Rp182
tp183
a(g2
I48
g4
(g8
S'\x0c\xaf\x82\xf6\x1a\xabN@'
p184
tp185
Rp186
tp187
a(g2
I49
g4
(g8
S'\xe8\x0b\xef]7qL@'
p188
tp189
Rp190
tp191
a(g2
I50
g4
(g8
S'\xea?`\xd0-?M@'
p192
tp193
Rp194
tp195
a(g2
I51
g4
(g8
S'QJ\x02\x86\xf1iM@'
p196
tp197
Rp198
tp199
a(g2
I52
g4
(g8
S'\xfaF\x82\xe4\x10\x80M@'
p200
tp201
Rp202
tp203
a(g2
I53
g4
(g8
S'\xddyo+\xc1\x06J@'
p204
tp205
Rp206
tp207
a(g2
I54
g4
(g8
S'\xe9y\xcf3\xe0\xccQ@'
p208
tp209
Rp210
tp211
a(g2
I55
g4
(g8
S'\x94\x86\xbc\xb7\x1cfL@'
p212
tp213
Rp214
tp215
a(g2
I56
g4
(g8
S'd\x94\xb44\xe9\x85Q@'
p216
tp217
Rp218
tp219
a(g2
I57
g4
(g8
S'noz\xe8\xab\xf8K@'
p220
tp221
Rp222
tp223
a(g2
I58
g4
(g8
S'y\xb0\xc3E:\xfeH@'
p224
tp225
Rp226
tp227
a(g2
I59
g4
(g8
S'\x85\x1dC\x18\xc1kP@'
p228
tp229
Rp230
tp231
a(g2
I60
g4
(g8
S'\x93\xdd\x82E\xb5\xbcJ@'
p232
tp233
Rp234
tp235
a(g2
I61
g4
(g8
S'\xc7\xc6\xf1\xefY\xcaN@'
p236
tp237
Rp238
tp239
a(g2
I62
g4
(g8
S"Yz\xdb'_\x10N@"
p240
tp241
Rp242
tp243
a(g2
I63
g4
(g8
S'\x13i\xe9\xcb\xd8\x15L@'
p244
tp245
Rp246
tp247
a(g2
I64
g4
(g8
S'\x8b\x90\x95\xe0\xeb\xe0N@'
p248
tp249
Rp250
tp251
a(g2
I65
g4
(g8
S'|\xe3\xcc\x9d\xcd5P@'
p252
tp253
Rp254
tp255
a(g2
I66
g4
(g8
S'\xbbf\xa1\xfe\xfbsP@'
p256
tp257
Rp258
tp259
a(g2
I67
g4
(g8
S'^\x14\xc6\x1c\x98\x8aK@'
p260
tp261
Rp262
tp263
a(g2
I68
g4
(g8
S'D\x14n\xcf\nYK@'
p264
tp265
Rp266
tp267
a(g2
I69
g4
(g8
S'H\xfa\xb4\x91\x04\x18P@'
p268
tp269
Rp270
tp271
a(g2
I70
g4
(g8
S'w\x00\xc5\x17c\x99I@'
p272
tp273
Rp274
tp275
a(g2
I71
g4
(g8
S'\r\xa5MS\x1f\xc8M@'
p276
tp277
Rp278
tp279
a(g2
I72
g4
(g8
S'GmR4\x14\xbfJ@'
p280
tp281
Rp282
tp283
a(g2
I73
g4
(g8
S'U\xe6\x8f\xcc4tN@'
p284
tp285
Rp286
tp287
a(g2
I74
g4
(g8
S'*\xbf\x8d\x8a\xf9\x8aK@'
p288
tp289
Rp290
tp291
a(g2
I75
g4
(g8
S'2c6\xad,\xc9O@'
p292
tp293
Rp294
tp295
a(g2
I76
g4
(g8
S'O\xadaA\x00\xd0N@'
p296
tp297
Rp298
tp299
a(g2
I77
g4
(g8
S'\xb1\xff\x03S\xa89J@'
p300
tp301
Rp302
tp303
a(g2
I78
g4
(g8
S'\xf7e\xc6\xeb\x10\xf3I@'
p304
tp305
Rp306
tp307
a(g2
I79
g4
(g8
S'\xe7<\xcc\xc4\x9b$M@'
p308
tp309
Rp310
tp311
a(g2
I80
g4
(g8
S'!\xach/\xdc\xc1M@'
p312
tp313
Rp314
tp315
a(g2
I81
g4
(g8
S'\xf6\xe6,\x11\x89\x80O@'
p316
tp317
Rp318
tp319
a(g2
I82
g4
(g8
S'\xe5\x87m-\x8f\xffJ@'
p320
tp321
Rp322
tp323
a(g2
I83
g4
(g8
S'\x0e\xff$\x0fZ\x8eL@'
p324
tp325
Rp326
tp327
a(g2
I84
g4
(g8
S'\x1e]B\x15\x05\xaeJ@'
p328
tp329
Rp330
tp331
a(g2
I85
g4
(g8
S'O\x93\xec,\x11eM@'
p332
tp333
Rp334
tp335
a(g2
I86
g4
(g8
S'\x1a<\x079\x94\x0cO@'
p336
tp337
Rp338
tp339
a(g2
I87
g4
(g8
S'\xd3\xcdL\xdd\x1c\xbeK@'
p340
tp341
Rp342
tp343
a(g2
I88
g4
(g8
S'\x0c\x9e\xb6\xe1\x80\xe1I@'
p344
tp345
Rp346
tp347
a(g2
I89
g4
(g8
S'\xcc\xfc_4$\x01M@'
p348
tp349
Rp350
tp351
a(g2
I90
g4
(g8
S't|\xdb"\xd6\xc9L@'
p352
tp353
Rp354
tp355
a(g2
I91
g4
(g8
S'\xcf\\{D\xa0\xb2J@'
p356
tp357
Rp358
tp359
a(g2
I92
g4
(g8
S'\x9f$\xb1\x02w>L@'
p360
tp361
Rp362
tp363
a(g2
I93
g4
(g8
S'\xd2\xdf\x8b\xdf\x99\xf4K@'
p364
tp365
Rp366
tp367
a(g2
I94
g4
(g8
S'#]#\x86\x98\xe3K@'
p368
tp369
Rp370
tp371
a(g2
I95
g4
(g8
S'\xc7\xe7\x8f\xf8\x84\x87L@'
p372
tp373
Rp374
tp375
a(g2
I96
g4
(g8
S'\xe3\xd4\x18Y\xa9\x15J@'
p376
tp377
Rp378
tp379
a(g2
I97
g4
(g8
S'\xcd\x01e\x03\r\xbbI@'
p380
tp381
Rp382
tp383
a(g2
I98
g4
(g8
S'0%\xb9\xb8\xa1\x19N@'
p384
tp385
Rp386
tp387
a(g2
I99
g4
(g8
S'K\x1c,"C\xc7M@'
p388
tp389
Rp390
tp391
a(g2
I100
g4
(g8
S'\x02\x1f\xe8u\tRJ@'
p392
tp393
Rp394
tp395
a(g2
I101
g4
(g8
S'\xa0~\xf0M\x89\xb2K@'
p396
tp397
Rp398
tp399
a(g2
I102
g4
(g8
S'\x06\xda\x0b\x81F{N@'
p400
tp401
Rp402
tp403
a(g2
I103
g4
(g8
S'\x0f\x99\xc9\xb5b&N@'
p404
tp405
Rp406
tp407
aa(lp408
(g2
I0
I0
tp409
a(g2
I1
g4
(g8
S'x\x96o\xd4\xe5\x837@'
p410
tp411
Rp412
tp413
a(g2
I2
I0
tp414
a(g2
I3
g4
(g8
S'j\xd8?\x92\xd5\xf8J@'
p415
tp416
Rp417
tp418
a(g2
I4
g4
(g8
S'\xc3Nd\x86\x19\xccH@'
p419
tp420
Rp421
tp422
a(g2
I5
I0
tp423
a(g2
I6
g4
(g8
S'tw\x8c\xd2\xcc,<@'
p424
tp425
Rp426
tp427
a(g2
I7
g4
(g8
S'\xd4\xcfp\xe7\xc5\xd86@'
p428
tp429
Rp430
tp431
a(g2
I8
g4
(g8
S'\\,\x0c\xb4o\x04(@'
p432
tp433
Rp434
tp435
a(g2
I9
g4
(g8
S'\xc0G\xf0\xc9#\xe7\x04@'
p436
tp437
Rp438
tp439
a(g2
I10
I0
tp440
a(g2
I11
g4
(g8
S'*\xa0\x00\xa5 \x165@'
p441
tp442
Rp443
tp444
a(g2
I12
g4
(g8
S'\x0e\xa4\xac\xa5\xbeW5@'
p445
tp446
Rp447
tp448
a(g2
I13
g4
(g8
S'\x98\xaeE>zIL@'
p449
tp450
Rp451
tp452
a(g2
I14
I0
tp453
a(g2
I15
g4
(g8
S'\xf4\x9d\x15K\x12\x01-@'
p454
tp455
Rp456
tp457
a(g2
I16
g4
(g8
S'@3X\x80\xc4\x8f:@'
p458
tp459
Rp460
tp461
a(g2
I17
g4
(g8
S'f\x1av\xab\xe9\xceL@'
p462
tp463
Rp464
tp465
a(g2
I18
g4
(g8
S'\xe3\x8f\xed\x9f\xb4lL@'
p466
tp467
Rp468
tp469
a(g2
I19
I0
tp470
a(g2
I20
I0
tp471
a(g2
I21
g4
(g8
S'X\x1bO\xb5S1N@'
p472
tp473
Rp474
tp475
a(g2
I22
g4
(g8
S'\x91p5\xee\xea\x9dF@'
p476
tp477
Rp478
tp479
a(g2
I23
g4
(g8
S'\x1c\x84"\x1d\x05\xd2I@'
p480
tp481
Rp482
tp483
a(g2
I24
g4
(g8
S'\x0e\x8e\xab4\xff>E@'
p484
tp485
Rp486
tp487
a(g2
I25
g4
(g8
S'ow\x1c\xd7A=Y@'
p488
tp489
Rp490
tp491
a(g2
I26
g4
(g8
S'T\x80\xdd\x03\xc8EZ@'
p492
tp493
Rp494
tp495
a(g2
I27
g4
(g8
S'\xe0r\x8b\xf5\xa8\xf4A@'
p496
tp497
Rp498
tp499
a(g2
I28
g4
(g8
S'\x80\xa1\t\x8f9\xf0I@'
p500
tp501
Rp502
tp503
a(g2
I29
g4
(g8
S'\xfc(\xa0E.\xa5X@'
p504
tp505
Rp506
tp507
a(g2
I30
g4
(g8
S'?\xd0O\x10\xaeGY@'
p508
tp509
Rp510
tp511
a(g2
I31
g4
(g8
S'\xed\x83\xdb\x14I\x9d?@'
p512
tp513
Rp514
tp515
a(g2
I32
g4
(g8
S'f\t\xaf\xe4\xa2lT@'
p516
tp517
Rp518
tp519
a(g2
I33
g4
(g8
S'!\\\xdb\x81\x18\xfbH@'
p520
tp521
Rp522
tp523
a(g2
I34
g4
(g8
S'\xd6\x1c\xa9Sw\x85D@'
p524
tp525
Rp526
tp527
a(g2
I35
g4
(g8
S'\x17\xe8C.d8G@'
p528
tp529
Rp530
tp531
a(g2
I36
g4
(g8
S'\xb6\x04\xbb<\xb9\x85P@'
p532
tp533
Rp534
tp535
a(g2
I37
g4
(g8
S'\x7f#W\xda+\xc0S@'
p536
tp537
Rp538
tp539
a(g2
I38
g4
(g8
S'A\xeaP\x0f\x1e\xfd[@'
p540
tp541
Rp542
tp543
a(g2
I39
g4
(g8
S'1\xe1G0r\xd5@@'
p544
tp545
Rp546
tp547
a(g2
I40
g4
(g8
S'Y\x1e\x1c\xc9H,F@'
p548
tp549
Rp550
tp551
a(g2
I41
g4
(g8
S'\xdbL\xdc\x86\xa6\x0c?@'
p552
tp553
Rp554
tp555
a(g2
I42
g4
(g8
S'\xd1\x05\n\x08k\xb1H@'
p556
tp557
Rp558
tp559
a(g2
I43
g4
(g8
S'9\x18\x93\xe6\xd32G@'
p560
tp561
Rp562
tp563
a(g2
I44
g4
(g8
S'\xbeF\xc1\xf6\t!Q@'
p564
tp565
Rp566
tp567
a(g2
I45
g4
(g8
S'\xfd\x03E\x01\x01`J@'
p568
tp569
Rp570
tp571
a(g2
I46
g4
(g8
S'7L\xc40-\x13G@'
p572
tp573
Rp574
tp575
a(g2
I47
g4
(g8
S'\x05\x8ac\x96\xff\xefM@'
p576
tp577
Rp578
tp579
a(g2
I48
g4
(g8
S'.\xe3\xbe<i\xdbO@'
p580
tp581
Rp582
tp583
a(g2
I49
g4
(g8
S'\xdb\xb2\xa7\x87\xe4ZT@'
p584
tp585
Rp586
tp587
a(g2
I50
g4
(g8
S'\xd4\x92\xfa\x83\x14gN@'
p588
tp589
Rp590
tp591
a(g2
I51
g4
(g8
S'\xcb\xf0\x1c4\xb7\xd3H@'
p592
tp593
Rp594
tp595
a(g2
I52
g4
(g8
S'\x16,\xe1\x922aN@'
p596
tp597
Rp598
tp599
a(g2
I53
g4
(g8
S'?\xd4V\xcb\xea\xeaG@'
p600
tp601
Rp602
tp603
a(g2
I54
g4
(g8
S'\xd4v\xfc\xa8K\x1cO@'
p604
tp605
Rp606
tp607
a(g2
I55
g4
(g8
S'NtL\xc6*\x85M@'
p608
tp609
Rp610
tp611
a(g2
I56
g4
(g8
S'9M4\xf7\x1f\xcaK@'
p612
tp613
Rp614
tp615
a(g2
I57
g4
(g8
S'\xa4\xffa\x013\x01L@'
p616
tp617
Rp618
tp619
a(g2
I58
g4
(g8
S'\\R\xd4\xca\xd7\xf2N@'
p620
tp621
Rp622
tp623
a(g2
I59
g4
(g8
S'\xcc/r\xb1\x1a\x82M@'
p624
tp625
Rp626
tp627
a(g2
I60
g4
(g8
S'\r\xbf6\xbc}\xedO@'
p628
tp629
Rp630
tp631
a(g2
I61
g4
(g8
S'\x0f\xa1V\x9c\t\xb5N@'
p632
tp633
Rp634
tp635
a(g2
I62
g4
(g8
S'\xc0\x16\xf46!cO@'
p636
tp637
Rp638
tp639
a(g2
I63
g4
(g8
S'\xf7\xca\x0bnF(J@'
p640
tp641
Rp642
tp643
a(g2
I64
g4
(g8
S'd\xfc\xf2\x06\xb4\xe0L@'
p644
tp645
Rp646
tp647
a(g2
I65
g4
(g8
S'\xf2\xc7\x9f5\x1d\xb5N@'
p648
tp649
Rp650
tp651
a(g2
I66
g4
(g8
S'\xdc\xb8\x8c\x8a4$P@'
p652
tp653
Rp654
tp655
a(g2
I67
g4
(g8
S'\xe7\xdd\xac\xba\xbe\x96H@'
p656
tp657
Rp658
tp659
a(g2
I68
g4
(g8
S'\xa3\xac\xa7\xc9\r\xdbK@'
p660
tp661
Rp662
tp663
a(g2
I69
g4
(g8
S'\x0bb\x03\x9b\x86\x18N@'
p664
tp665
Rp666
tp667
a(g2
I70
g4
(g8
S'rl\x1ai\x1f\x13K@'
p668
tp669
Rp670
tp671
a(g2
I71
g4
(g8
S'\xa6~\xc3\xf3)QL@'
p672
tp673
Rp674
tp675
a(g2
I72
g4
(g8
S'7\xd4\xc1\x7fx\x9aK@'
p676
tp677
Rp678
tp679
a(g2
I73
g4
(g8
S'\xed=S,|\xc0J@'
p680
tp681
Rp682
tp683
a(g2
I74
g4
(g8
S'M;\xad\xc4D\x16M@'
p684
tp685
Rp686
tp687
a(g2
I75
g4
(g8
S'.\\8{F\xb4N@'
p688
tp689
Rp690
tp691
a(g2
I76
g4
(g8
S'\xaf\x0f\xf5k\xcd\xfeK@'
p692
tp693
Rp694
tp695
a(g2
I77
g4
(g8
S'\xcd/\xd7\xf4gfI@'
p696
tp697
Rp698
tp699
a(g2
I78
g4
(g8
S'\xf5z\x91\ti\x1eK@'
p700
tp701
Rp702
tp703
a(g2
I79
g4
(g8
S't\xa1/`\xe7\x05I@'
p704
tp705
Rp706
tp707
a(g2
I80
g4
(g8
S'2n|E\x00"J@'
p708
tp709
Rp710
tp711
a(g2
I81
g4
(g8
S"'&@\xfd\x13dM@"
p712
tp713
Rp714
tp715
a(g2
I82
g4
(g8
S'\xf5\xcd\xdf\x15\xf9\xa2M@'
p716
tp717
Rp718
tp719
a(g2
I83
g4
(g8
S'\x95\xe4\x8a\xa70^L@'
p720
tp721
Rp722
tp723
a(g2
I84
g4
(g8
S'\xff\x0b\xe2[\x08tK@'
p724
tp725
Rp726
tp727
a(g2
I85
g4
(g8
S'YK3\x15\xc6aN@'
p728
tp729
Rp730
tp731
a(g2
I86
g4
(g8
S'mH\x0b\x14X\xb7I@'
p732
tp733
Rp734
tp735
a(g2
I87
g4
(g8
S'Y|\x12\x8b}\xc1I@'
p736
tp737
Rp738
tp739
a(g2
I88
g4
(g8
S'\xa3D\x960\x18\xd3K@'
p740
tp741
Rp742
tp743
a(g2
I89
g4
(g8
S's\x13\x84\xc7\x03\x89I@'
p744
tp745
Rp746
tp747
a(g2
I90
g4
(g8
S'H[l7\xe8\x8bK@'
p748
tp749
Rp750
tp751
a(g2
I91
g4
(g8
S'\xdd\xd8\xf7\x08\x8f"N@'
p752
tp753
Rp754
tp755
a(g2
I92
g4
(g8
S'\x1fR\xc5.\x91bK@'
p756
tp757
Rp758
tp759
a(g2
I93
g4
(g8
S'\xa6*\xe5\x8fO\xc1K@'
p760
tp761
Rp762
tp763
a(g2
I94
g4
(g8
S'\xdb\x80\xbd\x86~\xe3N@'
p764
tp765
Rp766
tp767
a(g2
I95
g4
(g8
S'Y^\x83!\xe3\xfaM@'
p768
tp769
Rp770
tp771
a(g2
I96
g4
(g8
S'x\x9bQ\x9c>{M@'
p772
tp773
Rp774
tp775
a(g2
I97
g4
(g8
S'\xe8V\xe8\xba\xc5\x8fK@'
p776
tp777
Rp778
tp779
a(g2
I98
g4
(g8
S'\xe4:|\x91\xf6:L@'
p780
tp781
Rp782
tp783
a(g2
I99
g4
(g8
S"\xffS\\N'\xdaM@"
p784
tp785
Rp786
tp787
a(g2
I100
g4
(g8
S'\xbdw\xe2\xd8\x0bbM@'
p788
tp789
Rp790
tp791
a(g2
I101
g4
(g8
S' \x82\xe0\xd2\x9b\xb5M@'
p792
tp793
Rp794
tp795
a(g2
I102
g4
(g8
S',n</7iN@'
p796
tp797
Rp798
tp799
a(g2
I103
g4
(g8
S'\xb3\t\xf7\xea+^M@'
p800
tp801
Rp802
tp803
aa(lp804
(g2
I0
I0
tp805
a(g2
I1
g4
(g8
S'\r\xec\xd2\x87~\xa0Q@'
p806
tp807
Rp808
tp809
a(g2
I2
I0
tp810
a(g2
I3
g4
(g8
S'&\x85\x91\x9c(\xdeU@'
p811
tp812
Rp813
tp814
a(g2
I4
I0
tp815
a(g2
I5
g4
(g8
S'\\d\x80^\xcaH,@'
p816
tp817
Rp818
tp819
a(g2
I6
I0
tp820
a(g2
I7
g4
(g8
S'\x98]dq\x14ur@'
p821
tp822
Rp823
tp824
a(g2
I8
g4
(g8
S'\xda\x17x\x9a\xd7mM@'
p825
tp826
Rp827
tp828
a(g2
I9
g4
(g8
S"\x8a'=\xcc\xcdjK@"
p829
tp830
Rp831
tp832
a(g2
I10
g4
(g8
S'H\xd4\xb7\xa5\xa3\xf4&@'
p833
tp834
Rp835
tp836
a(g2
I11
g4
(g8
S'\xe3uj\x1d\x7f\xf2?@'
p837
tp838
Rp839
tp840
a(g2
I12
g4
(g8
S'\rX\xff\x9e.}J@'
p841
tp842
Rp843
tp844
a(g2
I13
g4
(g8
S'6\x95\xe1\x8b;BF@'
p845
tp846
Rp847
tp848
a(g2
I14
g4
(g8
S'nO\xafhF\x07H@'
p849
tp850
Rp851
tp852
a(g2
I15
g4
(g8
S'\xaf72|\x13cP@'
p853
tp854
Rp855
tp856
a(g2
I16
g4
(g8
S'p\x8fF\xf1\x8a#G@'
p857
tp858
Rp859
tp860
a(g2
I17
g4
(g8
S'\xf5\x9e\xa6\x8d\xb1\x0b>@'
p861
tp862
Rp863
tp864
a(g2
I18
g4
(g8
S'\xd8>P\xa3\xf4\xc6%@'
p865
tp866
Rp867
tp868
a(g2
I19
g4
(g8
S'\xf6x\x85\xf7\xd3:N@'
p869
tp870
Rp871
tp872
a(g2
I20
g4
(g8
S'\x0e\x93\x8e\xaf\x99\xf4L@'
p873
tp874
Rp875
tp876
a(g2
I21
g4
(g8
S"}b\x17+\x85\x17'@"
p877
tp878
Rp879
tp880
a(g2
I22
g4
(g8
S'\xbb<\x7f\xc2\xe3?K@'
p881
tp882
Rp883
tp884
a(g2
I23
g4
(g8
S'\x9e\x89\x03\xa2R\xd7C@'
p885
tp886
Rp887
tp888
a(g2
I24
g4
(g8
S'\x08\xcf\xb6\xc4\xec\xfb-@'
p889
tp890
Rp891
tp892
a(g2
I25
g4
(g8
S'\xad\xa7\xbe\n\\\xe7P@'
p893
tp894
Rp895
tp896
a(g2
I26
g4
(g8
S'\xc7\xf6\xfc\xc6%\x8bT@'
p897
tp898
Rp899
tp900
a(g2
I27
g4
(g8
S'+ wJH\xb9J@'
p901
tp902
Rp903
tp904
a(g2
I28
g4
(g8
S'\xc0=\x0c\x0c\x9a\xd68@'
p905
tp906
Rp907
tp908
a(g2
I29
g4
(g8
S'\xba\x9d\x86QYC;@'
p909
tp910
Rp911
tp912
a(g2
I30
g4
(g8
S'\x97\x03\xee=\\AI@'
p913
tp914
Rp915
tp916
a(g2
I31
g4
(g8
S'[\xb1\xf0\xf4\xda(R@'
p917
tp918
Rp919
tp920
a(g2
I32
g4
(g8
S'"\x89U\xf93,O@'
p921
tp922
Rp923
tp924
a(g2
I33
g4
(g8
S'Q\x81t\xaa\xffEL@'
p925
tp926
Rp927
tp928
a(g2
I34
g4
(g8
S'\xc9\x8fQ\x11OcO@'
p929
tp930
Rp931
tp932
a(g2
I35
g4
(g8
S'\r\xbbZ\xdc\xeajG@'
p933
tp934
Rp935
tp936
a(g2
I36
g4
(g8
S'n\xbc\xd1\xdb\xc1\xdfS@'
p937
tp938
Rp939
tp940
a(g2
I37
g4
(g8
S'1\x0fg\x92\xc8\x1cR@'
p941
tp942
Rp943
tp944
a(g2
I38
g4
(g8
S'\x0e\t\xf6\x88D\x85L@'
p945
tp946
Rp947
tp948
a(g2
I39
g4
(g8
S'!;\xbe\x81\x9e\xa2H@'
p949
tp950
Rp951
tp952
a(g2
I40
g4
(g8
S'\x171\x80\x1e\x19DO@'
p953
tp954
Rp955
tp956
a(g2
I41
g4
(g8
S'\x9fKP`R\xbcP@'
p957
tp958
Rp959
tp960
a(g2
I42
g4
(g8
S'\x97~l\t\xabmK@'
p961
tp962
Rp963
tp964
a(g2
I43
g4
(g8
S'\x88\xb3\xcb\x82~\x02I@'
p965
tp966
Rp967
tp968
a(g2
I44
g4
(g8
S'\x03\xe85H\xcf:R@'
p969
tp970
Rp971
tp972
a(g2
I45
g4
(g8
S':\x8a\xabTUOQ@'
p973
tp974
Rp975
tp976
a(g2
I46
g4
(g8
S'\x8d"\x04\x88\xac\xd1N@'
p977
tp978
Rp979
tp980
a(g2
I47
g4
(g8
S'\xbfw&\xf4i~O@'
p981
tp982
Rp983
tp984
a(g2
I48
g4
(g8
S'\x81\x1b\xe1o\xb4|P@'
p985
tp986
Rp987
tp988
a(g2
I49
g4
(g8
S'\x00.\xca\x04\xb1FK@'
p989
tp990
Rp991
tp992
a(g2
I50
g4
(g8
S'\xc2ZZT\x8bkE@'
p993
tp994
Rp995
tp996
a(g2
I51
g4
(g8
S'\xack`\xa66*N@'
p997
tp998
Rp999
tp1000
a(g2
I52
g4
(g8
S'f\xf3q\x99\x99@P@'
p1001
tp1002
Rp1003
tp1004
a(g2
I53
g4
(g8
S'k{\xac0\x83]J@'
p1005
tp1006
Rp1007
tp1008
a(g2
I54
g4
(g8
S'L&c\xc6ntR@'
p1009
tp1010
Rp1011
tp1012
a(g2
I55
g4
(g8
S'Q\x0cg\xc4\xdc(M@'
p1013
tp1014
Rp1015
tp1016
a(g2
I56
g4
(g8
S'\xd2\xa0Wp"rN@'
p1017
tp1018
Rp1019
tp1020
a(g2
I57
g4
(g8
S'\x8e\xcb\xf0\x162\x1eL@'
p1021
tp1022
Rp1023
tp1024
a(g2
I58
g4
(g8
S'\x1f(\x05\xd8\xaa\xe0J@'
p1025
tp1026
Rp1027
tp1028
a(g2
I59
g4
(g8
S'\xea5\x8aF\xf8RF@'
p1029
tp1030
Rp1031
tp1032
a(g2
I60
g4
(g8
S'\x88$<\xfa\xbb\xcdL@'
p1033
tp1034
Rp1035
tp1036
a(g2
I61
g4
(g8
S'\x0c)w*;TG@'
p1037
tp1038
Rp1039
tp1040
a(g2
I62
g4
(g8
S'\xa6\x7f\\1\xf3MQ@'
p1041
tp1042
Rp1043
tp1044
a(g2
I63
g4
(g8
S'\x9b\xbeG\xcdx\xd8P@'
p1045
tp1046
Rp1047
tp1048
a(g2
I64
g4
(g8
S'\x90[\x06R\xda N@'
p1049
tp1050
Rp1051
tp1052
a(g2
I65
g4
(g8
S'\x86\xd4\x84\xc3\xa8\xf1K@'
p1053
tp1054
Rp1055
tp1056
a(g2
I66
g4
(g8
S'-\x07\xa8)\xad\xcdG@'
p1057
tp1058
Rp1059
tp1060
a(g2
I67
g4
(g8
S'\xa1\x07\xd1\xafr\x8eO@'
p1061
tp1062
Rp1063
tp1064
a(g2
I68
g4
(g8
S'\xba\xcb\x9f\x10bsN@'
p1065
tp1066
Rp1067
tp1068
a(g2
I69
g4
(g8
S'\xc0pe\xdc\xd7\x08P@'
p1069
tp1070
Rp1071
tp1072
a(g2
I70
g4
(g8
S'3Y\xa2\xc2\xf0)I@'
p1073
tp1074
Rp1075
tp1076
a(g2
I71
g4
(g8
S'\x07\xcd8\xa0\xec\xccN@'
p1077
tp1078
Rp1079
tp1080
a(g2
I72
g4
(g8
S'^\xec8\xf6\n$K@'
p1081
tp1082
Rp1083
tp1084
a(g2
I73
g4
(g8
S'Y\xa0\x9fA\xa2\x1dP@'
p1085
tp1086
Rp1087
tp1088
a(g2
I74
g4
(g8
S'\x91p\xa8L\xc7\xebK@'
p1089
tp1090
Rp1091
tp1092
a(g2
I75
g4
(g8
S'A\x08N\xc9\xbb`O@'
p1093
tp1094
Rp1095
tp1096
a(g2
I76
g4
(g8
S'#\xb7rEc\xe8K@'
p1097
tp1098
Rp1099
tp1100
a(g2
I77
g4
(g8
S'\xcb\x9b\x1e\x90\xfb\xa2L@'
p1101
tp1102
Rp1103
tp1104
a(g2
I78
g4
(g8
S'\xd0\x97\xc4\xe8\xca\x05K@'
p1105
tp1106
Rp1107
tp1108
a(g2
I79
g4
(g8
S'\xd4C\xf0a\x9d\xbbG@'
p1109
tp1110
Rp1111
tp1112
a(g2
I80
g4
(g8
S'\xe7\x87 \x98\xcf\x8fP@'
p1113
tp1114
Rp1115
tp1116
a(g2
I81
g4
(g8
S'\xa5\xbe\x85\x8e\xff5K@'
p1117
tp1118
Rp1119
tp1120
a(g2
I82
g4
(g8
S'\x83\xd7\xca\xe1X\x8fH@'
p1121
tp1122
Rp1123
tp1124
a(g2
I83
g4
(g8
S'V_\x1f7\xc6\xb9N@'
p1125
tp1126
Rp1127
tp1128
a(g2
I84
g4
(g8
S'\x96\x0b\xac+\xdb\x8cK@'
p1129
tp1130
Rp1131
tp1132
a(g2
I85
g4
(g8
S'\x1dPRNB;M@'
p1133
tp1134
Rp1135
tp1136
a(g2
I86
g4
(g8
S'8\x06\x04\xe6?KP@'
p1137
tp1138
Rp1139
tp1140
a(g2
I87
g4
(g8
S'\xe8\xb3\xc0\xb5]\x9aK@'
p1141
tp1142
Rp1143
tp1144
a(g2
I88
g4
(g8
S'\x19/\xa2j\xd0_P@'
p1145
tp1146
Rp1147
tp1148
a(g2
I89
g4
(g8
S'3\x00\r\xc3\xfc\xc4J@'
p1149
tp1150
Rp1151
tp1152
a(g2
I90
g4
(g8
S'\xef\xb7\xbf\x92[\xc3M@'
p1153
tp1154
Rp1155
tp1156
a(g2
I91
g4
(g8
S'\xbcg\xf7\xb5\xe5\xcdL@'
p1157
tp1158
Rp1159
tp1160
a(g2
I92
g4
(g8
S'\x1e\x90\xf8t\xb4rL@'
p1161
tp1162
Rp1163
tp1164
a(g2
I93
g4
(g8
S'\xcbK%%\xa71L@'
p1165
tp1166
Rp1167
tp1168
a(g2
I94
g4
(g8
S'\x82\xaa\x84\x84\xcbQM@'
p1169
tp1170
Rp1171
tp1172
a(g2
I95
g4
(g8
S'qD{\xdb#mL@'
p1173
tp1174
Rp1175
tp1176
a(g2
I96
g4
(g8
S'\x9e!\xac\x1cs\xeaP@'
p1177
tp1178
Rp1179
tp1180
a(g2
I97
g4
(g8
S'i\xbc\xdd\xef\xb6vM@'
p1181
tp1182
Rp1183
tp1184
a(g2
I98
g4
(g8
S'\x92G,pw\x11N@'
p1185
tp1186
Rp1187
tp1188
a(g2
I99
g4
(g8
S'\x05k\xbc\xf1\xe6\xa8L@'
p1189
tp1190
Rp1191
tp1192
a(g2
I100
g4
(g8
S'p \xbc\xc6=\x84K@'
p1193
tp1194
Rp1195
tp1196
a(g2
I101
g4
(g8
S'\xfd\x1a\xc7\xda\x18\xd6M@'
p1197
tp1198
Rp1199
tp1200
a(g2
I102
g4
(g8
S')i1\x84\xf2\x95L@'
p1201
tp1202
Rp1203
tp1204
a(g2
I103
g4
(g8
S'\r\xed\xf2\xac@\x06O@'
p1205
tp1206
Rp1207
tp1208
aa.