(lp0
(lp1
(S'week = '
p2
I0
I0
tp3
a(g2
I1
I0
tp4
a(g2
I2
I0
tp5
a(g2
I3
I0
tp6
a(g2
I4
I0
tp7
a(g2
I5
I0
tp8
a(g2
I6
I0
tp9
a(g2
I7
I0
tp10
a(g2
I8
I0
tp11
a(g2
I9
I0
tp12
a(g2
I10
I0
tp13
a(g2
I11
I0
tp14
a(g2
I12
I0
tp15
a(g2
I13
I0
tp16
a(g2
I14
I0
tp17
a(g2
I15
I0
tp18
a(g2
I16
I0
tp19
a(g2
I17
I0
tp20
a(g2
I18
I0
tp21
a(g2
I19
I0
tp22
a(g2
I20
I0
tp23
a(g2
I21
I0
tp24
a(g2
I22
I0
tp25
a(g2
I23
I0
tp26
a(g2
I24
I0
tp27
a(g2
I25
I0
tp28
a(g2
I26
I0
tp29
a(g2
I27
I0
tp30
a(g2
I28
I0
tp31
a(g2
I29
I0
tp32
a(g2
I30
I0
tp33
a(g2
I31
I0
tp34
a(g2
I32
I0
tp35
a(g2
I33
I0
tp36
a(g2
I34
I0
tp37
a(g2
I35
I0
tp38
a(g2
I36
I0
tp39
a(g2
I37
cnumpy.core.multiarray
scalar
p40
(cnumpy
dtype
p41
(S'f8'
p42
I0
I1
tp43
Rp44
(I3
S'<'
p45
NNNI-1
I-1
I0
tp46
bS'B\x0e\xca\x11\xbc\xc1d@'
p47
tp48
Rp49
tp50
a(g2
I38
I0
tp51
a(g2
I39
I0
tp52
a(g2
I40
g40
(g44
S'\x80\xbf\xc1[\xb4\x8c,@'
p53
tp54
Rp55
tp56
a(g2
I41
I0
tp57
a(g2
I42
I0
tp58
a(g2
I43
g40
(g44
S'@\x06\xb5\xcb\n\\,@'
p59
tp60
Rp61
tp62
a(g2
I44
I0
tp63
a(g2
I45
g40
(g44
S'\xa7\x9aTJ\xec]W@'
p64
tp65
Rp66
tp67
a(g2
I46
I0
tp68
a(g2
I47
g40
(g44
S'\xc06\xa2+\xb4\xae5@'
p69
tp70
Rp71
tp72
a(g2
I48
I0
tp73
a(g2
I49
g40
(g44
S'|\xe5\xe2\xfd\x02\xbeh@'
p74
tp75
Rp76
tp77
a(g2
I50
I0
tp78
a(g2
I51
g40
(g44
S'\xab|\x05\xfc\xb7_>@'
p79
tp80
Rp81
tp82
a(g2
I52
g40
(g44
S'\xdc\x83{\xf2\xef\x01\xfc?'
p83
tp84
Rp85
tp86
a(g2
I53
g40
(g44
S'7v\xd7\t\xe0\xc1S@'
p87
tp88
Rp89
tp90
a(g2
I54
g40
(g44
S'$\x8b\xf28\t\\J@'
p91
tp92
Rp93
tp94
a(g2
I55
g40
(g44
S'Y\x97o\x1f[8P@'
p95
tp96
Rp97
tp98
a(g2
I56
g40
(g44
S'q\xa1m<\xa5\x11Q@'
p99
tp100
Rp101
tp102
a(g2
I57
g40
(g44
S'\xd18\xc3\x07\xcb6U@'
p103
tp104
Rp105
tp106
a(g2
I58
g40
(g44
S'=pli\xe3\xc4P@'
p107
tp108
Rp109
tp110
a(g2
I59
g40
(g44
S'\xef\x1e\x06F\x80\x13M@'
p111
tp112
Rp113
tp114
a(g2
I60
g40
(g44
S'\xd3\xfe\x03\xa8\x8b\xf9`@'
p115
tp116
Rp117
tp118
a(g2
I61
g40
(g44
S'\x87:\xac-\xcb\xc7R@'
p119
tp120
Rp121
tp122
a(g2
I62
g40
(g44
S'\x11x\x0e\xe0x|S@'
p123
tp124
Rp125
tp126
a(g2
I63
g40
(g44
S'\xf0\xe6\xb1O \x15Q@'
p127
tp128
Rp129
tp130
a(g2
I64
g40
(g44
S'=6\x08.\x13\xaaY@'
p131
tp132
Rp133
tp134
a(g2
I65
g40
(g44
S'\xd5o\x11#nNP@'
p135
tp136
Rp137
tp138
a(g2
I66
g40
(g44
S'\xceM\xce;\xdb\xa5S@'
p139
tp140
Rp141
tp142
a(g2
I67
g40
(g44
S'\xc9\xa4V&\x0b\xe9U@'
p143
tp144
Rp145
tp146
a(g2
I68
g40
(g44
S'F\xce\xa1\x8a\x9c\x90T@'
p147
tp148
Rp149
tp150
a(g2
I69
g40
(g44
S'\x0b\x92\x0bi\x02=L@'
p151
tp152
Rp153
tp154
a(g2
I70
g40
(g44
S'a\x98\xe1\x175\x1aT@'
p155
tp156
Rp157
tp158
a(g2
I71
g40
(g44
S'E"v\x92\x00\xa0T@'
p159
tp160
Rp161
tp162
a(g2
I72
g40
(g44
S'D\xe3\xde\x16\xad\xd1T@'
p163
tp164
Rp165
tp166
a(g2
I73
g40
(g44
S'\xda\xd8\xa5XY\x8aT@'
p167
tp168
Rp169
tp170
a(g2
I74
g40
(g44
S'}J\xa6\x1aQ\xc2S@'
p171
tp172
Rp173
tp174
a(g2
I75
g40
(g44
S'L{`;\x07\xa6T@'
p175
tp176
Rp177
tp178
a(g2
I76
g40
(g44
S'\xf6C\xbc\x8f\x0c\x92R@'
p179
tp180
Rp181
tp182
a(g2
I77
g40
(g44
S'E\xf0\x07Ss$W@'
p183
tp184
Rp185
tp186
a(g2
I78
g40
(g44
S'\x91,\xfeJ\xce|S@'
p187
tp188
Rp189
tp190
a(g2
I79
g40
(g44
S'\xcf\x91\xe5\x01\x03RQ@'
p191
tp192
Rp193
tp194
a(g2
I80
g40
(g44
S'*+\xfb\x04&\x90Q@'
p195
tp196
Rp197
tp198
a(g2
I81
g40
(g44
S'\x80Tp\xa0\x0c$[@'
p199
tp200
Rp201
tp202
a(g2
I82
g40
(g44
S'\xe5\x85t\x81\xea>T@'
p203
tp204
Rp205
tp206
a(g2
I83
g40
(g44
S'P\x94,\xeec\xadR@'
p207
tp208
Rp209
tp210
a(g2
I84
g40
(g44
S'\x7f=\xdc\xc6\xee]U@'
p211
tp212
Rp213
tp214
a(g2
I85
g40
(g44
S'\xcd\x7f\x8c\x88\x07\xc9P@'
p215
tp216
Rp217
tp218
a(g2
I86
g40
(g44
S'\xeb\x19\xa3>\xfeFU@'
p219
tp220
Rp221
tp222
a(g2
I87
g40
(g44
S'\xf6\x1a\xf3\x9f\x83\x8aV@'
p223
tp224
Rp225
tp226
a(g2
I88
g40
(g44
S'\x99\xcc\xea\xbb\x12\x1fV@'
p227
tp228
Rp229
tp230
a(g2
I89
g40
(g44
S'\xfe\xdd\xd5,\x91\xefP@'
p231
tp232
Rp233
tp234
a(g2
I90
g40
(g44
S'\xd4\xf0&\xaa\xe2\xc9R@'
p235
tp236
Rp237
tp238
a(g2
I91
g40
(g44
S'\xc7\xb1c\xda00W@'
p239
tp240
Rp241
tp242
a(g2
I92
g40
(g44
S'U_\x91\xb6\xfb#T@'
p243
tp244
Rp245
tp246
a(g2
I93
g40
(g44
S'\x1eM\x93=I\xeeS@'
p247
tp248
Rp249
tp250
a(g2
I94
g40
(g44
S'\r\x18\x0e\x89!\xa7R@'
p251
tp252
Rp253
tp254
a(g2
I95
g40
(g44
S'=\xb5zI\xd3\x9eT@'
p255
tp256
Rp257
tp258
a(g2
I96
g40
(g44
S'*\x1fb:"\xa1Z@'
p259
tp260
Rp261
tp262
a(g2
I97
g40
(g44
S'\x14\x95y\r\xb4mP@'
p263
tp264
Rp265
tp266
a(g2
I98
g40
(g44
S'\xfe\xdd7j{\x12S@'
p267
tp268
Rp269
tp270
a(g2
I99
g40
(g44
S'`3#P=\x95Q@'
p271
tp272
Rp273
tp274
a(g2
I100
g40
(g44
S'\xa5\xecLv\x13\x8cU@'
p275
tp276
Rp277
tp278
a(g2
I101
g40
(g44
S'\xa6\xe5\xcf\xc3x\x9e[@'
p279
tp280
Rp281
tp282
a(g2
I102
g40
(g44
S'tQ\xf2\xbd\xee\x04S@'
p283
tp284
Rp285
tp286
a(g2
I103
g40
(g44
S"\xb5)8'h\xeaQ@"
p287
tp288
Rp289
tp290
aa(lp291
(g2
I0
I0
tp292
a(g2
I1
I0
tp293
a(g2
I2
I0
tp294
a(g2
I3
I0
tp295
a(g2
I4
I0
tp296
a(g2
I5
I0
tp297
a(g2
I6
I0
tp298
a(g2
I7
I0
tp299
a(g2
I8
I0
tp300
a(g2
I9
I0
tp301
a(g2
I10
I0
tp302
a(g2
I11
I0
tp303
a(g2
I12
I0
tp304
a(g2
I13
I0
tp305
a(g2
I14
I0
tp306
a(g2
I15
I0
tp307
a(g2
I16
I0
tp308
a(g2
I17
I0
tp309
a(g2
I18
I0
tp310
a(g2
I19
I0
tp311
a(g2
I20
I0
tp312
a(g2
I21
I0
tp313
a(g2
I22
I0
tp314
a(g2
I23
I0
tp315
a(g2
I24
I0
tp316
a(g2
I25
I0
tp317
a(g2
I26
I0
tp318
a(g2
I27
I0
tp319
a(g2
I28
I0
tp320
a(g2
I29
I0
tp321
a(g2
I30
I0
tp322
a(g2
I31
I0
tp323
a(g2
I32
I0
tp324
a(g2
I33
g40
(g44
S'\xeci\xf0\xad\xd8"3@'
p325
tp326
Rp327
tp328
a(g2
I34
I0
tp329
a(g2
I35
I0
tp330
a(g2
I36
I0
tp331
a(g2
I37
I0
tp332
a(g2
I38
I0
tp333
a(g2
I39
I0
tp334
a(g2
I40
g40
(g44
S'\x8c\x01\xb7\x9a6\x83%@'
p335
tp336
Rp337
tp338
a(g2
I41
I0
tp339
a(g2
I42
I0
tp340
a(g2
I43
g40
(g44
S'H]\xdc[\x1cT\x82@'
p341
tp342
Rp343
tp344
a(g2
I44
g40
(g44
S'D\xd6l\xedN\x97K@'
p345
tp346
Rp347
tp348
a(g2
I45
I0
tp349
a(g2
I46
g40
(g44
S'\xf8W[c\xe7\x95\x17\xc0'
p350
tp351
Rp352
tp353
a(g2
I47
I0
tp354
a(g2
I48
I0
tp355
a(g2
I49
I0
tp356
a(g2
I50
g40
(g44
S'n\xdd9\xff\x12\x1eH@'
p357
tp358
Rp359
tp360
a(g2
I51
g40
(g44
S'\xc0;4\xc8x\xa0\x06@'
p361
tp362
Rp363
tp364
a(g2
I52
g40
(g44
S'\xec\xc5J\xf9B~S@'
p365
tp366
Rp367
tp368
a(g2
I53
g40
(g44
S'\xb7\xe7\x94\x11^\x8d`@'
p369
tp370
Rp371
tp372
a(g2
I54
g40
(g44
S'C\xb1csS\xd3V@'
p373
tp374
Rp375
tp376
a(g2
I55
g40
(g44
S'\x00\xba\xc7ca\xda[@'
p377
tp378
Rp379
tp380
a(g2
I56
g40
(g44
S'%J\x0e\xbc>\x17V@'
p381
tp382
Rp383
tp384
a(g2
I57
g40
(g44
S'\xec\x1e\xb58\x80hW@'
p385
tp386
Rp387
tp388
a(g2
I58
g40
(g44
S'Y?\xca\xfd.kT@'
p389
tp390
Rp391
tp392
a(g2
I59
g40
(g44
S'\xbd\x9c_hc\xa6S@'
p393
tp394
Rp395
tp396
a(g2
I60
g40
(g44
S'\xf0\xc3\xde\x9a]\xadY@'
p397
tp398
Rp399
tp400
a(g2
I61
g40
(g44
S'\xa8\xa2\xf2k*\xa4R@'
p401
tp402
Rp403
tp404
a(g2
I62
g40
(g44
S'\xb3\x84v\xc5;\x95f@'
p405
tp406
Rp407
tp408
a(g2
I63
g40
(g44
S'mU\x05Q\x92tO@'
p409
tp410
Rp411
tp412
a(g2
I64
g40
(g44
S'\x00R\xf2\xf6$RX@'
p413
tp414
Rp415
tp416
a(g2
I65
g40
(g44
S'\xef\x97\x9b\xb5\xbb\xedW@'
p417
tp418
Rp419
tp420
a(g2
I66
g40
(g44
S'\xeb\xea\x9cE\xbeSX@'
p421
tp422
Rp423
tp424
a(g2
I67
g40
(g44
S'J2\xc5\x8bA\xf0M@'
p425
tp426
Rp427
tp428
a(g2
I68
g40
(g44
S'\x93\xa61\xc4\x13\x13S@'
p429
tp430
Rp431
tp432
a(g2
I69
g40
(g44
S'\xad\x1b\x9e\x1b\x9b\x00P@'
p433
tp434
Rp435
tp436
a(g2
I70
g40
(g44
S'\xe7\xe5\xcb\xaa\xfe/S@'
p437
tp438
Rp439
tp440
a(g2
I71
g40
(g44
S'5\xd7\xfa\x8aj\xa6Q@'
p441
tp442
Rp443
tp444
a(g2
I72
g40
(g44
S'}\x8d\x07!@aV@'
p445
tp446
Rp447
tp448
a(g2
I73
g40
(g44
S'\xe2"\x02\xe8@\xadS@'
p449
tp450
Rp451
tp452
a(g2
I74
g40
(g44
S'\x8a\xdc\x1aF\xde\x9bN@'
p453
tp454
Rp455
tp456
a(g2
I75
g40
(g44
S'\xa8\xc0\r)\x9b3Q@'
p457
tp458
Rp459
tp460
a(g2
I76
g40
(g44
S'3\x05\x91\xce\xbc\x9eU@'
p461
tp462
Rp463
tp464
a(g2
I77
g40
(g44
S'9\x92}c\x9a+P@'
p465
tp466
Rp467
tp468
a(g2
I78
g40
(g44
S'\xcd4CP\x83\xabS@'
p469
tp470
Rp471
tp472
a(g2
I79
g40
(g44
S'\xe6E\x94="GW@'
p473
tp474
Rp475
tp476
a(g2
I80
g40
(g44
S'\xea\xd0\xaf^\xbf\xeaT@'
p477
tp478
Rp479
tp480
a(g2
I81
g40
(g44
S'\xee\x18a\xda1\x81T@'
p481
tp482
Rp483
tp484
a(g2
I82
g40
(g44
S'\xa2k/\xa9\x87QX@'
p485
tp486
Rp487
tp488
a(g2
I83
g40
(g44
S'\xa2(\xdc\x1d\xf4\xc3S@'
p489
tp490
Rp491
tp492
a(g2
I84
g40
(g44
S'\xc2p\xf7xs\x0eX@'
p493
tp494
Rp495
tp496
a(g2
I85
g40
(g44
S'\xce%\xfc\xc3\x1a\xdbT@'
p497
tp498
Rp499
tp500
a(g2
I86
g40
(g44
S'\xe1\xc5\xa2\r\x91\xceX@'
p501
tp502
Rp503
tp504
a(g2
I87
g40
(g44
S')(\xf0\x0f\xd8IU@'
p505
tp506
Rp507
tp508
a(g2
I88
g40
(g44
S'.\x82\xcf_\xeemV@'
p509
tp510
Rp511
tp512
a(g2
I89
g40
(g44
S'\t\xcf\x9a\xddb(T@'
p513
tp514
Rp515
tp516
a(g2
I90
g40
(g44
S'q\xac`\xb6]\xe1V@'
p517
tp518
Rp519
tp520
a(g2
I91
g40
(g44
S'u\x84\x9dD87Y@'
p521
tp522
Rp523
tp524
a(g2
I92
g40
(g44
S'\xf3\x89g&\x1c\xd2T@'
p525
tp526
Rp527
tp528
a(g2
I93
g40
(g44
S'\xba\xd7\xab\xb8\xb7\x1cT@'
p529
tp530
Rp531
tp532
a(g2
I94
g40
(g44
S'?##\xcf\xbd\x9fT@'
p533
tp534
Rp535
tp536
a(g2
I95
g40
(g44
S'\x0b\xb59Zu3W@'
p537
tp538
Rp539
tp540
a(g2
I96
g40
(g44
S'/\xaf~\x15\xc0zQ@'
p541
tp542
Rp543
tp544
a(g2
I97
g40
(g44
S'ko\x10\xf4\xd9\x14U@'
p545
tp546
Rp547
tp548
a(g2
I98
g40
(g44
S'Eht\xf9\xdayS@'
p549
tp550
Rp551
tp552
a(g2
I99
g40
(g44
S'\xc5GQ\xbc\xcaYV@'
p553
tp554
Rp555
tp556
a(g2
I100
g40
(g44
S'\xcf\xc099\xbcuR@'
p557
tp558
Rp559
tp560
a(g2
I101
g40
(g44
S'\x96\xaa\xf2#\xf2UU@'
p561
tp562
Rp563
tp564
a(g2
I102
g40
(g44
S'\xd72v\xadq\x06U@'
p565
tp566
Rp567
tp568
a(g2
I103
g40
(g44
S'*\xa7\xb7PO*R@'
p569
tp570
Rp571
tp572
aa(lp573
(g2
I0
I0
tp574
a(g2
I1
I0
tp575
a(g2
I2
I0
tp576
a(g2
I3
I0
tp577
a(g2
I4
I0
tp578
a(g2
I5
I0
tp579
a(g2
I6
I0
tp580
a(g2
I7
I0
tp581
a(g2
I8
I0
tp582
a(g2
I9
I0
tp583
a(g2
I10
g40
(g44
S'\xe0"\x9ae\xae\x96\xfa?'
p584
tp585
Rp586
tp587
a(g2
I11
I0
tp588
a(g2
I12
I0
tp589
a(g2
I13
I0
tp590
a(g2
I14
I0
tp591
a(g2
I15
I0
tp592
a(g2
I16
I0
tp593
a(g2
I17
I0
tp594
a(g2
I18
I0
tp595
a(g2
I19
I0
tp596
a(g2
I20
I0
tp597
a(g2
I21
I0
tp598
a(g2
I22
I0
tp599
a(g2
I23
I0
tp600
a(g2
I24
I0
tp601
a(g2
I25
I0
tp602
a(g2
I26
I0
tp603
a(g2
I27
I0
tp604
a(g2
I28
I0
tp605
a(g2
I29
I0
tp606
a(g2
I30
I0
tp607
a(g2
I31
I0
tp608
a(g2
I32
I0
tp609
a(g2
I33
I0
tp610
a(g2
I34
I0
tp611
a(g2
I35
I0
tp612
a(g2
I36
I0
tp613
a(g2
I37
I0
tp614
a(g2
I38
I0
tp615
a(g2
I39
I0
tp616
a(g2
I40
I0
tp617
a(g2
I41
I0
tp618
a(g2
I42
I0
tp619
a(g2
I43
I0
tp620
a(g2
I44
I0
tp621
a(g2
I45
g40
(g44
S'W\x0e3!nQ]@'
p622
tp623
Rp624
tp625
a(g2
I46
I0
tp626
a(g2
I47
I0
tp627
a(g2
I48
g40
(g44
S'Nw\xd3\x1d6\xceo@'
p628
tp629
Rp630
tp631
a(g2
I49
I0
tp632
a(g2
I50
g40
(g44
S'\xef&\x90\x80?],@'
p633
tp634
Rp635
tp636
a(g2
I51
I0
tp637
a(g2
I52
g40
(g44
S'4\xce\xb8\xf4*\x99@@'
p638
tp639
Rp640
tp641
a(g2
I53
g40
(g44
S'\xc3\xf8\xfbNU?A@'
p642
tp643
Rp644
tp645
a(g2
I54
g40
(g44
S'<\xc7\xb3G\x1a)c@'
p646
tp647
Rp648
tp649
a(g2
I55
g40
(g44
S'O\x9c\x98B\xc5\xebc@'
p650
tp651
Rp652
tp653
a(g2
I56
g40
(g44
S'\xec0\xaa7\x08\xc7N@'
p654
tp655
Rp656
tp657
a(g2
I57
g40
(g44
S"_\xa9}\x97\xfc'V@"
p658
tp659
Rp660
tp661
a(g2
I58
g40
(g44
S'\xd0U\x92\x8d\x11\xaaR@'
p662
tp663
Rp664
tp665
a(g2
I59
g40
(g44
S'/\xca\x10\x12,\x13M@'
p666
tp667
Rp668
tp669
a(g2
I60
g40
(g44
S'.\xbdN\xce;\xcaT@'
p670
tp671
Rp672
tp673
a(g2
I61
g40
(g44
S'{1F\xf98\x1bR@'
p674
tp675
Rp676
tp677
a(g2
I62
g40
(g44
S'V0H>1\xd8P@'
p678
tp679
Rp680
tp681
a(g2
I63
g40
(g44
S'\xa5\xb7C\x16k\xf5P@'
p682
tp683
Rp684
tp685
a(g2
I64
g40
(g44
S'%\xd3\xbb1\xaaQK@'
p686
tp687
Rp688
tp689
a(g2
I65
g40
(g44
S'\xee!l\x9b\x99\xfdP@'
p690
tp691
Rp692
tp693
a(g2
I66
g40
(g44
S'k\xc6\xdd\xd7;\xcfQ@'
p694
tp695
Rp696
tp697
a(g2
I67
g40
(g44
S'f\xf6\xaf\x83\xa6<Q@'
p698
tp699
Rp700
tp701
a(g2
I68
g40
(g44
S'\xc9d\xf1Lu\xabM@'
p702
tp703
Rp704
tp705
a(g2
I69
g40
(g44
S'\xc4\x88\xb8\xa5\xfd\xffW@'
p706
tp707
Rp708
tp709
a(g2
I70
g40
(g44
S'P\x1a\x171m\xaeP@'
p710
tp711
Rp712
tp713
a(g2
I71
g40
(g44
S'\x19\xca\x7f3\xf2\xe7Q@'
p714
tp715
Rp716
tp717
a(g2
I72
g40
(g44
S'\xd7\xa4F\xe7\x9d\x95T@'
p718
tp719
Rp720
tp721
a(g2
I73
g40
(g44
S'\x06\x02\xb7g\x01 W@'
p722
tp723
Rp724
tp725
a(g2
I74
g40
(g44
S"$\x03'\xa3\xbc\xf9R@"
p726
tp727
Rp728
tp729
a(g2
I75
g40
(g44
S'\xc7/U\xf2m\xdfY@'
p730
tp731
Rp732
tp733
a(g2
I76
g40
(g44
S"\x8a\x18%'\x92\x14T@"
p734
tp735
Rp736
tp737
a(g2
I77
g40
(g44
S'i\x88\xcf|m5S@'
p738
tp739
Rp740
tp741
a(g2
I78
g40
(g44
S'\x89\ra\n\xb8nP@'
p742
tp743
Rp744
tp745
a(g2
I79
g40
(g44
S'\x9a\xb5\xf5\xbb\xa5CV@'
p746
tp747
Rp748
tp749
a(g2
I80
g40
(g44
S'7\xc0+\xfc\xfd\xa2U@'
p750
tp751
Rp752
tp753
a(g2
I81
g40
(g44
S'N\xf7\xba\x9fM\xd2M@'
p754
tp755
Rp756
tp757
a(g2
I82
g40
(g44
S'\xb08\x96\xe2\xfc\xe8U@'
p758
tp759
Rp760
tp761
a(g2
I83
g40
(g44
S'ad\xd3)\x7f\xf0K@'
p762
tp763
Rp764
tp765
a(g2
I84
g40
(g44
S'\rT\x02\x04\xbf\xe3R@'
p766
tp767
Rp768
tp769
a(g2
I85
g40
(g44
S'z\xc18\xed\x9aUU@'
p770
tp771
Rp772
tp773
a(g2
I86
g40
(g44
S'i\x16\xc5\xd6\xa7\x15S@'
p774
tp775
Rp776
tp777
a(g2
I87
g40
(g44
S'\xf9\x98\ts\x9c\xf1S@'
p778
tp779
Rp780
tp781
a(g2
I88
g40
(g44
S'\x94o\xe3U\xad\x1dR@'
p782
tp783
Rp784
tp785
a(g2
I89
g40
(g44
S'\x95\xbc\xe6\xcd\xd9=S@'
p786
tp787
Rp788
tp789
a(g2
I90
g40
(g44
S'\xe7-$\xb24\x8cT@'
p790
tp791
Rp792
tp793
a(g2
I91
g40
(g44
S'\x10\x06\xe7\\~~V@'
p794
tp795
Rp796
tp797
a(g2
I92
g40
(g44
S'1\x05#Kh:V@'
p798
tp799
Rp800
tp801
a(g2
I93
g40
(g44
S'%\xd1X\xbe\x8a\xf5S@'
p802
tp803
Rp804
tp805
a(g2
I94
g40
(g44
S'b\x8d\xb8\x99\xb1-T@'
p806
tp807
Rp808
tp809
a(g2
I95
g40
(g44
S'\xd24\xc1\xff\xd1\x12R@'
p810
tp811
Rp812
tp813
a(g2
I96
g40
(g44
S'\xb5r\x91{\x82\xaaR@'
p814
tp815
Rp816
tp817
a(g2
I97
g40
(g44
S'\xf4^\x9fF3WV@'
p818
tp819
Rp820
tp821
a(g2
I98
g40
(g44
S'y\xf1\x07\x1f\xfb\x82Y@'
p822
tp823
Rp824
tp825
a(g2
I99
g40
(g44
S'yo2\xec\xdb\xfdU@'
p826
tp827
Rp828
tp829
a(g2
I100
g40
(g44
S'\xaf\x02\x00Z\xcd\xbdT@'
p830
tp831
Rp832
tp833
a(g2
I101
g40
(g44
S'\xd6\xfbK\xed\x8a=U@'
p834
tp835
Rp836
tp837
a(g2
I102
g40
(g44
S'\xd2\xc1\xfb\x8e<\xbaS@'
p838
tp839
Rp840
tp841
a(g2
I103
g40
(g44
S'dz\x83\xe2\x9aLS@'
p842
tp843
Rp844
tp845
aa.