(lp0
(lp1
(S'week = '
p2
I0
cnumpy.core.multiarray
scalar
p3
(cnumpy
dtype
p4
(S'f8'
p5
I0
I1
tp6
Rp7
(I3
S'<'
p8
NNNI-1
I-1
I0
tp9
bS'\xcf\xf8\x9c\xfd16I@'
p10
tp11
Rp12
tp13
a(g2
I1
I0
tp14
a(g2
I2
g3
(g7
S'Y\xc0xZ\x19\xb5d@'
p15
tp16
Rp17
tp18
a(g2
I3
g3
(g7
S'7\x0e66!iG@'
p19
tp20
Rp21
tp22
a(g2
I4
I0
tp23
a(g2
I5
g3
(g7
S' [2b\xe4t9@'
p24
tp25
Rp26
tp27
a(g2
I6
g3
(g7
S'\x9e\x1d\xe8\xdb\xfd\x17S@'
p28
tp29
Rp30
tp31
a(g2
I7
g3
(g7
S'\xbb\xa5\xdfF)\xd1f@'
p32
tp33
Rp34
tp35
a(g2
I8
g3
(g7
S'\t\xfb\r\xd9x\xf8c@'
p36
tp37
Rp38
tp39
a(g2
I9
g3
(g7
S'8\x02L\xd9\x85\ni@'
p40
tp41
Rp42
tp43
a(g2
I10
g3
(g7
S'\xe2\xd4\xfcL\xfb\xe4d@'
p44
tp45
Rp46
tp47
a(g2
I11
g3
(g7
S'\x82U\x81\xb4Z\xeeQ@'
p48
tp49
Rp50
tp51
a(g2
I12
g3
(g7
S'\xe7Y\x8au\xd7+d@'
p52
tp53
Rp54
tp55
a(g2
I13
g3
(g7
S'\xd0M\xf3z\xe0\xcbU@'
p56
tp57
Rp58
tp59
a(g2
I14
g3
(g7
S'\xd2A\xea\x92e\xa6b@'
p60
tp61
Rp62
tp63
a(g2
I15
g3
(g7
S'\xd0\x98\xcd\xe5\xe4O\\@'
p64
tp65
Rp66
tp67
a(g2
I16
g3
(g7
S'\xd4\xdds\xfe\xcfEV@'
p68
tp69
Rp70
tp71
a(g2
I17
g3
(g7
S'\xd6\x1b\xbeS\x93sH@'
p72
tp73
Rp74
tp75
a(g2
I18
g3
(g7
S'a\x9c\xdcWZ"R@'
p76
tp77
Rp78
tp79
a(g2
I19
g3
(g7
S'\x93\x88M\xe1/T^@'
p80
tp81
Rp82
tp83
a(g2
I20
g3
(g7
S'\xbf\x8b{m\xb1na@'
p84
tp85
Rp86
tp87
a(g2
I21
g3
(g7
S'\x04\xa2P\x03\x18\xd7c@'
p88
tp89
Rp90
tp91
a(g2
I22
g3
(g7
S'\xa1\xc0\xec\xc5\xea_W@'
p92
tp93
Rp94
tp95
a(g2
I23
g3
(g7
S'd\xc1\xd7\x9e\xfe\x07`@'
p96
tp97
Rp98
tp99
a(g2
I24
g3
(g7
S'\xb8\xba\xc9\x14\x9e\xd5\\@'
p100
tp101
Rp102
tp103
a(g2
I25
g3
(g7
S'\x1b\x00\xa2\t\xf0\x0bX@'
p104
tp105
Rp106
tp107
a(g2
I26
g3
(g7
S'\xc0J\x9a<\xaaU^@'
p108
tp109
Rp110
tp111
a(g2
I27
g3
(g7
S'\xea\xf8\xa6I\xc2PW@'
p112
tp113
Rp114
tp115
a(g2
I28
g3
(g7
S'97\xa5\xac8lb@'
p116
tp117
Rp118
tp119
a(g2
I29
g3
(g7
S'\x85h+\x19\x9e2b@'
p120
tp121
Rp122
tp123
a(g2
I30
g3
(g7
S'A:\xd5\x1er;`@'
p124
tp125
Rp126
tp127
a(g2
I31
g3
(g7
S'\xd5\x16MT\x11\xaf[@'
p128
tp129
Rp130
tp131
a(g2
I32
g3
(g7
S'[X5m\xc9\xcbT@'
p132
tp133
Rp134
tp135
a(g2
I33
g3
(g7
S'\xe4P8\x18\xe5\xa0c@'
p136
tp137
Rp138
tp139
a(g2
I34
g3
(g7
S'\xb2\xb8\x97i\x8eC`@'
p140
tp141
Rp142
tp143
a(g2
I35
g3
(g7
S'\xaf\xbe\xce\xc7\xed\x92_@'
p144
tp145
Rp146
tp147
a(g2
I36
g3
(g7
S'\xf7\x87\xff\xca\x0fEY@'
p148
tp149
Rp150
tp151
a(g2
I37
g3
(g7
S'\x93D\xa7\xb9\x9c\x10_@'
p152
tp153
Rp154
tp155
a(g2
I38
g3
(g7
S'\x90\xe6\xd9\x06\x16\xb5c@'
p156
tp157
Rp158
tp159
a(g2
I39
g3
(g7
S'\x06\x05\x873wU`@'
p160
tp161
Rp162
tp163
a(g2
I40
g3
(g7
S'\xec\xbbR\x89&\xccZ@'
p164
tp165
Rp166
tp167
a(g2
I41
g3
(g7
S'RG\x16V\x95\xb8]@'
p168
tp169
Rp170
tp171
a(g2
I42
g3
(g7
S"y(\xf4\xac'J[@"
p172
tp173
Rp174
tp175
a(g2
I43
g3
(g7
S'\xd2\x17\x04\xcb%xc@'
p176
tp177
Rp178
tp179
a(g2
I44
g3
(g7
S'\x95\xc4\tv\x996X@'
p180
tp181
Rp182
tp183
a(g2
I45
g3
(g7
S'\x91.KA\x96\x19_@'
p184
tp185
Rp186
tp187
a(g2
I46
g3
(g7
S'\xfc\x11z\xd7\x91[_@'
p188
tp189
Rp190
tp191
a(g2
I47
g3
(g7
S'<\xae\x9c\x04\xd4\xca^@'
p192
tp193
Rp194
tp195
a(g2
I48
g3
(g7
S'G\xa7\xa4\xd2\xb1\x1bW@'
p196
tp197
Rp198
tp199
a(g2
I49
g3
(g7
S'x\xd1w\x9f\x83\xa0[@'
p200
tp201
Rp202
tp203
a(g2
I50
g3
(g7
S'\xcf\x8e\xfb\x0e=\xd6`@'
p204
tp205
Rp206
tp207
a(g2
I51
g3
(g7
S'\xab&\xe4\xfbH\xdb_@'
p208
tp209
Rp210
tp211
a(g2
I52
g3
(g7
S'@\xad\x92]\x1a%]@'
p212
tp213
Rp214
tp215
a(g2
I53
g3
(g7
S'\xd7\xd5\x96\x1fq3^@'
p216
tp217
Rp218
tp219
a(g2
I54
g3
(g7
S'/kd\x9d\x8a\x02]@'
p220
tp221
Rp222
tp223
a(g2
I55
g3
(g7
S'\x7f\xba?k\xde\xb3`@'
p224
tp225
Rp226
tp227
a(g2
I56
g3
(g7
S'\xb2*N\x9f\xbcv`@'
p228
tp229
Rp230
tp231
a(g2
I57
g3
(g7
S'd\xb2\xdd\xab&{^@'
p232
tp233
Rp234
tp235
a(g2
I58
g3
(g7
S'\x9f\xe7\x01k\x8f\xbe[@'
p236
tp237
Rp238
tp239
a(g2
I59
g3
(g7
S'\x7f*R\xeb:o\\@'
p240
tp241
Rp242
tp243
a(g2
I60
g3
(g7
S'\xd6U\xc6\xf3W|a@'
p244
tp245
Rp246
tp247
a(g2
I61
g3
(g7
S'\xfe\x93\xcf\xb7\xbe\xa0\\@'
p248
tp249
Rp250
tp251
a(g2
I62
g3
(g7
S'(t\xe7U\xceQ\\@'
p252
tp253
Rp254
tp255
a(g2
I63
g3
(g7
S'\x84?\x03\xe5}\x96`@'
p256
tp257
Rp258
tp259
a(g2
I64
g3
(g7
S'\xb7\xf5\xf5\xad\xb6l`@'
p260
tp261
Rp262
tp263
a(g2
I65
g3
(g7
S'\x87\x1c\x08G\xea\xe7^@'
p264
tp265
Rp266
tp267
a(g2
I66
g3
(g7
S'L\x8b\x94Q\x1ah]@'
p268
tp269
Rp270
tp271
a(g2
I67
g3
(g7
S'\xdfyBs\xbdB`@'
p272
tp273
Rp274
tp275
a(g2
I68
g3
(g7
S'\xc5\x13\xac\xa2\xd7\x1d\\@'
p276
tp277
Rp278
tp279
a(g2
I69
g3
(g7
S'}w\xde\xd7\x1dX\\@'
p280
tp281
Rp282
tp283
a(g2
I70
g3
(g7
S'\x87\xf9|\xe2#\xf6]@'
p284
tp285
Rp286
tp287
a(g2
I71
g3
(g7
S'\x96C\x0b\x13\xbb\xd0]@'
p288
tp289
Rp290
tp291
a(g2
I72
g3
(g7
S'\xac\x8b\x94\xee\x07\xb5]@'
p292
tp293
Rp294
tp295
a(g2
I73
g3
(g7
S'\xe13m\x8b\xc6k`@'
p296
tp297
Rp298
tp299
a(g2
I74
g3
(g7
S'PHq?\x18\xc2`@'
p300
tp301
Rp302
tp303
a(g2
I75
g3
(g7
S'\xcb\xf5\xcdz\xa4\xd0\\@'
p304
tp305
Rp306
tp307
a(g2
I76
g3
(g7
S'\xca\x88>g\x17I_@'
p308
tp309
Rp310
tp311
a(g2
I77
g3
(g7
S'\xd5\x16\x89\x87\xf4\x1f`@'
p312
tp313
Rp314
tp315
a(g2
I78
g3
(g7
S'\x0fm\xe1\x1f\x0c\xbc_@'
p316
tp317
Rp318
tp319
a(g2
I79
g3
(g7
S'\x94ha\x85\xe8\xc8`@'
p320
tp321
Rp322
tp323
a(g2
I80
g3
(g7
S'\x9e\xdd6\xac\xf2\x16^@'
p324
tp325
Rp326
tp327
a(g2
I81
g3
(g7
S'I\xb5\xc6#\xe8\xb2_@'
p328
tp329
Rp330
tp331
a(g2
I82
g3
(g7
S'\nr\x1a(b\xeb^@'
p332
tp333
Rp334
tp335
a(g2
I83
g3
(g7
S'\x01\xc3V\x1b\xbf\xe1^@'
p336
tp337
Rp338
tp339
a(g2
I84
g3
(g7
S'\x90\x81A\x81v\x9d]@'
p340
tp341
Rp342
tp343
a(g2
I85
g3
(g7
S'\xa4Q\xc9\xf1l\xdc^@'
p344
tp345
Rp346
tp347
a(g2
I86
g3
(g7
S'Qe4\x9fT\xd3\\@'
p348
tp349
Rp350
tp351
a(g2
I87
g3
(g7
S'\\\xa4\xb2Y\xd3\xfa`@'
p352
tp353
Rp354
tp355
a(g2
I88
g3
(g7
S'd{M\xd2\x8b\xe8`@'
p356
tp357
Rp358
tp359
a(g2
I89
g3
(g7
S'm\xf5Z\xc5\xa6#`@'
p360
tp361
Rp362
tp363
a(g2
I90
g3
(g7
S'\x12/\x04\xfa\xcc\xd3Y@'
p364
tp365
Rp366
tp367
a(g2
I91
g3
(g7
S'B\x9e\x1e\x8f\x85\xc7\\@'
p368
tp369
Rp370
tp371
a(g2
I92
g3
(g7
S'\x8cp\x0eA\xa2\xa5_@'
p372
tp373
Rp374
tp375
a(g2
I93
g3
(g7
S'\x10\x8d\xcd\xd6\xad|[@'
p376
tp377
Rp378
tp379
a(g2
I94
g3
(g7
S'\xa1\xcdZ\x19\xd3\xb1_@'
p380
tp381
Rp382
tp383
a(g2
I95
g3
(g7
S"\xb3'\x0b\x15\x0c2`@"
p384
tp385
Rp386
tp387
a(g2
I96
g3
(g7
S'\xcc~\xb8(\xb9\x07_@'
p388
tp389
Rp390
tp391
a(g2
I97
g3
(g7
S'S\x03\n]\xb9\x7f`@'
p392
tp393
Rp394
tp395
a(g2
I98
g3
(g7
S'O\xf5\xd4!y\xcf_@'
p396
tp397
Rp398
tp399
a(g2
I99
g3
(g7
S'q\xfdV\x14>\xb7`@'
p400
tp401
Rp402
tp403
a(g2
I100
g3
(g7
S'\xe7!\x15PP\xcb`@'
p404
tp405
Rp406
tp407
a(g2
I101
g3
(g7
S'\xca\xfcJ\x08hNb@'
p408
tp409
Rp410
tp411
a(g2
I102
g3
(g7
S'\xadu\xe4\xd3{\xd0^@'
p412
tp413
Rp414
tp415
a(g2
I103
g3
(g7
S'\xd5\xee`ojX]@'
p416
tp417
Rp418
tp419
aa(lp420
(g2
I0
g3
(g7
S'\xa8c\xebpx\x90V@'
p421
tp422
Rp423
tp424
a(g2
I1
g3
(g7
S'\x9e\xa5K\xebh1H@'
p425
tp426
Rp427
tp428
a(g2
I2
I0
tp429
a(g2
I3
g3
(g7
S'\x9f\x00\x02\xa5\xdf\x96S@'
p430
tp431
Rp432
tp433
a(g2
I4
g3
(g7
S'\xfa\xeaHTf\xb2`@'
p434
tp435
Rp436
tp437
a(g2
I5
g3
(g7
S'\x96\x10\xcc\xb2><P@'
p438
tp439
Rp440
tp441
a(g2
I6
g3
(g7
S'\xdc\xfb\x8d\x0bZ\x1cA@'
p442
tp443
Rp444
tp445
a(g2
I7
g3
(g7
S'\xe0,\xd8\xcf\x9cAT@'
p446
tp447
Rp448
tp449
a(g2
I8
g3
(g7
S'\xf5\x91\xfb\xbcI\x10q@'
p450
tp451
Rp452
tp453
a(g2
I9
g3
(g7
S'\xa8\\\xc37\x84\xc4E@'
p454
tp455
Rp456
tp457
a(g2
I10
g3
(g7
S')\xcd\x94\x99\x1b\xba[@'
p458
tp459
Rp460
tp461
a(g2
I11
g3
(g7
S'r\xcb\x86\xcdC\x9dU@'
p462
tp463
Rp464
tp465
a(g2
I12
g3
(g7
S'\x11\x0f/:\xecwd@'
p466
tp467
Rp468
tp469
a(g2
I13
g3
(g7
S'l\x11\xd2\xd0Q\x0cS@'
p470
tp471
Rp472
tp473
a(g2
I14
g3
(g7
S'\xe9\x81q\xf1u\xf1Z@'
p474
tp475
Rp476
tp477
a(g2
I15
g3
(g7
S'\xe7f\x7f8S_c@'
p478
tp479
Rp480
tp481
a(g2
I16
g3
(g7
S'\xf81K3\xbe\xa2R@'
p482
tp483
Rp484
tp485
a(g2
I17
g3
(g7
S' \xb7K6\x97}`@'
p486
tp487
Rp488
tp489
a(g2
I18
g3
(g7
S'\xa5\xe7\x19\x9c\xe5\xf9]@'
p490
tp491
Rp492
tp493
a(g2
I19
g3
(g7
S'\xc1[i\x19#\xba]@'
p494
tp495
Rp496
tp497
a(g2
I20
g3
(g7
S'\x1e/\xad6\x8e+V@'
p498
tp499
Rp500
tp501
a(g2
I21
g3
(g7
S'\xdf\x0b\x81/\x9f\xa5d@'
p502
tp503
Rp504
tp505
a(g2
I22
g3
(g7
S'\xbe\x80o\x98\x10\xee^@'
p506
tp507
Rp508
tp509
a(g2
I23
g3
(g7
S'\x94A\xc9-_z`@'
p510
tp511
Rp512
tp513
a(g2
I24
g3
(g7
S'y\x0e\x88\xf5\x9e\xeea@'
p514
tp515
Rp516
tp517
a(g2
I25
g3
(g7
S'B\xea\x87$\x8b.a@'
p518
tp519
Rp520
tp521
a(g2
I26
g3
(g7
S'\xf3\n8B\\\r^@'
p522
tp523
Rp524
tp525
a(g2
I27
g3
(g7
S'-\x01\xc9\x9f\xb0\xb2W@'
p526
tp527
Rp528
tp529
a(g2
I28
g3
(g7
S'dL\x01\x1c&XY@'
p530
tp531
Rp532
tp533
a(g2
I29
g3
(g7
S'\x95gq\x0f\xa6\xf3c@'
p534
tp535
Rp536
tp537
a(g2
I30
g3
(g7
S'\xc1\xfa\xc1l\xf9h`@'
p538
tp539
Rp540
tp541
a(g2
I31
g3
(g7
S'yu\xa9\x82\x89\x8eU@'
p542
tp543
Rp544
tp545
a(g2
I32
g3
(g7
S'-\xe5\xbe\t\x98Qc@'
p546
tp547
Rp548
tp549
a(g2
I33
g3
(g7
S'\x07\xb4(\xe1~ma@'
p550
tp551
Rp552
tp553
a(g2
I34
g3
(g7
S'6\xdf"\x03N\x99f@'
p554
tp555
Rp556
tp557
a(g2
I35
g3
(g7
S'|\xc3\x16\xd1\x95F`@'
p558
tp559
Rp560
tp561
a(g2
I36
g3
(g7
S'\r\xa3\x17\x12"\xdb_@'
p562
tp563
Rp564
tp565
a(g2
I37
g3
(g7
S'\xe1\xaa3:\x88\xccY@'
p566
tp567
Rp568
tp569
a(g2
I38
g3
(g7
S'a?j]gIa@'
p570
tp571
Rp572
tp573
a(g2
I39
g3
(g7
S'\xa0\xa0\x16\xbe\xe0AY@'
p574
tp575
Rp576
tp577
a(g2
I40
g3
(g7
S'\xee\xc6\xf9~*\xbcf@'
p578
tp579
Rp580
tp581
a(g2
I41
g3
(g7
S"'\xb0.V\x9b5\\@"
p582
tp583
Rp584
tp585
a(g2
I42
g3
(g7
S'\xc661\x95\x1d\x9b[@'
p586
tp587
Rp588
tp589
a(g2
I43
g3
(g7
S'\xf4\x98\x8c\xfb\xab}Z@'
p590
tp591
Rp592
tp593
a(g2
I44
g3
(g7
S'\xa7X \xea\x85ma@'
p594
tp595
Rp596
tp597
a(g2
I45
g3
(g7
S'~&B`\xdb\x06W@'
p598
tp599
Rp600
tp601
a(g2
I46
g3
(g7
S'\x8b\x1c8\xd30nZ@'
p602
tp603
Rp604
tp605
a(g2
I47
g3
(g7
S"l'\x81\xcft\x00`@"
p606
tp607
Rp608
tp609
a(g2
I48
g3
(g7
S'f?\xd63\xaf\x1f[@'
p610
tp611
Rp612
tp613
a(g2
I49
g3
(g7
S'\x97{_\xb1\xe5\xaa^@'
p614
tp615
Rp616
tp617
a(g2
I50
g3
(g7
S'(\xdc\x06\xe4\x13_[@'
p618
tp619
Rp620
tp621
a(g2
I51
g3
(g7
S'\xe5WSP\xf8\xa7Y@'
p622
tp623
Rp624
tp625
a(g2
I52
g3
(g7
S'cG\x95-\xe5#`@'
p626
tp627
Rp628
tp629
a(g2
I53
g3
(g7
S'\xa0\x8eC\xe6Tq[@'
p630
tp631
Rp632
tp633
a(g2
I54
g3
(g7
S'\xa8CS\xf2o\xa8b@'
p634
tp635
Rp636
tp637
a(g2
I55
g3
(g7
S'\xb4l\x81p\xf8!`@'
p638
tp639
Rp640
tp641
a(g2
I56
g3
(g7
S'\xb8{\xb4C\xa9Y_@'
p642
tp643
Rp644
tp645
a(g2
I57
g3
(g7
S'_\xd4:S\x0c\xaeZ@'
p646
tp647
Rp648
tp649
a(g2
I58
g3
(g7
S'\xebP\xa4\x1d\xb7\xdc`@'
p650
tp651
Rp652
tp653
a(g2
I59
g3
(g7
S'gI9\xe3M\x16`@'
p654
tp655
Rp656
tp657
a(g2
I60
g3
(g7
S'\xb8\x98\x1a\xda\xcc\xca]@'
p658
tp659
Rp660
tp661
a(g2
I61
g3
(g7
S'1,n\x04U\xbc[@'
p662
tp663
Rp664
tp665
a(g2
I62
g3
(g7
S'\x19\xe2V\r9\xff^@'
p666
tp667
Rp668
tp669
a(g2
I63
g3
(g7
S'z1\xab5\x0fp`@'
p670
tp671
Rp672
tp673
a(g2
I64
g3
(g7
S'\xc0\x01\x9e\xec\xb9\x03\\@'
p674
tp675
Rp676
tp677
a(g2
I65
g3
(g7
S'\xb1\xe7 |o\x9eb@'
p678
tp679
Rp680
tp681
a(g2
I66
g3
(g7
S'\xa9\xce\x11h_\xb7_@'
p682
tp683
Rp684
tp685
a(g2
I67
g3
(g7
S'xVo/\x19j`@'
p686
tp687
Rp688
tp689
a(g2
I68
g3
(g7
S'$\xca\x87\x04<B\\@'
p690
tp691
Rp692
tp693
a(g2
I69
g3
(g7
S'P\xca:(0\x1a`@'
p694
tp695
Rp696
tp697
a(g2
I70
g3
(g7
S'\xfd\xe5\x1f\xd7P\x0fa@'
p698
tp699
Rp700
tp701
a(g2
I71
g3
(g7
S'wq\xc6\xfd\xe9V_@'
p702
tp703
Rp704
tp705
a(g2
I72
g3
(g7
S'\x05\xe8\xec\x9fSW]@'
p706
tp707
Rp708
tp709
a(g2
I73
g3
(g7
S'\xb6s\t\xf6\xd0\x1aZ@'
p710
tp711
Rp712
tp713
a(g2
I74
g3
(g7
S'\x00\xa6\xda\xcc\x1bz`@'
p714
tp715
Rp716
tp717
a(g2
I75
g3
(g7
S'\x94\x07k\xba\x87\xf7`@'
p718
tp719
Rp720
tp721
a(g2
I76
g3
(g7
S'R\xda\xa5<\xfc\xc3X@'
p722
tp723
Rp724
tp725
a(g2
I77
g3
(g7
S'wa,\x01t\x8c]@'
p726
tp727
Rp728
tp729
a(g2
I78
g3
(g7
S'\xa3\xfd\x8c\xb5l\x96^@'
p730
tp731
Rp732
tp733
a(g2
I79
g3
(g7
S'\xaf}\xe5\xce\xb9K_@'
p734
tp735
Rp736
tp737
a(g2
I80
g3
(g7
S'U\x95\xff\xd31\xc6a@'
p738
tp739
Rp740
tp741
a(g2
I81
g3
(g7
S"\xd2\xb1\xe5'$\x83`@"
p742
tp743
Rp744
tp745
a(g2
I82
g3
(g7
S'\xf8^\xaeW\xe2\xac^@'
p746
tp747
Rp748
tp749
a(g2
I83
g3
(g7
S'\xf4\xe0\xe5\xfa\x149a@'
p750
tp751
Rp752
tp753
a(g2
I84
g3
(g7
S'\x03\xf1\x8b\xb7~*`@'
p754
tp755
Rp756
tp757
a(g2
I85
g3
(g7
S'\xd9A\xa2\xac\xc6\x10a@'
p758
tp759
Rp760
tp761
a(g2
I86
g3
(g7
S'\xc6X\xbf\xddV\x11`@'
p762
tp763
Rp764
tp765
a(g2
I87
g3
(g7
S'\x8a!3W\xc4\x9e]@'
p766
tp767
Rp768
tp769
a(g2
I88
g3
(g7
S'/#"\xfd\xd7\x8e]@'
p770
tp771
Rp772
tp773
a(g2
I89
g3
(g7
S'4^\x1ag6\xa7`@'
p774
tp775
Rp776
tp777
a(g2
I90
g3
(g7
S'B}\xf2\x9e\xbe\x0c]@'
p778
tp779
Rp780
tp781
a(g2
I91
g3
(g7
S'/\xb9\x90\xe0f\x14`@'
p782
tp783
Rp784
tp785
a(g2
I92
g3
(g7
S'\xce5b*$\xcc`@'
p786
tp787
Rp788
tp789
a(g2
I93
g3
(g7
S':\xa0\x1ac\xa2\r\\@'
p790
tp791
Rp792
tp793
a(g2
I94
g3
(g7
S'|\xac\x93\xd4\xa2\xb1^@'
p794
tp795
Rp796
tp797
a(g2
I95
g3
(g7
S'\xf0\x10\\.\x01\x08]@'
p798
tp799
Rp800
tp801
a(g2
I96
g3
(g7
S'?\x13\xb1\x13\xdc"`@'
p802
tp803
Rp804
tp805
a(g2
I97
g3
(g7
S'\xc8\x03\xb33\xc5\xec_@'
p806
tp807
Rp808
tp809
a(g2
I98
g3
(g7
S'\x81\xd1\x184b\t`@'
p810
tp811
Rp812
tp813
a(g2
I99
g3
(g7
S'.\xd0:\xda"\xe2]@'
p814
tp815
Rp816
tp817
a(g2
I100
g3
(g7
S'U<\xe7\x94\x93i^@'
p818
tp819
Rp820
tp821
a(g2
I101
g3
(g7
S'^\x9c\x12\x1c\x1a\xcf\\@'
p822
tp823
Rp824
tp825
a(g2
I102
g3
(g7
S'\xeet\xe4\x01\xe9\xf9Y@'
p826
tp827
Rp828
tp829
a(g2
I103
g3
(g7
S'\xa4\xa7\x8c\xa3\xebe`@'
p830
tp831
Rp832
tp833
aa(lp834
(g2
I0
I0
tp835
a(g2
I1
g3
(g7
S'\x83\x16!X\\[T@'
p836
tp837
Rp838
tp839
a(g2
I2
I0
tp840
a(g2
I3
g3
(g7
S'\x98\xad\xac\xb3\xd0\xbe7@'
p841
tp842
Rp843
tp844
a(g2
I4
g3
(g7
S'b\xbcf:\xd9CJ@'
p845
tp846
Rp847
tp848
a(g2
I5
g3
(g7
S'\xb5\xbajD\x03\xe3`@'
p849
tp850
Rp851
tp852
a(g2
I6
g3
(g7
S'M\xdf\x0e\xbe\xbe\xbeV@'
p853
tp854
Rp855
tp856
a(g2
I7
g3
(g7
S'w\x85\x97\x13\xb0\xad^@'
p857
tp858
Rp859
tp860
a(g2
I8
g3
(g7
S'aU,\x8cG\x14f@'
p861
tp862
Rp863
tp864
a(g2
I9
g3
(g7
S'\xd9\xba~9\x01\x1dd@'
p865
tp866
Rp867
tp868
a(g2
I10
g3
(g7
S'\x85F\x96\xd4e\x18d@'
p869
tp870
Rp871
tp872
a(g2
I11
g3
(g7
S'\xfad\xd1\x90QnZ@'
p873
tp874
Rp875
tp876
a(g2
I12
g3
(g7
S'\xe4\x83U\xa6\x90M_@'
p877
tp878
Rp879
tp880
a(g2
I13
g3
(g7
S'\xb1\xec1\xfco\xeaX@'
p881
tp882
Rp883
tp884
a(g2
I14
g3
(g7
S'\xc9\xff\xaev\xba\x9eJ@'
p885
tp886
Rp887
tp888
a(g2
I15
g3
(g7
S'\x9c\x9aF\xa8\xf28_@'
p889
tp890
Rp891
tp892
a(g2
I16
g3
(g7
S'^/\x80\\/\xc2b@'
p893
tp894
Rp895
tp896
a(g2
I17
g3
(g7
S'V\xc3V\xea\xfc\x0bs@'
p897
tp898
Rp899
tp900
a(g2
I18
g3
(g7
S'\xf0Z|h\x9e\x03O@'
p901
tp902
Rp903
tp904
a(g2
I19
g3
(g7
S'\x1b\x17\xce\xfdY\x1c_@'
p905
tp906
Rp907
tp908
a(g2
I20
g3
(g7
S'\x96\xff+\xc0w\x85Y@'
p909
tp910
Rp911
tp912
a(g2
I21
g3
(g7
S'!\xa5\xbd\x18uFe@'
p913
tp914
Rp915
tp916
a(g2
I22
g3
(g7
S'\x19K\xea~\x90\xb3a@'
p917
tp918
Rp919
tp920
a(g2
I23
g3
(g7
S'\x19\xa3\x86\x89)\x1cR@'
p921
tp922
Rp923
tp924
a(g2
I24
g3
(g7
S'\x06\x04R\x03D\x97V@'
p925
tp926
Rp927
tp928
a(g2
I25
g3
(g7
S'\xdd\xaa[tCT^@'
p929
tp930
Rp931
tp932
a(g2
I26
g3
(g7
S'@j(\xc5\xfblX@'
p933
tp934
Rp935
tp936
a(g2
I27
g3
(g7
S'8\xd0W\xcb9\x11a@'
p937
tp938
Rp939
tp940
a(g2
I28
g3
(g7
S'\xdcrS{\x83\x88W@'
p941
tp942
Rp943
tp944
a(g2
I29
g3
(g7
S'\x04\x10>\xa6\x0el_@'
p945
tp946
Rp947
tp948
a(g2
I30
g3
(g7
S'\xcem\x1b \xde\x92`@'
p949
tp950
Rp951
tp952
a(g2
I31
g3
(g7
S'\xc6M\x12\xcc]kf@'
p953
tp954
Rp955
tp956
a(g2
I32
g3
(g7
S'\xeccf\xa0\xd4\xaaa@'
p957
tp958
Rp959
tp960
a(g2
I33
g3
(g7
S'"\xc9N\xfc\x13Ab@'
p961
tp962
Rp963
tp964
a(g2
I34
g3
(g7
S'\xc6`\x9c\x93\x01\xebZ@'
p965
tp966
Rp967
tp968
a(g2
I35
g3
(g7
S'-|5ct"a@'
p969
tp970
Rp971
tp972
a(g2
I36
g3
(g7
S'uJ\x18y\x89\xcea@'
p973
tp974
Rp975
tp976
a(g2
I37
g3
(g7
S'?\x82\xc9@\xca\x99U@'
p977
tp978
Rp979
tp980
a(g2
I38
g3
(g7
S'\xd9t\xa1\xe0\x98\xcca@'
p981
tp982
Rp983
tp984
a(g2
I39
g3
(g7
S'bf\xdd\x81Z\xa4Y@'
p985
tp986
Rp987
tp988
a(g2
I40
g3
(g7
S'k\x1eJ\xdfka`@'
p989
tp990
Rp991
tp992
a(g2
I41
g3
(g7
S'K/\xce"\x8c\x03\\@'
p993
tp994
Rp995
tp996
a(g2
I42
g3
(g7
S'\x80y\x7f\xc0\xcc\xadX@'
p997
tp998
Rp999
tp1000
a(g2
I43
g3
(g7
S'\x83\x8f\x9d\xdf+p]@'
p1001
tp1002
Rp1003
tp1004
a(g2
I44
g3
(g7
S'L\xce\xcd/xm[@'
p1005
tp1006
Rp1007
tp1008
a(g2
I45
g3
(g7
S'\xf8\x9b\x1e\x8a\xeb1Y@'
p1009
tp1010
Rp1011
tp1012
a(g2
I46
g3
(g7
S'\x8f\x99\xaa{8\x96_@'
p1013
tp1014
Rp1015
tp1016
a(g2
I47
g3
(g7
S'D\x0fOTJg^@'
p1017
tp1018
Rp1019
tp1020
a(g2
I48
g3
(g7
S'\x8f\xdf\xc3i\x02\x1c`@'
p1021
tp1022
Rp1023
tp1024
a(g2
I49
g3
(g7
S'\xe4\x8b3\xd8l\xc0X@'
p1025
tp1026
Rp1027
tp1028
a(g2
I50
g3
(g7
S'J\xf1\xec\x91\x182a@'
p1029
tp1030
Rp1031
tp1032
a(g2
I51
g3
(g7
S'\x11\xf0F \xb3<`@'
p1033
tp1034
Rp1035
tp1036
a(g2
I52
g3
(g7
S'4\xdf[\x91A\x16^@'
p1037
tp1038
Rp1039
tp1040
a(g2
I53
g3
(g7
S'\xebD\x06f@vb@'
p1041
tp1042
Rp1043
tp1044
a(g2
I54
g3
(g7
S'y\xb3\x17\x99.p`@'
p1045
tp1046
Rp1047
tp1048
a(g2
I55
g3
(g7
S'y\xb1\x99L\x1aU`@'
p1049
tp1050
Rp1051
tp1052
a(g2
I56
g3
(g7
S'\xd6w\x06\xf1z\x18]@'
p1053
tp1054
Rp1055
tp1056
a(g2
I57
g3
(g7
S"'~p\xb4\xad\x1fZ@"
p1057
tp1058
Rp1059
tp1060
a(g2
I58
g3
(g7
S'Xz#3sQ]@'
p1061
tp1062
Rp1063
tp1064
a(g2
I59
g3
(g7
S'\xb9)S\xf9\xb1\x1c`@'
p1065
tp1066
Rp1067
tp1068
a(g2
I60
g3
(g7
S'\xacI\xe0.\xfa]]@'
p1069
tp1070
Rp1071
tp1072
a(g2
I61
g3
(g7
S'`w\t\xba\x13\xd2^@'
p1073
tp1074
Rp1075
tp1076
a(g2
I62
g3
(g7
S"\x91j'\x95b\xc2]@"
p1077
tp1078
Rp1079
tp1080
a(g2
I63
g3
(g7
S'\xdfz\xd0\xb0\x07-\\@'
p1081
tp1082
Rp1083
tp1084
a(g2
I64
g3
(g7
S'\x1e\x16Mgr\x9c^@'
p1085
tp1086
Rp1087
tp1088
a(g2
I65
g3
(g7
S'\x94\x8d\x88<\x16\xf4Z@'
p1089
tp1090
Rp1091
tp1092
a(g2
I66
g3
(g7
S'\xb9p\xd8A\xd8\x14\\@'
p1093
tp1094
Rp1095
tp1096
a(g2
I67
g3
(g7
S'\xff\x0cJ\x05M%`@'
p1097
tp1098
Rp1099
tp1100
a(g2
I68
g3
(g7
S'\x9c\xe5\xe0\xbc8\x91`@'
p1101
tp1102
Rp1103
tp1104
a(g2
I69
g3
(g7
S'\xce?:\xc7x5\\@'
p1105
tp1106
Rp1107
tp1108
a(g2
I70
g3
(g7
S'\xc09Y}F8^@'
p1109
tp1110
Rp1111
tp1112
a(g2
I71
g3
(g7
S'\xf3\xe4]\xa1\xfe\xa9^@'
p1113
tp1114
Rp1115
tp1116
a(g2
I72
g3
(g7
S'CB!V\xa5\xce^@'
p1117
tp1118
Rp1119
tp1120
a(g2
I73
g3
(g7
S'+\xe3\x8cq\x02._@'
p1121
tp1122
Rp1123
tp1124
a(g2
I74
g3
(g7
S"\xe5\x89P\xde'}`@"
p1125
tp1126
Rp1127
tp1128
a(g2
I75
g3
(g7
S'`$i.\xff\x03`@'
p1129
tp1130
Rp1131
tp1132
a(g2
I76
g3
(g7
S'\x02A\xe4{(Pb@'
p1133
tp1134
Rp1135
tp1136
a(g2
I77
g3
(g7
S'\xa7\x0cl\x1da2]@'
p1137
tp1138
Rp1139
tp1140
a(g2
I78
g3
(g7
S'\xf5\x00\xe1\xd3.\xfd^@'
p1141
tp1142
Rp1143
tp1144
a(g2
I79
g3
(g7
S'\xd5\xa2\x08=B\x02a@'
p1145
tp1146
Rp1147
tp1148
a(g2
I80
g3
(g7
S'\x1f\xd5\xcc\x02\xdd\xa7c@'
p1149
tp1150
Rp1151
tp1152
a(g2
I81
g3
(g7
S'\x02\x06\x1b\xef8\x15a@'
p1153
tp1154
Rp1155
tp1156
a(g2
I82
g3
(g7
S'\n\xaf8\xcdD[^@'
p1157
tp1158
Rp1159
tp1160
a(g2
I83
g3
(g7
S'3\xedS!U\xe3_@'
p1161
tp1162
Rp1163
tp1164
a(g2
I84
g3
(g7
S'\x96^T\xc3@.`@'
p1165
tp1166
Rp1167
tp1168
a(g2
I85
g3
(g7
S'\xa2\x89\xb2\xf9\x14\xb3^@'
p1169
tp1170
Rp1171
tp1172
a(g2
I86
g3
(g7
S')F|\t\x83X]@'
p1173
tp1174
Rp1175
tp1176
a(g2
I87
g3
(g7
S'v\xbb\xb0\x11\xa18a@'
p1177
tp1178
Rp1179
tp1180
a(g2
I88
g3
(g7
S'\x9c\x84\xe5\xa8Y\x1b^@'
p1181
tp1182
Rp1183
tp1184
a(g2
I89
g3
(g7
S"'\x96[\x82\xe3\xff^@"
p1185
tp1186
Rp1187
tp1188
a(g2
I90
g3
(g7
S'\x9d\x93s\xbd\x86\xe0Z@'
p1189
tp1190
Rp1191
tp1192
a(g2
I91
g3
(g7
S'\x9bs]\x19\xe7w_@'
p1193
tp1194
Rp1195
tp1196
a(g2
I92
g3
(g7
S'\x13\xd0\xbap\xd1\x8d\\@'
p1197
tp1198
Rp1199
tp1200
a(g2
I93
g3
(g7
S'\xf4|@\x94Pm]@'
p1201
tp1202
Rp1203
tp1204
a(g2
I94
g3
(g7
S'p\x97\x95=\xc3\xc2_@'
p1205
tp1206
Rp1207
tp1208
a(g2
I95
g3
(g7
S'\x8e\x102\xa9\xfc\x07`@'
p1209
tp1210
Rp1211
tp1212
a(g2
I96
g3
(g7
S'Z\xde|X)\xe9^@'
p1213
tp1214
Rp1215
tp1216
a(g2
I97
g3
(g7
S'!2mf\xd4\x96_@'
p1217
tp1218
Rp1219
tp1220
a(g2
I98
g3
(g7
S'n\xc0\xc6\xa75\xa9[@'
p1221
tp1222
Rp1223
tp1224
a(g2
I99
g3
(g7
S'\xfd@\xc5\xfeJ8^@'
p1225
tp1226
Rp1227
tp1228
a(g2
I100
g3
(g7
S'\xe3,\xa9\x1b\x116\\@'
p1229
tp1230
Rp1231
tp1232
a(g2
I101
g3
(g7
S'\xdb\xcfn\xf8\x03\ra@'
p1233
tp1234
Rp1235
tp1236
a(g2
I102
g3
(g7
S'(:c\xb5\xee=_@'
p1237
tp1238
Rp1239
tp1240
a(g2
I103
g3
(g7
S'\xb9c\x86*c\xe7`@'
p1241
tp1242
Rp1243
tp1244
aa.