(lp0
(lp1
(S'Week = '
p2
I0
I0
tp3
a(g2
I1
I0
tp4
a(g2
I2
I0
tp5
a(g2
I3
I0
tp6
a(g2
I4
I0
tp7
a(g2
I5
I0
tp8
a(g2
I6
I0
tp9
a(g2
I7
I0
tp10
a(g2
I8
I0
tp11
a(g2
I9
I0
tp12
a(g2
I10
I0
tp13
a(g2
I11
I0
tp14
a(g2
I12
I0
tp15
a(g2
I13
I0
tp16
a(g2
I14
I0
tp17
a(g2
I15
I0
tp18
a(g2
I16
I0
tp19
a(g2
I17
I0
tp20
a(g2
I18
I0
tp21
a(g2
I19
I0
tp22
a(g2
I20
I0
tp23
a(g2
I21
I0
tp24
a(g2
I22
I0
tp25
a(g2
I23
I0
tp26
a(g2
I24
I0
tp27
a(g2
I25
I0
tp28
a(g2
I26
I0
tp29
a(g2
I27
I0
tp30
a(g2
I28
I0
tp31
a(g2
I29
I0
tp32
a(g2
I30
I0
tp33
a(g2
I31
I0
tp34
a(g2
I32
I0
tp35
a(g2
I33
I0
tp36
a(g2
I34
I0
tp37
a(g2
I35
I0
tp38
a(g2
I36
I0
tp39
a(g2
I37
I0
tp40
a(g2
I38
I0
tp41
a(g2
I39
I0
tp42
a(g2
I40
I0
tp43
a(g2
I41
I0
tp44
a(g2
I42
I0
tp45
a(g2
I43
I0
tp46
a(g2
I44
I0
tp47
a(g2
I45
I0
tp48
a(g2
I46
I0
tp49
a(g2
I47
I0
tp50
a(g2
I48
I0
tp51
a(g2
I49
I0
tp52
a(g2
I50
I0
tp53
a(g2
I51
I0
tp54
a(g2
I52
I0
tp55
a(g2
I53
I0
tp56
a(g2
I54
I0
tp57
a(g2
I55
I0
tp58
a(g2
I56
I0
tp59
a(g2
I57
I0
tp60
a(g2
I58
I0
tp61
a(g2
I59
I0
tp62
a(g2
I60
I0
tp63
a(g2
I61
I0
tp64
a(g2
I62
I0
tp65
a(g2
I63
I0
tp66
a(g2
I64
I0
tp67
a(g2
I65
I0
tp68
a(g2
I66
I0
tp69
a(g2
I67
I0
tp70
a(g2
I68
I0
tp71
a(g2
I69
I0
tp72
a(g2
I70
I0
tp73
a(g2
I71
I0
tp74
a(g2
I72
I0
tp75
a(g2
I73
I0
tp76
a(g2
I74
I0
tp77
a(g2
I75
I0
tp78
a(g2
I76
I0
tp79
a(g2
I77
I0
tp80
a(g2
I78
I0
tp81
a(g2
I79
I0
tp82
a(g2
I80
I0
tp83
a(g2
I81
I0
tp84
a(g2
I82
I0
tp85
a(g2
I83
I0
tp86
a(g2
I84
I0
tp87
a(g2
I85
I0
tp88
a(g2
I86
I0
tp89
a(g2
I87
I0
tp90
a(g2
I88
I0
tp91
a(g2
I89
I0
tp92
a(g2
I90
I0
tp93
a(g2
I91
I0
tp94
a(g2
I92
I0
tp95
a(g2
I93
I0
tp96
a(g2
I94
I0
tp97
a(g2
I95
I0
tp98
a(g2
I96
I0
tp99
a(g2
I97
I0
tp100
a(g2
I98
I0
tp101
a(g2
I99
I0
tp102
aa.