(lp0
(lp1
(S'week = '
p2
I0
I0
tp3
a(g2
I1
I0
tp4
a(g2
I2
I0
tp5
a(g2
I3
I0
tp6
a(g2
I4
I0
tp7
a(g2
I5
I0
tp8
a(g2
I6
I0
tp9
a(g2
I7
I0
tp10
a(g2
I8
I0
tp11
a(g2
I9
I0
tp12
a(g2
I10
I0
tp13
a(g2
I11
I0
tp14
a(g2
I12
I0
tp15
a(g2
I13
I0
tp16
a(g2
I14
I0
tp17
a(g2
I15
I0
tp18
a(g2
I16
I0
tp19
a(g2
I17
I0
tp20
a(g2
I18
I0
tp21
a(g2
I19
I0
tp22
a(g2
I20
I0
tp23
a(g2
I21
cnumpy.core.multiarray
scalar
p24
(cnumpy
dtype
p25
(S'f8'
p26
I0
I1
tp27
Rp28
(I3
S'<'
p29
NNNI-1
I-1
I0
tp30
bS'\xa6m\xd7\x84\x80Ac@'
p31
tp32
Rp33
tp34
a(g2
I22
I0
tp35
a(g2
I23
I0
tp36
a(g2
I24
I0
tp37
a(g2
I25
I0
tp38
a(g2
I26
I0
tp39
a(g2
I27
I0
tp40
a(g2
I28
I0
tp41
a(g2
I29
I0
tp42
a(g2
I30
I0
tp43
a(g2
I31
I0
tp44
a(g2
I32
I0
tp45
a(g2
I33
g24
(g28
S'W\x87JBl\xfe\xcd?'
p46
tp47
Rp48
tp49
a(g2
I34
I0
tp50
a(g2
I35
I0
tp51
a(g2
I36
I0
tp52
a(g2
I37
g24
(g28
S'\xa9\xfb\xff\xa8e|%@'
p53
tp54
Rp55
tp56
a(g2
I38
I0
tp57
a(g2
I39
I0
tp58
a(g2
I40
g24
(g28
S'n#\xc0\x9e\xf3hM@'
p59
tp60
Rp61
tp62
a(g2
I41
g24
(g28
S"'V\xe89\x18\x9ba@"
p63
tp64
Rp65
tp66
a(g2
I42
g24
(g28
S'\xf0\xc9\xbd\xbe\x94\x91\x02@'
p67
tp68
Rp69
tp70
a(g2
I43
g24
(g28
S'\x98b\xcb\xf7\x10\xe8\xf0?'
p71
tp72
Rp73
tp74
a(g2
I44
g24
(g28
S')\x01\xe2\x04\x9d\xdf(@'
p75
tp76
Rp77
tp78
a(g2
I45
g24
(g28
S'"=%\xb5[/?@'
p79
tp80
Rp81
tp82
a(g2
I46
g24
(g28
S'\xb4\x07\xc6\t\xfc\xd3M@'
p83
tp84
Rp85
tp86
a(g2
I47
I0
tp87
a(g2
I48
g24
(g28
S'\x83/N\xe9\xd6\x19t@'
p88
tp89
Rp90
tp91
a(g2
I49
I0
tp92
a(g2
I50
g24
(g28
S'~\xb2\x116\xedeG@'
p93
tp94
Rp95
tp96
a(g2
I51
g24
(g28
S'\xd5\xb3\x05\xa4T\xfdm@'
p97
tp98
Rp99
tp100
a(g2
I52
g24
(g28
S'\xab\xaf:\xb1\xf7\x8c|@'
p101
tp102
Rp103
tp104
a(g2
I53
g24
(g28
S'\x11\xfa\xa2\xa5Q\xfd\x87@'
p105
tp106
Rp107
tp108
a(g2
I54
g24
(g28
S'\xfb\x81\xb7\xb7P\x1d\x99@'
p109
tp110
Rp111
tp112
a(g2
I55
g24
(g28
S'\x12\xaf\xeb0\xb1J\x91@'
p113
tp114
Rp115
tp116
a(g2
I56
g24
(g28
S'<\x87/D\x15\x96\xb0@'
p117
tp118
Rp119
tp120
a(g2
I57
g24
(g28
S'\x034G\x88\xa9\x03\xa4@'
p121
tp122
Rp123
tp124
a(g2
I58
g24
(g28
S'\xcd7\x1f\xf5n\x1c\xa2@'
p125
tp126
Rp127
tp128
a(g2
I59
g24
(g28
S'\x95\x9a\xa2|\xf0\xe1\xa2@'
p129
tp130
Rp131
tp132
a(g2
I60
g24
(g28
S'\x8d5g\x94\xf3~\xb2@'
p133
tp134
Rp135
tp136
a(g2
I61
g24
(g28
S'\x0b\xb7\xee\xb8\x17\x1e\xa9@'
p137
tp138
Rp139
tp140
a(g2
I62
g24
(g28
S'_\x96\x10\xc2\x07\xd6\xa3@'
p141
tp142
Rp143
tp144
a(g2
I63
g24
(g28
S'\x85\xe9\xde%\x01\xc4\xb0@'
p145
tp146
Rp147
tp148
a(g2
I64
g24
(g28
S'wY\xb1\xe9B|\xa8@'
p149
tp150
Rp151
tp152
a(g2
I65
g24
(g28
S'Y\xab\xcdys\x15\xaf@'
p153
tp154
Rp155
tp156
a(g2
I66
g24
(g28
S'\xc6\xd1\x92\xd0\xd1r\xb2@'
p157
tp158
Rp159
tp160
a(g2
I67
g24
(g28
S'\x03\x8ej\x8b|\x87\xb0@'
p161
tp162
Rp163
tp164
a(g2
I68
g24
(g28
S'\x10\xf0\xd0\xd3nP\xb2@'
p165
tp166
Rp167
tp168
a(g2
I69
g24
(g28
S'q@w\xf0\xcb\xfa\xb3@'
p169
tp170
Rp171
tp172
a(g2
I70
g24
(g28
S'Jc\xa9\xdb\x9ff\xb3@'
p173
tp174
Rp175
tp176
a(g2
I71
g24
(g28
S'<\xae\x08.\x9c\x01\xb1@'
p177
tp178
Rp179
tp180
a(g2
I72
g24
(g28
S'\x92)\x08\xdc\xbf\x19\xb8@'
p181
tp182
Rp183
tp184
a(g2
I73
g24
(g28
S'\xa2b\xb6\xd6\x97\xd3\xb8@'
p185
tp186
Rp187
tp188
a(g2
I74
g24
(g28
S'+\\\xab\x98\x97}\xb7@'
p189
tp190
Rp191
tp192
a(g2
I75
g24
(g28
S'\x93_\x0f\x0b,\r\xb1@'
p193
tp194
Rp195
tp196
a(g2
I76
g24
(g28
S'C\x9f\xddLH\xd9\xb5@'
p197
tp198
Rp199
tp200
a(g2
I77
g24
(g28
S"\xcf'=\xcc\xaa\xee\xbb@"
p201
tp202
Rp203
tp204
a(g2
I78
g24
(g28
S'\x87\xa2\x93\xa2\x93Y\xc1@'
p205
tp206
Rp207
tp208
a(g2
I79
g24
(g28
S't`\x17\xd3\xe8\xf4\xb5@'
p209
tp210
Rp211
tp212
a(g2
I80
g24
(g28
S'\x90\xc0a\xd17\xcd\xc1@'
p213
tp214
Rp215
tp216
a(g2
I81
g24
(g28
S'\x10`G@\xa2\xca\xc3@'
p217
tp218
Rp219
tp220
a(g2
I82
g24
(g28
S'\xa4 \xf5\xec\x1b\x17\xc2@'
p221
tp222
Rp223
tp224
a(g2
I83
g24
(g28
S'-7\xf8(\x95\xdc\xb8@'
p225
tp226
Rp227
tp228
a(g2
I84
g24
(g28
S'\xf5\xa7t\xef\xe3\xb1\xbc@'
p229
tp230
Rp231
tp232
a(g2
I85
g24
(g28
S'\xb9X\x0ef\x907\xb8@'
p233
tp234
Rp235
tp236
a(g2
I86
g24
(g28
S'Y\x8fx\x8e4\xa7\xba@'
p237
tp238
Rp239
tp240
a(g2
I87
g24
(g28
S'bG\xde\xc1&/\xbc@'
p241
tp242
Rp243
tp244
a(g2
I88
g24
(g28
S'vgL\xacVv\xc4@'
p245
tp246
Rp247
tp248
a(g2
I89
g24
(g28
S't _Kc\x02\xc0@'
p249
tp250
Rp251
tp252
a(g2
I90
g24
(g28
S'\xbb9\x19d=\t\xc0@'
p253
tp254
Rp255
tp256
a(g2
I91
g24
(g28
S'\x97\xd8\xa1\xff)\x99\xc3@'
p257
tp258
Rp259
tp260
a(g2
I92
g24
(g28
S'\x89.g*\x9e\x1d\xc5@'
p261
tp262
Rp263
tp264
a(g2
I93
g24
(g28
S'\xf4~r\xde(\xc3\xbc@'
p265
tp266
Rp267
tp268
a(g2
I94
g24
(g28
S'\x06\x1f\xb4\xd9\xce\xce\xc0@'
p269
tp270
Rp271
tp272
a(g2
I95
g24
(g28
S'\xa9b\xc7\xd2\xdd\x05\xc7@'
p273
tp274
Rp275
tp276
a(g2
I96
g24
(g28
S'/K\x8e\xbd}M\xb9@'
p277
tp278
Rp279
tp280
a(g2
I97
g24
(g28
S'Z\x83\xad\x8a\xa7p\xc1@'
p281
tp282
Rp283
tp284
a(g2
I98
g24
(g28
S'~}[\xd0\xef\x91\xc5@'
p285
tp286
Rp287
tp288
a(g2
I99
g24
(g28
S'd\x91\xc9\x1e\xe8%\xc1@'
p289
tp290
Rp291
tp292
aa.