(lp0
(lp1
(S'Week = '
p2
I0
I0
tp3
a(g2
I1
I0
tp4
a(g2
I2
I0
tp5
a(g2
I3
I0
tp6
a(g2
I4
I0
tp7
a(g2
I5
I0
tp8
a(g2
I6
I1
tp9
a(g2
I7
I0
tp10
a(g2
I8
I1
tp11
a(g2
I9
I1
tp12
a(g2
I10
I2
tp13
a(g2
I11
I1
tp14
a(g2
I12
I1
tp15
a(g2
I13
I1
tp16
a(g2
I14
I0
tp17
a(g2
I15
I1
tp18
a(g2
I16
I1
tp19
a(g2
I17
I0
tp20
a(g2
I18
I1
tp21
a(g2
I19
I3
tp22
a(g2
I20
I1
tp23
a(g2
I21
I3
tp24
a(g2
I22
I2
tp25
a(g2
I23
I2
tp26
a(g2
I24
I3
tp27
a(g2
I25
I3
tp28
a(g2
I26
I4
tp29
a(g2
I27
I2
tp30
a(g2
I28
I4
tp31
a(g2
I29
I5
tp32
a(g2
I30
I5
tp33
a(g2
I31
I10
tp34
a(g2
I32
I7
tp35
a(g2
I33
I8
tp36
a(g2
I34
I9
tp37
a(g2
I35
I10
tp38
a(g2
I36
I16
tp39
a(g2
I37
I20
tp40
a(g2
I38
I15
tp41
a(g2
I39
I24
tp42
a(g2
I40
I22
tp43
a(g2
I41
I34
tp44
a(g2
I42
I28
tp45
a(g2
I43
I39
tp46
a(g2
I44
I30
tp47
a(g2
I45
I42
tp48
a(g2
I46
I47
tp49
a(g2
I47
I56
tp50
a(g2
I48
I59
tp51
a(g2
I49
I75
tp52
a(g2
I50
I73
tp53
a(g2
I51
I78
tp54
a(g2
I52
I87
tp55
a(g2
I53
I92
tp56
a(g2
I54
I103
tp57
a(g2
I55
I108
tp58
a(g2
I56
I109
tp59
a(g2
I57
I122
tp60
a(g2
I58
I126
tp61
a(g2
I59
I132
tp62
a(g2
I60
I137
tp63
a(g2
I61
I151
tp64
a(g2
I62
I164
tp65
a(g2
I63
I163
tp66
a(g2
I64
I172
tp67
a(g2
I65
I185
tp68
a(g2
I66
I195
tp69
a(g2
I67
I198
tp70
a(g2
I68
I212
tp71
a(g2
I69
I205
tp72
a(g2
I70
I225
tp73
a(g2
I71
I210
tp74
a(g2
I72
I234
tp75
a(g2
I73
I216
tp76
a(g2
I74
I241
tp77
a(g2
I75
I240
tp78
a(g2
I76
I260
tp79
a(g2
I77
I251
tp80
a(g2
I78
I269
tp81
a(g2
I79
I269
tp82
a(g2
I80
I286
tp83
a(g2
I81
I275
tp84
a(g2
I82
I291
tp85
a(g2
I83
I282
tp86
a(g2
I84
I298
tp87
a(g2
I85
I294
tp88
a(g2
I86
I303
tp89
a(g2
I87
I302
tp90
a(g2
I88
I315
tp91
a(g2
I89
I314
tp92
a(g2
I90
I313
tp93
a(g2
I91
I325
tp94
a(g2
I92
I312
tp95
a(g2
I93
I335
tp96
a(g2
I94
I319
tp97
a(g2
I95
I353
tp98
a(g2
I96
I337
tp99
a(g2
I97
I361
tp100
a(g2
I98
I354
tp101
a(g2
I99
I364
tp102
aa.