(lp0
(lp1
(S'Week = '
p2
I0
I20
tp3
a(g2
I1
I41
tp4
a(g2
I2
I58
tp5
a(g2
I3
I76
tp6
a(g2
I4
I98
tp7
a(g2
I5
I112
tp8
a(g2
I6
I133
tp9
a(g2
I7
I152
tp10
a(g2
I8
I177
tp11
a(g2
I9
I194
tp12
a(g2
I10
I211
tp13
a(g2
I11
I233
tp14
a(g2
I12
I249
tp15
a(g2
I13
I272
tp16
a(g2
I14
I285
tp17
a(g2
I15
I298
tp18
a(g2
I16
I325
tp19
a(g2
I17
I348
tp20
a(g2
I18
I363
tp21
a(g2
I19
I380
tp22
a(g2
I20
I400
tp23
a(g2
I21
I422
tp24
a(g2
I22
I440
tp25
a(g2
I23
I451
tp26
a(g2
I24
I464
tp27
a(g2
I25
I480
tp28
a(g2
I26
I495
tp29
a(g2
I27
I514
tp30
a(g2
I28
I527
tp31
a(g2
I29
I541
tp32
a(g2
I30
I558
tp33
a(g2
I31
I574
tp34
a(g2
I32
I577
tp35
a(g2
I33
I598
tp36
a(g2
I34
I618
tp37
a(g2
I35
I630
tp38
a(g2
I36
I637
tp39
a(g2
I37
I650
tp40
a(g2
I38
I657
tp41
a(g2
I39
I675
tp42
a(g2
I40
I691
tp43
a(g2
I41
I700
tp44
a(g2
I42
I714
tp45
a(g2
I43
I728
tp46
a(g2
I44
I742
tp47
a(g2
I45
I751
tp48
a(g2
I46
I764
tp49
a(g2
I47
I771
tp50
a(g2
I48
I783
tp51
a(g2
I49
I796
tp52
a(g2
I50
I811
tp53
a(g2
I51
I819
tp54
a(g2
I52
I817
tp55
a(g2
I53
I827
tp56
a(g2
I54
I838
tp57
a(g2
I55
I852
tp58
a(g2
I56
I846
tp59
a(g2
I57
I853
tp60
a(g2
I58
I866
tp61
a(g2
I59
I879
tp62
a(g2
I60
I882
tp63
a(g2
I61
I897
tp64
a(g2
I62
I893
tp65
a(g2
I63
I894
tp66
a(g2
I64
I894
tp67
a(g2
I65
I899
tp68
a(g2
I66
I902
tp69
a(g2
I67
I911
tp70
a(g2
I68
I920
tp71
a(g2
I69
I922
tp72
a(g2
I70
I925
tp73
a(g2
I71
I931
tp74
a(g2
I72
I940
tp75
a(g2
I73
I946
tp76
a(g2
I74
I957
tp77
a(g2
I75
I954
tp78
a(g2
I76
I956
tp79
a(g2
I77
I960
tp80
a(g2
I78
I963
tp81
a(g2
I79
I970
tp82
a(g2
I80
I972
tp83
a(g2
I81
I977
tp84
a(g2
I82
I980
tp85
a(g2
I83
I981
tp86
a(g2
I84
I984
tp87
a(g2
I85
I979
tp88
a(g2
I86
I988
tp89
a(g2
I87
I992
tp90
a(g2
I88
I1000
tp91
a(g2
I89
I1004
tp92
a(g2
I90
I1019
tp93
a(g2
I91
I1024
tp94
a(g2
I92
I1027
tp95
a(g2
I93
I1027
tp96
a(g2
I94
I1039
tp97
a(g2
I95
I1047
tp98
a(g2
I96
I1054
tp99
a(g2
I97
I1051
tp100
a(g2
I98
I1054
tp101
a(g2
I99
I1058
tp102
aa.