(lp0
(lp1
(S'Total clients IN ESP for Week = '
p2
I0
F20.0
tp3
a(g2
I1
F21.0
tp4
a(g2
I2
F17.0
tp5
a(g2
I3
F18.0
tp6
a(g2
I4
F22.0
tp7
a(g2
I5
F14.0
tp8
a(g2
I6
F21.0
tp9
a(g2
I7
F19.0
tp10
a(g2
I8
F25.0
tp11
a(g2
I9
F17.0
tp12
a(g2
I10
F17.0
tp13
a(g2
I11
F22.0
tp14
a(g2
I12
F17.0
tp15
a(g2
I13
F26.0
tp16
a(g2
I14
F14.0
tp17
a(g2
I15
F14.0
tp18
a(g2
I16
F30.0
tp19
a(g2
I17
F25.0
tp20
a(g2
I18
F18.0
tp21
a(g2
I19
F19.0
tp22
a(g2
I20
F24.0
tp23
a(g2
I21
F26.0
tp24
a(g2
I22
F20.0
tp25
a(g2
I23
F14.0
tp26
a(g2
I24
F19.0
tp27
a(g2
I25
F19.0
tp28
a(g2
I26
F22.0
tp29
a(g2
I27
F25.0
tp30
a(g2
I28
F18.0
tp31
a(g2
I29
F20.0
tp32
a(g2
I30
F22.0
tp33
a(g2
I31
F18.0
tp34
a(g2
I32
F12.0
tp35
a(g2
I33
F29.0
tp36
a(g2
I34
F26.0
tp37
a(g2
I35
F24.0
tp38
a(g2
I36
F18.0
tp39
a(g2
I37
F24.0
tp40
a(g2
I38
F18.0
tp41
a(g2
I39
F26.0
tp42
a(g2
I40
F21.0
tp43
a(g2
I41
F23.0
tp44
a(g2
I42
F21.0
tp45
a(g2
I43
F22.0
tp46
a(g2
I44
F25.0
tp47
a(g2
I45
F20.0
tp48
a(g2
I46
F23.0
tp49
a(g2
I47
F20.0
tp50
a(g2
I48
F25.0
tp51
a(g2
I49
F24.0
tp52
a(g2
I50
F24.0
tp53
a(g2
I51
F21.0
tp54
a(g2
I52
F14.0
tp55
a(g2
I53
F20.0
tp56
a(g2
I54
F19.0
tp57
a(g2
I55
F25.0
tp58
a(g2
I56
F14.0
tp59
a(g2
I57
F21.0
tp60
a(g2
I58
F20.0
tp61
a(g2
I59
F22.0
tp62
a(g2
I60
F20.0
tp63
a(g2
I61
F19.0
tp64
a(g2
I62
F16.0
tp65
a(g2
I63
F19.0
tp66
a(g2
I64
F14.0
tp67
a(g2
I65
F20.0
tp68
a(g2
I66
F18.0
tp69
a(g2
I67
F21.0
tp70
a(g2
I68
F21.0
tp71
a(g2
I69
F19.0
tp72
a(g2
I70
F20.0
tp73
a(g2
I71
F23.0
tp74
a(g2
I72
F23.0
tp75
a(g2
I73
F22.0
tp76
a(g2
I74
F19.0
tp77
a(g2
I75
F13.0
tp78
a(g2
I76
F17.0
tp79
a(g2
I77
F16.0
tp80
a(g2
I78
F21.0
tp81
a(g2
I79
F20.0
tp82
a(g2
I80
F22.0
tp83
a(g2
I81
F18.0
tp84
a(g2
I82
F19.0
tp85
a(g2
I83
F21.0
tp86
a(g2
I84
F17.0
tp87
a(g2
I85
F16.0
tp88
a(g2
I86
F17.0
tp89
a(g2
I87
F23.0
tp90
a(g2
I88
F22.0
tp91
a(g2
I89
F20.0
tp92
a(g2
I90
F27.0
tp93
a(g2
I91
F20.0
tp94
a(g2
I92
F24.0
tp95
a(g2
I93
F17.0
tp96
a(g2
I94
F20.0
tp97
a(g2
I95
F20.0
tp98
a(g2
I96
F24.0
tp99
a(g2
I97
F19.0
tp100
a(g2
I98
F25.0
tp101
a(g2
I99
F21.0
tp102
aa.