(lp0
(lp1
(S'Week = '
p2
I0
I0
tp3
a(g2
I1
I0
tp4
a(g2
I2
I0
tp5
a(g2
I3
I2
tp6
a(g2
I4
I2
tp7
a(g2
I5
I3
tp8
a(g2
I6
I1
tp9
a(g2
I7
I3
tp10
a(g2
I8
I4
tp11
a(g2
I9
I7
tp12
a(g2
I10
I5
tp13
a(g2
I11
I4
tp14
a(g2
I12
I3
tp15
a(g2
I13
I7
tp16
a(g2
I14
I4
tp17
a(g2
I15
I3
tp18
a(g2
I16
I4
tp19
a(g2
I17
I7
tp20
a(g2
I18
I9
tp21
a(g2
I19
I9
tp22
a(g2
I20
I13
tp23
a(g2
I21
I10
tp24
a(g2
I22
I9
tp25
a(g2
I23
I11
tp26
a(g2
I24
I13
tp27
a(g2
I25
I9
tp28
a(g2
I26
I12
tp29
a(g2
I27
I13
tp30
a(g2
I28
I16
tp31
a(g2
I29
I16
tp32
a(g2
I30
I26
tp33
a(g2
I31
I17
tp34
a(g2
I32
I24
tp35
a(g2
I33
I23
tp36
a(g2
I34
I31
tp37
a(g2
I35
I33
tp38
a(g2
I36
I27
tp39
a(g2
I37
I33
tp40
a(g2
I38
I45
tp41
a(g2
I39
I43
tp42
a(g2
I40
I51
tp43
a(g2
I41
I39
tp44
a(g2
I42
I59
tp45
a(g2
I43
I55
tp46
a(g2
I44
I74
tp47
a(g2
I45
I61
tp48
a(g2
I46
I74
tp49
a(g2
I47
I75
tp50
a(g2
I48
I89
tp51
a(g2
I49
I96
tp52
a(g2
I50
I96
tp53
a(g2
I51
I112
tp54
a(g2
I52
I105
tp55
a(g2
I53
I127
tp56
a(g2
I54
I126
tp57
a(g2
I55
I126
tp58
a(g2
I56
I143
tp59
a(g2
I57
I136
tp60
a(g2
I58
I155
tp61
a(g2
I59
I161
tp62
a(g2
I60
I166
tp63
a(g2
I61
I182
tp64
a(g2
I62
I200
tp65
a(g2
I63
I193
tp66
a(g2
I64
I213
tp67
a(g2
I65
I215
tp68
a(g2
I66
I204
tp69
a(g2
I67
I232
tp70
a(g2
I68
I232
tp71
a(g2
I69
I244
tp72
a(g2
I70
I236
tp73
a(g2
I71
I259
tp74
a(g2
I72
I246
tp75
a(g2
I73
I259
tp76
a(g2
I74
I260
tp77
a(g2
I75
I281
tp78
a(g2
I76
I255
tp79
a(g2
I77
I296
tp80
a(g2
I78
I291
tp81
a(g2
I79
I309
tp82
a(g2
I80
I312
tp83
a(g2
I81
I313
tp84
a(g2
I82
I306
tp85
a(g2
I83
I324
tp86
a(g2
I84
I311
tp87
a(g2
I85
I333
tp88
a(g2
I86
I334
tp89
a(g2
I87
I335
tp90
a(g2
I88
I348
tp91
a(g2
I89
I330
tp92
a(g2
I90
I342
tp93
a(g2
I91
I328
tp94
a(g2
I92
I359
tp95
a(g2
I93
I336
tp96
a(g2
I94
I370
tp97
a(g2
I95
I358
tp98
a(g2
I96
I386
tp99
a(g2
I97
I371
tp100
a(g2
I98
I389
tp101
a(g2
I99
I386
tp102
aa.