(lp0
(lp1
(S'week = '
p2
I0
I0
tp3
a(g2
I1
I0
tp4
a(g2
I2
I0
tp5
a(g2
I3
I0
tp6
a(g2
I4
I0
tp7
a(g2
I5
I0
tp8
a(g2
I6
I0
tp9
a(g2
I7
I0
tp10
a(g2
I8
I0
tp11
a(g2
I9
I0
tp12
a(g2
I10
I0
tp13
a(g2
I11
I0
tp14
a(g2
I12
I0
tp15
a(g2
I13
I0
tp16
a(g2
I14
I0
tp17
a(g2
I15
I0
tp18
a(g2
I16
I0
tp19
a(g2
I17
I0
tp20
a(g2
I18
I0
tp21
a(g2
I19
I0
tp22
a(g2
I20
I0
tp23
a(g2
I21
I0
tp24
a(g2
I22
I0
tp25
a(g2
I23
I0
tp26
a(g2
I24
I0
tp27
a(g2
I25
cnumpy.core.multiarray
scalar
p28
(cnumpy
dtype
p29
(S'f8'
p30
I0
I1
tp31
Rp32
(I3
S'<'
p33
NNNI-1
I-1
I0
tp34
bS'\x90\xc4\nu\xf4)\xed?'
p35
tp36
Rp37
tp38
a(g2
I26
g28
(g32
S'0_\xb7\x86)NI@'
p39
tp40
Rp41
tp42
a(g2
I27
I0
tp43
a(g2
I28
I0
tp44
a(g2
I29
I0
tp45
a(g2
I30
I0
tp46
a(g2
I31
I0
tp47
a(g2
I32
I0
tp48
a(g2
I33
I0
tp49
a(g2
I34
I0
tp50
a(g2
I35
g28
(g32
S'\x96\xcac8\x1e(\x05@'
p51
tp52
Rp53
tp54
a(g2
I36
I0
tp55
a(g2
I37
g28
(g32
S'B\xc7\x81/2\x94H@'
p56
tp57
Rp58
tp59
a(g2
I38
I0
tp60
a(g2
I39
I0
tp61
a(g2
I40
I0
tp62
a(g2
I41
g28
(g32
S'\x0b\xcc\xf1ZG\xd7\x16@'
p63
tp64
Rp65
tp66
a(g2
I42
g28
(g32
S'a\x99\x7f\xd6zn`@'
p67
tp68
Rp69
tp70
a(g2
I43
g28
(g32
S'N\x98\x96[\x13\x17K@'
p71
tp72
Rp73
tp74
a(g2
I44
g28
(g32
S'\xacY\xfayB\xdcJ@'
p75
tp76
Rp77
tp78
a(g2
I45
g28
(g32
S'\x93\xf5\x97\x05uSk@'
p79
tp80
Rp81
tp82
a(g2
I46
g28
(g32
S'\xcc\xc0\x9e\xabe\nQ@'
p83
tp84
Rp85
tp86
a(g2
I47
g28
(g32
S'\x88\xc4\xb6\x19\xa2\xe9\x08@'
p87
tp88
Rp89
tp90
a(g2
I48
g28
(g32
S'\xc8\xf9U\r\\\x0e\xea?'
p91
tp92
Rp93
tp94
a(g2
I49
I0
tp95
a(g2
I50
g28
(g32
S'\xc0\x8a\xee\xcb\xe9\xac;@'
p96
tp97
Rp98
tp99
a(g2
I51
g28
(g32
S'\x1a?6\x01+f\x88@'
p100
tp101
Rp102
tp103
a(g2
I52
g28
(g32
S'\xe2\x08l\xcf8v\x83@'
p104
tp105
Rp106
tp107
a(g2
I53
g28
(g32
S'F\x19\x9b\xd4\xa6"\xa0@'
p108
tp109
Rp110
tp111
a(g2
I54
g28
(g32
S'\x8e\x08\xe3\x08\x98\xab\xa0@'
p112
tp113
Rp114
tp115
a(g2
I55
g28
(g32
S'\xeb/\x0e\x16\x06~\x96@'
p116
tp117
Rp118
tp119
a(g2
I56
g28
(g32
S'\x01a\xdc=~\xd5\xab@'
p120
tp121
Rp122
tp123
a(g2
I57
g28
(g32
S'\x9a\xa1\x7fY\xad0\xa5@'
p124
tp125
Rp126
tp127
a(g2
I58
g28
(g32
S'\xa7\xde\xa00\xdd\xe6\xaa@'
p128
tp129
Rp130
tp131
a(g2
I59
g28
(g32
S':\x84zy\xc5\xee\xac@'
p132
tp133
Rp134
tp135
a(g2
I60
g28
(g32
S'\x1f\xaf\xcb\xa7\xcd0\xa4@'
p136
tp137
Rp138
tp139
a(g2
I61
g28
(g32
S'\x98i;&\xa09\xb2@'
p140
tp141
Rp142
tp143
a(g2
I62
g28
(g32
S'F\x83/\x93]\xae\xb2@'
p144
tp145
Rp146
tp147
a(g2
I63
g28
(g32
S'\x89\xc6f0\xae\x88\xb3@'
p148
tp149
Rp150
tp151
a(g2
I64
g28
(g32
S'\x1bu,\xa6\x88\xb7\xac@'
p152
tp153
Rp154
tp155
a(g2
I65
g28
(g32
S'\xd0\x93\x93\xde\xee\xc7\xb1@'
p156
tp157
Rp158
tp159
a(g2
I66
g28
(g32
S'\x046\xe8\x10\xc5\x8d\xae@'
p160
tp161
Rp162
tp163
a(g2
I67
g28
(g32
S'\x03\xd4\x960\xd2\xd1\xb7@'
p164
tp165
Rp166
tp167
a(g2
I68
g28
(g32
S'Zo!\x17\xa5\xce\xb0@'
p168
tp169
Rp170
tp171
a(g2
I69
g28
(g32
S'\x99\x07\x88\xe4\x14\xa4\xb9@'
p172
tp173
Rp174
tp175
a(g2
I70
g28
(g32
S'\xafm\xf0\xce[\xc3\xb8@'
p176
tp177
Rp178
tp179
a(g2
I71
g28
(g32
S'/\x02_\x12h>\xb9@'
p180
tp181
Rp182
tp183
a(g2
I72
g28
(g32
S'\x984$\xd4M\xde\xb7@'
p184
tp185
Rp186
tp187
a(g2
I73
g28
(g32
S'\x8e\xe8\xb8d\xfb\x89\xb4@'
p188
tp189
Rp190
tp191
a(g2
I74
g28
(g32
S'U\x9f\xa1\x17<\xf7\xc0@'
p192
tp193
Rp194
tp195
a(g2
I75
g28
(g32
S'u\xd9\x02\xb2\xf8\x88\xbb@'
p196
tp197
Rp198
tp199
a(g2
I76
g28
(g32
S'T\xcd\x06Rq\x10\xbe@'
p200
tp201
Rp202
tp203
a(g2
I77
g28
(g32
S'\x8b.\xe9\x91+T\xba@'
p204
tp205
Rp206
tp207
a(g2
I78
g28
(g32
S'\xb4\xad\xb0T\x12\xbc\xbe@'
p208
tp209
Rp210
tp211
a(g2
I79
g28
(g32
S'.h\xcf\xdf&:\xbf@'
p212
tp213
Rp214
tp215
a(g2
I80
g28
(g32
S'w\x17\x00\xb2a\xbc\xbd@'
p216
tp217
Rp218
tp219
a(g2
I81
g28
(g32
S'\x7f\x9aL\xf6\xab\xf3\xbb@'
p220
tp221
Rp222
tp223
a(g2
I82
g28
(g32
S'~F\xfe3h\x97\xc3@'
p224
tp225
Rp226
tp227
a(g2
I83
g28
(g32
S'.f\xee\xf6\xee~\xc0@'
p228
tp229
Rp230
tp231
a(g2
I84
g28
(g32
S'\xe7\n\x8d\xbfi1\xbb@'
p232
tp233
Rp234
tp235
a(g2
I85
g28
(g32
S'OJ]%\xf0\xd1\xc1@'
p236
tp237
Rp238
tp239
a(g2
I86
g28
(g32
S'-a\xf3\xcfH\xba\xc1@'
p240
tp241
Rp242
tp243
a(g2
I87
g28
(g32
S'\x1eA\xac!\x08G\xc1@'
p244
tp245
Rp246
tp247
a(g2
I88
g28
(g32
S'\xf0\xc6\x11\xa6i\xae\xc2@'
p248
tp249
Rp250
tp251
a(g2
I89
g28
(g32
S'\x04i\xcfuQ\xf4\xc1@'
p252
tp253
Rp254
tp255
a(g2
I90
g28
(g32
S'<^ \x81\xd1\xfb\xc2@'
p256
tp257
Rp258
tp259
a(g2
I91
g28
(g32
S'\xf7\xb9\x18\x92\xb4c\xbd@'
p260
tp261
Rp262
tp263
a(g2
I92
g28
(g32
S'\xc8\x11\xc1\x97\x93C\xc4@'
p264
tp265
Rp266
tp267
a(g2
I93
g28
(g32
S'\xe2u\x0cf8\xc9\xc2@'
p268
tp269
Rp270
tp271
a(g2
I94
g28
(g32
S'\xccm@d\xf0\xf5\xc7@'
p272
tp273
Rp274
tp275
a(g2
I95
g28
(g32
S',\xcb\xd3)\x88\xef\xc5@'
p276
tp277
Rp278
tp279
a(g2
I96
g28
(g32
S'\x00\xc9y\xb8n\xd4\xc7@'
p280
tp281
Rp282
tp283
a(g2
I97
g28
(g32
S'\xa4V\x7f\xb11s\xc1@'
p284
tp285
Rp286
tp287
a(g2
I98
g28
(g32
S'lah\x80\x9aj\xc5@'
p288
tp289
Rp290
tp291
a(g2
I99
g28
(g32
S'\xd8>\xdaV8e\xc4@'
p292
tp293
Rp294
tp295
a(g2
I100
g28
(g32
S'\xd5\xef\xf9\xb6\x8aG\xc6@'
p296
tp297
Rp298
tp299
a(g2
I101
g28
(g32
S'\x17\x8635\xc4%\xc5@'
p300
tp301
Rp302
tp303
a(g2
I102
g28
(g32
S'\x14i\xba^\xb0\x90\xc4@'
p304
tp305
Rp306
tp307
a(g2
I103
g28
(g32
S'\xa3\xc3\x9dC\xb9_\xc8@'
p308
tp309
Rp310
tp311
aa(lp312
(g2
I0
I0
tp313
a(g2
I1
I0
tp314
a(g2
I2
I0
tp315
a(g2
I3
I0
tp316
a(g2
I4
I0
tp317
a(g2
I5
I0
tp318
a(g2
I6
I0
tp319
a(g2
I7
I0
tp320
a(g2
I8
g28
(g32
S'\xf4#\x85P\xb8\xa1\xb1?'
p321
tp322
Rp323
tp324
a(g2
I9
I0
tp325
a(g2
I10
I0
tp326
a(g2
I11
I0
tp327
a(g2
I12
I0
tp328
a(g2
I13
I0
tp329
a(g2
I14
I0
tp330
a(g2
I15
I0
tp331
a(g2
I16
I0
tp332
a(g2
I17
I0
tp333
a(g2
I18
I0
tp334
a(g2
I19
g28
(g32
S'\x1b\x84\xa5\xbb8\x04`@'
p335
tp336
Rp337
tp338
a(g2
I20
I0
tp339
a(g2
I21
I0
tp340
a(g2
I22
I0
tp341
a(g2
I23
I0
tp342
a(g2
I24
I0
tp343
a(g2
I25
I0
tp344
a(g2
I26
I0
tp345
a(g2
I27
I0
tp346
a(g2
I28
I0
tp347
a(g2
I29
I0
tp348
a(g2
I30
I0
tp349
a(g2
I31
I0
tp350
a(g2
I32
I0
tp351
a(g2
I33
I0
tp352
a(g2
I34
I0
tp353
a(g2
I35
g28
(g32
S'\x8b\xba\x8e\xad\xff\xb5Y@'
p354
tp355
Rp356
tp357
a(g2
I36
g28
(g32
S'q\xddv\xfc\xef\x91[@'
p358
tp359
Rp360
tp361
a(g2
I37
I0
tp362
a(g2
I38
g28
(g32
S'\xa3\x03\xd5\x01;\x06D@'
p363
tp364
Rp365
tp366
a(g2
I39
I0
tp367
a(g2
I40
I0
tp368
a(g2
I41
g28
(g32
S'\x0cy\xdf\xb0\x94\xcf\x15@'
p369
tp370
Rp371
tp372
a(g2
I42
I0
tp373
a(g2
I43
g28
(g32
S'~\x82\xd5\x11\xa4\xa1q@'
p374
tp375
Rp376
tp377
a(g2
I44
g28
(g32
S':\x80\xb8M\xcbf @'
p378
tp379
Rp380
tp381
a(g2
I45
I0
tp382
a(g2
I46
g28
(g32
S'\x85G\xaf\x0c\xb8bD@'
p383
tp384
Rp385
tp386
a(g2
I47
g28
(g32
S'N\xf0\xc4\xddi\x07a@'
p387
tp388
Rp389
tp390
a(g2
I48
g28
(g32
S'6YS\xff\x83.Q@'
p391
tp392
Rp393
tp394
a(g2
I49
g28
(g32
S'\xb6Y\xb9r\xf7<c@'
p395
tp396
Rp397
tp398
a(g2
I50
g28
(g32
S'x\xb07\xff\xae;@@'
p399
tp400
Rp401
tp402
a(g2
I51
g28
(g32
S'\xdfH\x03\xcb-\xfbR@'
p403
tp404
Rp405
tp406
a(g2
I52
g28
(g32
S"\xe0\x8c\x97'\xc3\xf8\x93@"
p407
tp408
Rp409
tp410
a(g2
I53
g28
(g32
S'\xc9WI\xc4\xb6\xf2\x88@'
p411
tp412
Rp413
tp414
a(g2
I54
g28
(g32
S'/\xbb\t]\xc0\x97\x99@'
p415
tp416
Rp417
tp418
a(g2
I55
g28
(g32
S'\xf7\x07u*\x96\xae\x9b@'
p419
tp420
Rp421
tp422
a(g2
I56
g28
(g32
S'\xaf\xb0kB\xae\xf4\xa3@'
p423
tp424
Rp425
tp426
a(g2
I57
g28
(g32
S'\x12\x99f\xf9\x95E\xa3@'
p427
tp428
Rp429
tp430
a(g2
I58
g28
(g32
S'\x9e\x18\xbeYd\xb7\xab@'
p431
tp432
Rp433
tp434
a(g2
I59
g28
(g32
S'\xb6\xd2[\x9d\xe4\x10\xb5@'
p435
tp436
Rp437
tp438
a(g2
I60
g28
(g32
S'W::\xd7s4\xb2@'
p439
tp440
Rp441
tp442
a(g2
I61
g28
(g32
S'\xdfz\x9fM\xa3\xdb\xb4@'
p443
tp444
Rp445
tp446
a(g2
I62
g28
(g32
S'|\x1a\x00\x99\xd4\xe4\xb0@'
p447
tp448
Rp449
tp450
a(g2
I63
g28
(g32
S'?\x92\x90C\xf3&\xbb@'
p451
tp452
Rp453
tp454
a(g2
I64
g28
(g32
S'X\xc1C\xcbn\xa4\xb2@'
p455
tp456
Rp457
tp458
a(g2
I65
g28
(g32
S'\x11\n\xaf\x90h\xa1\xb1@'
p459
tp460
Rp461
tp462
a(g2
I66
g28
(g32
S'\xd1\xc4\x8b\xe2\xc00\xb3@'
p463
tp464
Rp465
tp466
a(g2
I67
g28
(g32
S')D\x1b\xf3m\xf7\xb3@'
p467
tp468
Rp469
tp470
a(g2
I68
g28
(g32
S'\xd0\xd0\xa1/Z\xcd\xb9@'
p471
tp472
Rp473
tp474
a(g2
I69
g28
(g32
S'\xc8\xa7\xc2\x12h\xce\xb9@'
p475
tp476
Rp477
tp478
a(g2
I70
g28
(g32
S'\t|\x8f.!\xa2\xb7@'
p479
tp480
Rp481
tp482
a(g2
I71
g28
(g32
S'6Z\xed\x14\x9b\x90\xbc@'
p483
tp484
Rp485
tp486
a(g2
I72
g28
(g32
S'\xed\xd2$\t\xd8\xaf\xbe@'
p487
tp488
Rp489
tp490
a(g2
I73
g28
(g32
S'\x9d\x0e\xdc\xaan5\xb9@'
p491
tp492
Rp493
tp494
a(g2
I74
g28
(g32
S'\xcd\xf2\n\xdb[\xe7\xbf@'
p495
tp496
Rp497
tp498
a(g2
I75
g28
(g32
S'\xcc\xf5\x84n\xe4\xe8\xba@'
p499
tp500
Rp501
tp502
a(g2
I76
g28
(g32
S'T\xf7\xca\xa0.\x85\xbd@'
p503
tp504
Rp505
tp506
a(g2
I77
g28
(g32
S'\xad\x1cD\xaaWp\xc3@'
p507
tp508
Rp509
tp510
a(g2
I78
g28
(g32
S'!Q\x86\x18\x1a\xd1\xbb@'
p511
tp512
Rp513
tp514
a(g2
I79
g28
(g32
S']\x7f\x08\xb2r\x07\xc0@'
p515
tp516
Rp517
tp518
a(g2
I80
g28
(g32
S'Qc\xa6~K\x0c\xc1@'
p519
tp520
Rp521
tp522
a(g2
I81
g28
(g32
S"E\x04'c\xde\xfb\xbf@"
p523
tp524
Rp525
tp526
a(g2
I82
g28
(g32
S'-\xb9\x93\x15n\xf4\xc0@'
p527
tp528
Rp529
tp530
a(g2
I83
g28
(g32
S'\xc1\xd9\xee\xe7\xf2\x12\xc2@'
p531
tp532
Rp533
tp534
a(g2
I84
g28
(g32
S'\x9e<\xe0\xe8y\xe1\xc0@'
p535
tp536
Rp537
tp538
a(g2
I85
g28
(g32
S'\xb3ya\xfc\x1d\xc8\xc2@'
p539
tp540
Rp541
tp542
a(g2
I86
g28
(g32
S'\xcd\x87Z\xacj\xd2\xc1@'
p543
tp544
Rp545
tp546
a(g2
I87
g28
(g32
S'S\xf1\xcd3_\xec\xc0@'
p547
tp548
Rp549
tp550
a(g2
I88
g28
(g32
S'\xc5\x87x\x00S\x9a\xc3@'
p551
tp552
Rp553
tp554
a(g2
I89
g28
(g32
S'1.\xa6*nE\xc4@'
p555
tp556
Rp557
tp558
a(g2
I90
g28
(g32
S'\x01\x08x\xd6\r\xef\xc4@'
p559
tp560
Rp561
tp562
a(g2
I91
g28
(g32
S'*\xd5\xcf\x19\n\x1f\xc1@'
p563
tp564
Rp565
tp566
a(g2
I92
g28
(g32
S'\xe78\xf4\x06\x9c\x86\xc6@'
p567
tp568
Rp569
tp570
a(g2
I93
g28
(g32
S'dp(\xd6\x14Q\xc8@'
p571
tp572
Rp573
tp574
a(g2
I94
g28
(g32
S'\x13h\xd0\xe4@;\xc5@'
p575
tp576
Rp577
tp578
a(g2
I95
g28
(g32
S'\xa5k\xca,\xc1\x82\xc9@'
p579
tp580
Rp581
tp582
a(g2
I96
g28
(g32
S'tp&g\x82\xfc\xc2@'
p583
tp584
Rp585
tp586
a(g2
I97
g28
(g32
S'\xc0d\xc2\xe3\x1b\xf3\xc5@'
p587
tp588
Rp589
tp590
a(g2
I98
g28
(g32
S'\xb6B\xc4RB\x8c\xc4@'
p591
tp592
Rp593
tp594
a(g2
I99
g28
(g32
S'\x9f\xb7ZD\xa7\x1f\xc6@'
p595
tp596
Rp597
tp598
a(g2
I100
g28
(g32
S'r\xdf\x83\x97\x8eM\xc9@'
p599
tp600
Rp601
tp602
a(g2
I101
g28
(g32
S'\x0c&P\x1ba\xf1\xc6@'
p603
tp604
Rp605
tp606
a(g2
I102
g28
(g32
S'#\x89\n4YL\xc4@'
p607
tp608
Rp609
tp610
a(g2
I103
g28
(g32
S'v\x06\xc9\xa2\xca\x88\xc7@'
p611
tp612
Rp613
tp614
aa(lp615
(g2
I0
I0
tp616
a(g2
I1
I0
tp617
a(g2
I2
I0
tp618
a(g2
I3
I0
tp619
a(g2
I4
I0
tp620
a(g2
I5
I0
tp621
a(g2
I6
I0
tp622
a(g2
I7
I0
tp623
a(g2
I8
I0
tp624
a(g2
I9
I0
tp625
a(g2
I10
I0
tp626
a(g2
I11
I0
tp627
a(g2
I12
I0
tp628
a(g2
I13
I0
tp629
a(g2
I14
I0
tp630
a(g2
I15
I0
tp631
a(g2
I16
I0
tp632
a(g2
I17
I0
tp633
a(g2
I18
I0
tp634
a(g2
I19
I0
tp635
a(g2
I20
I0
tp636
a(g2
I21
I0
tp637
a(g2
I22
g28
(g32
S'\xbd`\xf5\xbd"\xdff@'
p638
tp639
Rp640
tp641
a(g2
I23
I0
tp642
a(g2
I24
I0
tp643
a(g2
I25
I0
tp644
a(g2
I26
I0
tp645
a(g2
I27
I0
tp646
a(g2
I28
I0
tp647
a(g2
I29
I0
tp648
a(g2
I30
I0
tp649
a(g2
I31
I0
tp650
a(g2
I32
I0
tp651
a(g2
I33
I0
tp652
a(g2
I34
I0
tp653
a(g2
I35
I0
tp654
a(g2
I36
I0
tp655
a(g2
I37
g28
(g32
S'\x97\x88\\>\x17q>@'
p656
tp657
Rp658
tp659
a(g2
I38
g28
(g32
S'\xdd_\xb0\xef\x8e\xea\xff?'
p660
tp661
Rp662
tp663
a(g2
I39
g28
(g32
S'\x8atO\xe7"nC@'
p664
tp665
Rp666
tp667
a(g2
I40
g28
(g32
S'\xac?\x01c?\xba/@'
p668
tp669
Rp670
tp671
a(g2
I41
g28
(g32
S'\xf7\xeb\xb9\xd1(\x0bF@'
p672
tp673
Rp674
tp675
a(g2
I42
g28
(g32
S'\xd7sCA`\rY@'
p676
tp677
Rp678
tp679
a(g2
I43
g28
(g32
S'T\x89E!{\xaac@'
p680
tp681
Rp682
tp683
a(g2
I44
g28
(g32
S'Z\xeb\x04\x0cU\x9d\x16@'
p684
tp685
Rp686
tp687
a(g2
I45
g28
(g32
S'\x07Z[9}\x0cX@'
p688
tp689
Rp690
tp691
a(g2
I46
g28
(g32
S'u\xa8x\x82N\x96p@'
p692
tp693
Rp694
tp695
a(g2
I47
g28
(g32
S'\x9e\xf7\x7fI\x1c\xd8]@'
p696
tp697
Rp698
tp699
a(g2
I48
g28
(g32
S'm\xe4E\xc2\xb8\xb3\x7f@'
p700
tp701
Rp702
tp703
a(g2
I49
g28
(g32
S'\xe9\x949\xc3\xf9\x99e@'
p704
tp705
Rp706
tp707
a(g2
I50
g28
(g32
S'\xa5\xc7\xb4\xa0\x8ap]@'
p708
tp709
Rp710
tp711
a(g2
I51
g28
(g32
S'\x86[\n/\xf1l\x96@'
p712
tp713
Rp714
tp715
a(g2
I52
g28
(g32
S'u\xa9\xa3\xeba\x06\x93@'
p716
tp717
Rp718
tp719
a(g2
I53
g28
(g32
S'\xd5\xfd^+G\\\x92@'
p720
tp721
Rp722
tp723
a(g2
I54
g28
(g32
S'\xd5\xad\xde\x7f\xd6\xb4\x90@'
p724
tp725
Rp726
tp727
a(g2
I55
g28
(g32
S'"\xd9\xf5\xaa\xfaT\x9e@'
p728
tp729
Rp730
tp731
a(g2
I56
g28
(g32
S'\xb2\x9b\xa8X\x10\xfd\xad@'
p732
tp733
Rp734
tp735
a(g2
I57
g28
(g32
S'\xc1?-2\xbaz\xa4@'
p736
tp737
Rp738
tp739
a(g2
I58
g28
(g32
S'\xb3\xa0\xefpB^\xa6@'
p740
tp741
Rp742
tp743
a(g2
I59
g28
(g32
S'\xf5N\xe7O\xf5\x7f\xa3@'
p744
tp745
Rp746
tp747
a(g2
I60
g28
(g32
S'\x7f\xddT\x15\x0c[\xad@'
p748
tp749
Rp750
tp751
a(g2
I61
g28
(g32
S'\x1d\xbe\xb1/L\xe6\xaf@'
p752
tp753
Rp754
tp755
a(g2
I62
g28
(g32
S'g\x10dz\xea#\xb3@'
p756
tp757
Rp758
tp759
a(g2
I63
g28
(g32
S'^\xb5pB<T\xa8@'
p760
tp761
Rp762
tp763
a(g2
I64
g28
(g32
S'1\xc8{G\r\xcc\xb1@'
p764
tp765
Rp766
tp767
a(g2
I65
g28
(g32
S'\xc2\x14\x16\xf8\xe1w\xb4@'
p768
tp769
Rp770
tp771
a(g2
I66
g28
(g32
S'u\n\x93U\xdf]\xb0@'
p772
tp773
Rp774
tp775
a(g2
I67
g28
(g32
S' D\xed\xad\xaa\xb4\xb5@'
p776
tp777
Rp778
tp779
a(g2
I68
g28
(g32
S'r\xf1\x0ef/\xcf\xbc@'
p780
tp781
Rp782
tp783
a(g2
I69
g28
(g32
S'\x1b/\xb0\x9b\xefs\xaf@'
p784
tp785
Rp786
tp787
a(g2
I70
g28
(g32
S'\xf1I+\xccsY\xbe@'
p788
tp789
Rp790
tp791
a(g2
I71
g28
(g32
S'\xa3\n\xb1\x04Lc\xb7@'
p792
tp793
Rp794
tp795
a(g2
I72
g28
(g32
S'\xa7\x00B\xc8\xb0?\xbb@'
p796
tp797
Rp798
tp799
a(g2
I73
g28
(g32
S'\xf9K]\xd7\x85\n\xb8@'
p800
tp801
Rp802
tp803
a(g2
I74
g28
(g32
S'\xf2\xf3A\xc9\xa2\x12\xbb@'
p804
tp805
Rp806
tp807
a(g2
I75
g28
(g32
S'C\xca\xb5\x86B\xf7\xb9@'
p808
tp809
Rp810
tp811
a(g2
I76
g28
(g32
S'n\x0b:\xba\xcc8\xc1@'
p812
tp813
Rp814
tp815
a(g2
I77
g28
(g32
S'\x8eA9|\xdc\x17\xc1@'
p816
tp817
Rp818
tp819
a(g2
I78
g28
(g32
S'\x9e\\jW7(\xbb@'
p820
tp821
Rp822
tp823
a(g2
I79
g28
(g32
S'\x0eq\x8c\x95^\xd1\xbd@'
p824
tp825
Rp826
tp827
a(g2
I80
g28
(g32
S'\xbd\x993\xa7\xc0\xca\xc0@'
p828
tp829
Rp830
tp831
a(g2
I81
g28
(g32
S'\xa8\x83\xd0\x92"\xc3\xbe@'
p832
tp833
Rp834
tp835
a(g2
I82
g28
(g32
S'\xb2y@\x99\xc4q\xba@'
p836
tp837
Rp838
tp839
a(g2
I83
g28
(g32
S'<\xd4q\xf0\xb1\xfc\xc1@'
p840
tp841
Rp842
tp843
a(g2
I84
g28
(g32
S'g&\xdd\xe1R\xa3\xc1@'
p844
tp845
Rp846
tp847
a(g2
I85
g28
(g32
S'X\x86\xe6/\x84\xdb\xc5@'
p848
tp849
Rp850
tp851
a(g2
I86
g28
(g32
S'.2BN8k\xc3@'
p852
tp853
Rp854
tp855
a(g2
I87
g28
(g32
S'\xbb\x01{\x18\x95G\xbd@'
p856
tp857
Rp858
tp859
a(g2
I88
g28
(g32
S'([#\x0b\xcb\xfc\xc2@'
p860
tp861
Rp862
tp863
a(g2
I89
g28
(g32
S'\n\x14\xef\xb5E\x81\xc3@'
p864
tp865
Rp866
tp867
a(g2
I90
g28
(g32
S'\x17.M\xaf\xe6-\xc3@'
p868
tp869
Rp870
tp871
a(g2
I91
g28
(g32
S'\xb1\xcd\r\xf3\xd0=\xc1@'
p872
tp873
Rp874
tp875
a(g2
I92
g28
(g32
S'\xd6A\xf6\xa6\x1f\x01\xc2@'
p876
tp877
Rp878
tp879
a(g2
I93
g28
(g32
S'\xa7\xcf\xb4\xd8f\xe3\xc4@'
p880
tp881
Rp882
tp883
a(g2
I94
g28
(g32
S'*x\xb96\x8c\xcd\xc5@'
p884
tp885
Rp886
tp887
a(g2
I95
g28
(g32
S'\xfc0\x1aF#y\xc2@'
p888
tp889
Rp890
tp891
a(g2
I96
g28
(g32
S'\xcb\\a\xfa\xb9i\xc4@'
p892
tp893
Rp894
tp895
a(g2
I97
g28
(g32
S'\xee6\xfa\x02\xa1\xdc\xc1@'
p896
tp897
Rp898
tp899
a(g2
I98
g28
(g32
S'U\x00\x99\x8cg)\xc7@'
p900
tp901
Rp902
tp903
a(g2
I99
g28
(g32
S'L\xf4\xd8y\xa9\xbe\xc5@'
p904
tp905
Rp906
tp907
a(g2
I100
g28
(g32
S'\x9f\xfbN\xeca[\xc9@'
p908
tp909
Rp910
tp911
a(g2
I101
g28
(g32
S'\xa1\xce\x0b/\xe5\xf6\xc1@'
p912
tp913
Rp914
tp915
a(g2
I102
g28
(g32
S't]\x88\xfc\x1d\xf8\xc0@'
p916
tp917
Rp918
tp919
a(g2
I103
g28
(g32
S'\x14f\xbd\x01\xe1\xb3\xc5@'
p920
tp921
Rp922
tp923
aa.