(lp0
(lp1
(S'week = '
p2
I0
I0
tp3
a(g2
I1
I0
tp4
a(g2
I2
I0
tp5
a(g2
I3
I0
tp6
a(g2
I4
I0
tp7
a(g2
I5
I0
tp8
a(g2
I6
I0
tp9
a(g2
I7
I0
tp10
a(g2
I8
I0
tp11
a(g2
I9
I0
tp12
a(g2
I10
I0
tp13
a(g2
I11
I0
tp14
a(g2
I12
I0
tp15
a(g2
I13
I0
tp16
a(g2
I14
I0
tp17
a(g2
I15
I0
tp18
a(g2
I16
I0
tp19
a(g2
I17
I0
tp20
a(g2
I18
I0
tp21
a(g2
I19
I0
tp22
a(g2
I20
I0
tp23
a(g2
I21
I0
tp24
a(g2
I22
I0
tp25
a(g2
I23
I0
tp26
a(g2
I24
I0
tp27
a(g2
I25
I0
tp28
a(g2
I26
I0
tp29
a(g2
I27
I0
tp30
a(g2
I28
I0
tp31
a(g2
I29
I0
tp32
a(g2
I30
I0
tp33
a(g2
I31
I0
tp34
a(g2
I32
I0
tp35
a(g2
I33
I0
tp36
a(g2
I34
I0
tp37
a(g2
I35
I0
tp38
a(g2
I36
I0
tp39
a(g2
I37
I0
tp40
a(g2
I38
I0
tp41
a(g2
I39
I0
tp42
a(g2
I40
I0
tp43
a(g2
I41
I0
tp44
a(g2
I42
I0
tp45
a(g2
I43
I0
tp46
a(g2
I44
I0
tp47
a(g2
I45
cnumpy.core.multiarray
scalar
p48
(cnumpy
dtype
p49
(S'f8'
p50
I0
I1
tp51
Rp52
(I3
S'<'
p53
NNNI-1
I-1
I0
tp54
bS'\x04Y\x9a\xb1/"f@'
p55
tp56
Rp57
tp58
a(g2
I46
I0
tp59
a(g2
I47
I0
tp60
a(g2
I48
I0
tp61
a(g2
I49
I0
tp62
a(g2
I50
I0
tp63
a(g2
I51
g48
(g52
S"hj~q\xdd\xcf'\xc0"
p64
tp65
Rp66
tp67
a(g2
I52
g48
(g52
S'\xa6\xfb\xaf\xd6x?t@'
p68
tp69
Rp70
tp71
a(g2
I53
g48
(g52
S'\xb316\xd4\xf3\x1dx@'
p72
tp73
Rp74
tp75
a(g2
I54
g48
(g52
S'\xc0\xbcX\x18R\x9c\x8a@'
p76
tp77
Rp78
tp79
a(g2
I55
g48
(g52
S'V\xc2\xd4\xc5$\x06\x81@'
p80
tp81
Rp82
tp83
a(g2
I56
g48
(g52
S'\x87ZR\xe3C\x01\x91@'
p84
tp85
Rp86
tp87
a(g2
I57
g48
(g52
S'0\xd6E\xd5s\xe7\xa8@'
p88
tp89
Rp90
tp91
a(g2
I58
g48
(g52
S'\xea\xbf;\xa4\t\xe4\xa0@'
p92
tp93
Rp94
tp95
a(g2
I59
g48
(g52
S'# \x19\xe2d\xc1\x94@'
p96
tp97
Rp98
tp99
a(g2
I60
g48
(g52
S'\xf2\xd2\xd6-\xc2&\xa0@'
p100
tp101
Rp102
tp103
a(g2
I61
g48
(g52
S'\xe9WV\xbb!N\xaf@'
p104
tp105
Rp106
tp107
a(g2
I62
g48
(g52
S'\xec\x82N\xca\xaf\x82\xb1@'
p108
tp109
Rp110
tp111
a(g2
I63
g48
(g52
S'G\xe5\xce*\x8f\x85\xb4@'
p112
tp113
Rp114
tp115
a(g2
I64
g48
(g52
S'\x11\x07v\x1b0\xac\xb1@'
p116
tp117
Rp118
tp119
a(g2
I65
g48
(g52
S',3\xc7\x18\xa7\x11\xbb@'
p120
tp121
Rp122
tp123
a(g2
I66
g48
(g52
S'\xb03\xd5\x11|\x7f\xb7@'
p124
tp125
Rp126
tp127
a(g2
I67
g48
(g52
S'\xf7\x9f\xf8NH\xa4\xb3@'
p128
tp129
Rp130
tp131
a(g2
I68
g48
(g52
S'\xbb\xf7\xb0\x12]|\xad@'
p132
tp133
Rp134
tp135
a(g2
I69
g48
(g52
S'\xca=\x9e\xb8\x87e\xbc@'
p136
tp137
Rp138
tp139
a(g2
I70
g48
(g52
S'j\xd9o\xbe_\x9f\xb8@'
p140
tp141
Rp142
tp143
a(g2
I71
g48
(g52
S'\x94;\r("\x8e\xbc@'
p144
tp145
Rp146
tp147
a(g2
I72
g48
(g52
S'\xf9\xa4-n`\xd1\xb5@'
p148
tp149
Rp150
tp151
a(g2
I73
g48
(g52
S'\xbd\xde\xc5\xc1\xd2\x1b\xba@'
p152
tp153
Rp154
tp155
a(g2
I74
g48
(g52
S'\x97\xe1e\x9a%y\xc1@'
p156
tp157
Rp158
tp159
a(g2
I75
g48
(g52
S'\xdbS`\xfb\xfcT\xc0@'
p160
tp161
Rp162
tp163
a(g2
I76
g48
(g52
S'R\x84\x0e\xd1/f\xbb@'
p164
tp165
Rp166
tp167
a(g2
I77
g48
(g52
S'\x90lYq\xf6\xb4\xbf@'
p168
tp169
Rp170
tp171
a(g2
I78
g48
(g52
S'\xb7\xeb"\x98I\xaa\xc2@'
p172
tp173
Rp174
tp175
a(g2
I79
g48
(g52
S'\x81\tqY^\xca\xc3@'
p176
tp177
Rp178
tp179
a(g2
I80
g48
(g52
S'\xea\xa2\xfc\xe9\x1d\xb9\xc2@'
p180
tp181
Rp182
tp183
a(g2
I81
g48
(g52
S'\x1b:\xbfg\x87\x9f\xca@'
p184
tp185
Rp186
tp187
a(g2
I82
g48
(g52
S'\xcaS\x8a\t\x1c\x03\xc8@'
p188
tp189
Rp190
tp191
a(g2
I83
g48
(g52
S'\x9dK\x8aa1\x89\xc5@'
p192
tp193
Rp194
tp195
a(g2
I84
g48
(g52
S'\x9e\xc4\xd5\xae\x9fd\xc6@'
p196
tp197
Rp198
tp199
a(g2
I85
g48
(g52
S'\xaf\xa4:f\xb0z\xc8@'
p200
tp201
Rp202
tp203
a(g2
I86
g48
(g52
S'\xd9\xbc\xbe\t\xb6u\xc8@'
p204
tp205
Rp206
tp207
a(g2
I87
g48
(g52
S'\x85qJ\xb8\x8f\xa8\xc8@'
p208
tp209
Rp210
tp211
a(g2
I88
g48
(g52
S'\xa8\xd1g\xa5\xa7\xe7\xc8@'
p212
tp213
Rp214
tp215
a(g2
I89
g48
(g52
S'J\xbd\xe3u\xad\x85\xcb@'
p216
tp217
Rp218
tp219
a(g2
I90
g48
(g52
S'^\xfc\x1e\xc4\xf6\xbb\xca@'
p220
tp221
Rp222
tp223
a(g2
I91
g48
(g52
S'\x99w3X\xe8d\xc9@'
p224
tp225
Rp226
tp227
a(g2
I92
g48
(g52
S'\xbf\xf4\xe0\xdaX\x8a\xcd@'
p228
tp229
Rp230
tp231
a(g2
I93
g48
(g52
S'\xb0\xed3\x08\xfe\xb4\xc8@'
p232
tp233
Rp234
tp235
a(g2
I94
g48
(g52
S'^>\x00+\x8c/\xcb@'
p236
tp237
Rp238
tp239
a(g2
I95
g48
(g52
S'\xc2\x90\x84\xd1G\xe4\xd2@'
p240
tp241
Rp242
tp243
a(g2
I96
g48
(g52
S'N\x87\x9f#B|\xd0@'
p244
tp245
Rp246
tp247
a(g2
I97
g48
(g52
S'\xce\xba\xbb\x1c\x8f\xcd\xcc@'
p248
tp249
Rp250
tp251
a(g2
I98
g48
(g52
S'^-L\x8f/;\xcc@'
p252
tp253
Rp254
tp255
a(g2
I99
g48
(g52
S'j\xa2\xf9ww2\xd2@'
p256
tp257
Rp258
tp259
a(g2
I100
g48
(g52
S'\x05\xde\x01Z\xd7{\xd0@'
p260
tp261
Rp262
tp263
a(g2
I101
g48
(g52
S'ni?\x8cS;\xd2@'
p264
tp265
Rp266
tp267
a(g2
I102
g48
(g52
S'\x8b\xbb\xa9\xea\x9d\t\xd4@'
p268
tp269
Rp270
tp271
a(g2
I103
g48
(g52
S'\xb5*\x82\x06^"\xd0@'
p272
tp273
Rp274
tp275
aa(lp276
(g2
I0
I0
tp277
a(g2
I1
I0
tp278
a(g2
I2
I0
tp279
a(g2
I3
I0
tp280
a(g2
I4
I0
tp281
a(g2
I5
I0
tp282
a(g2
I6
I0
tp283
a(g2
I7
g48
(g52
S'\xa5f\x9c^lq[@'
p284
tp285
Rp286
tp287
a(g2
I8
I0
tp288
a(g2
I9
I0
tp289
a(g2
I10
I0
tp290
a(g2
I11
I0
tp291
a(g2
I12
I0
tp292
a(g2
I13
I0
tp293
a(g2
I14
I0
tp294
a(g2
I15
I0
tp295
a(g2
I16
I0
tp296
a(g2
I17
I0
tp297
a(g2
I18
I0
tp298
a(g2
I19
I0
tp299
a(g2
I20
I0
tp300
a(g2
I21
I0
tp301
a(g2
I22
I0
tp302
a(g2
I23
I0
tp303
a(g2
I24
I0
tp304
a(g2
I25
I0
tp305
a(g2
I26
I0
tp306
a(g2
I27
I0
tp307
a(g2
I28
I0
tp308
a(g2
I29
I0
tp309
a(g2
I30
I0
tp310
a(g2
I31
I0
tp311
a(g2
I32
I0
tp312
a(g2
I33
I0
tp313
a(g2
I34
I0
tp314
a(g2
I35
I0
tp315
a(g2
I36
I0
tp316
a(g2
I37
I0
tp317
a(g2
I38
I0
tp318
a(g2
I39
I0
tp319
a(g2
I40
I0
tp320
a(g2
I41
I0
tp321
a(g2
I42
g48
(g52
S',$\xe6N\x1c\xc1 \xc0'
p322
tp323
Rp324
tp325
a(g2
I43
I0
tp326
a(g2
I44
I0
tp327
a(g2
I45
I0
tp328
a(g2
I46
I0
tp329
a(g2
I47
I0
tp330
a(g2
I48
I0
tp331
a(g2
I49
g48
(g52
S'\xae\xca|`y\xd8n@'
p332
tp333
Rp334
tp335
a(g2
I50
g48
(g52
S'\x90\xfa\xa9\xd3\x0c\xdb\x0b@'
p336
tp337
Rp338
tp339
a(g2
I51
g48
(g52
S'\x12\xed\xads\x82$]@'
p340
tp341
Rp342
tp343
a(g2
I52
g48
(g52
S' I>\x96\xcd\x9f\xf2\xbf'
p344
tp345
Rp346
tp347
a(g2
I53
g48
(g52
S'\x0fG\xc4\xc8\xf3B\x8c@'
p348
tp349
Rp350
tp351
a(g2
I54
g48
(g52
S'@\x9dmRW\\~@'
p352
tp353
Rp354
tp355
a(g2
I55
g48
(g52
S'\xac9kNw\xd2\x9c@'
p356
tp357
Rp358
tp359
a(g2
I56
g48
(g52
S'\xb6\xf4?\xd1\xe5x\x9b@'
p360
tp361
Rp362
tp363
a(g2
I57
g48
(g52
S'+\xe9l\xb7\xb6P\x99@'
p364
tp365
Rp366
tp367
a(g2
I58
g48
(g52
S'yx\x0c\xf9\x10\xe9\xa0@'
p368
tp369
Rp370
tp371
a(g2
I59
g48
(g52
S'L\x17\x00\xd2\x08\x1c\xac@'
p372
tp373
Rp374
tp375
a(g2
I60
g48
(g52
S'q\xe5}(F0\xb0@'
p376
tp377
Rp378
tp379
a(g2
I61
g48
(g52
S':\xd4\xf5\xb8\xfa\xb8\xa7@'
p380
tp381
Rp382
tp383
a(g2
I62
g48
(g52
S'\xf0$\x92\x9bZ\xa7\xb0@'
p384
tp385
Rp386
tp387
a(g2
I63
g48
(g52
S'\xf6\xb1\xc6\\\n\xc4\xb0@'
p388
tp389
Rp390
tp391
a(g2
I64
g48
(g52
S'Sw\x98\x9e\xdf\xf1\xb6@'
p392
tp393
Rp394
tp395
a(g2
I65
g48
(g52
S'\xbb\xc1\xc06\x04\n\xb7@'
p396
tp397
Rp398
tp399
a(g2
I66
g48
(g52
S"\xa4'\xb5\x9d\xbb\x0f\xb5@"
p400
tp401
Rp402
tp403
a(g2
I67
g48
(g52
S'\x910\xb8\x0f#\xaf\xb8@'
p404
tp405
Rp406
tp407
a(g2
I68
g48
(g52
S'\xd1\x07\x91\xcb\xbeB\xb5@'
p408
tp409
Rp410
tp411
a(g2
I69
g48
(g52
S'\x82\xa9\xb0\xca\x9fL\xb2@'
p412
tp413
Rp414
tp415
a(g2
I70
g48
(g52
S'\xe8O\x8ee\xff\x93\xba@'
p416
tp417
Rp418
tp419
a(g2
I71
g48
(g52
S';\\\x93O{\x9e\xb7@'
p420
tp421
Rp422
tp423
a(g2
I72
g48
(g52
S'\x18u\xaf\xb1\x01\xed\xbe@'
p424
tp425
Rp426
tp427
a(g2
I73
g48
(g52
S'\xb9 .M\xb8p\xc5@'
p428
tp429
Rp430
tp431
a(g2
I74
g48
(g52
S'\xfa\x013eS\xf8\xc2@'
p432
tp433
Rp434
tp435
a(g2
I75
g48
(g52
S'\x12\x1bW4\xba{\xbe@'
p436
tp437
Rp438
tp439
a(g2
I76
g48
(g52
S'\x96n\x89DF\xf5\xbc@'
p440
tp441
Rp442
tp443
a(g2
I77
g48
(g52
S'8\xe1\x0b\x88b\x0f\xc3@'
p444
tp445
Rp446
tp447
a(g2
I78
g48
(g52
S'\xd7\xedt\xa5\x05\xc7\xc1@'
p448
tp449
Rp450
tp451
a(g2
I79
g48
(g52
S'\x83\x169\x8b}\xe3\xc6@'
p452
tp453
Rp454
tp455
a(g2
I80
g48
(g52
S'\xd0U\xac^;\x85\xc3@'
p456
tp457
Rp458
tp459
a(g2
I81
g48
(g52
S'#F\xa0\xa2\x83\xd1\xc2@'
p460
tp461
Rp462
tp463
a(g2
I82
g48
(g52
S']*\xbf\xc7\xf1\x16\xc4@'
p464
tp465
Rp466
tp467
a(g2
I83
g48
(g52
S'\x8b{\xf5\xdc}W\xc9@'
p468
tp469
Rp470
tp471
a(g2
I84
g48
(g52
S'"\xa7\xdc\xb6\x95\xe2\xc8@'
p472
tp473
Rp474
tp475
a(g2
I85
g48
(g52
S'Q\xb6\xd0\xf6\x89P\xcd@'
p476
tp477
Rp478
tp479
a(g2
I86
g48
(g52
S'\xd4\x00\x1c\xb2\n\xea\xca@'
p480
tp481
Rp482
tp483
a(g2
I87
g48
(g52
S'\xf1\xea\xd2\xa8\xc0\xd1\xc8@'
p484
tp485
Rp486
tp487
a(g2
I88
g48
(g52
S'90\xa4\xa7\x83\x13\xcc@'
p488
tp489
Rp490
tp491
a(g2
I89
g48
(g52
S"\x87'y=6*\xcc@"
p492
tp493
Rp494
tp495
a(g2
I90
g48
(g52
S'?03(\xd3\xe0\xc6@'
p496
tp497
Rp498
tp499
a(g2
I91
g48
(g52
S' \xb9\xd3>\x87\xf7\xca@'
p500
tp501
Rp502
tp503
a(g2
I92
g48
(g52
S'\x8b\x80vk\xfe(\xd0@'
p504
tp505
Rp506
tp507
a(g2
I93
g48
(g52
S'K\x17\xf5\xc6\xc8\xc2\xcb@'
p508
tp509
Rp510
tp511
a(g2
I94
g48
(g52
S'\x137\xfa#\x87m\xce@'
p512
tp513
Rp514
tp515
a(g2
I95
g48
(g52
S'Vp\xd7\x11P\xcc\xcc@'
p516
tp517
Rp518
tp519
a(g2
I96
g48
(g52
S'J\x04Q\xfa\xce\x9c\xce@'
p520
tp521
Rp522
tp523
a(g2
I97
g48
(g52
S'\x05\xa4H\xaa\xba1\xd0@'
p524
tp525
Rp526
tp527
a(g2
I98
g48
(g52
S'G\xcdN-\xfdq\xd1@'
p528
tp529
Rp530
tp531
a(g2
I99
g48
(g52
S'M\xfb[R?\xd9\xcc@'
p532
tp533
Rp534
tp535
a(g2
I100
g48
(g52
S's\xc1\x9a\xcd\xcf\x80\xd2@'
p536
tp537
Rp538
tp539
a(g2
I101
g48
(g52
S'\xfd\xd7\xe8\xd3\xe21\xcc@'
p540
tp541
Rp542
tp543
a(g2
I102
g48
(g52
S'\x0b\xc8\x89g\xe5[\xd0@'
p544
tp545
Rp546
tp547
a(g2
I103
g48
(g52
S'\x1b\x8a\x98\xd4Xi\xd1@'
p548
tp549
Rp550
tp551
aa(lp552
(g2
I0
I0
tp553
a(g2
I1
I0
tp554
a(g2
I2
I0
tp555
a(g2
I3
I0
tp556
a(g2
I4
I0
tp557
a(g2
I5
I0
tp558
a(g2
I6
I0
tp559
a(g2
I7
I0
tp560
a(g2
I8
I0
tp561
a(g2
I9
I0
tp562
a(g2
I10
I0
tp563
a(g2
I11
I0
tp564
a(g2
I12
I0
tp565
a(g2
I13
I0
tp566
a(g2
I14
I0
tp567
a(g2
I15
I0
tp568
a(g2
I16
I0
tp569
a(g2
I17
I0
tp570
a(g2
I18
I0
tp571
a(g2
I19
I0
tp572
a(g2
I20
I0
tp573
a(g2
I21
I0
tp574
a(g2
I22
I0
tp575
a(g2
I23
I0
tp576
a(g2
I24
I0
tp577
a(g2
I25
I0
tp578
a(g2
I26
I0
tp579
a(g2
I27
I0
tp580
a(g2
I28
I0
tp581
a(g2
I29
I0
tp582
a(g2
I30
I0
tp583
a(g2
I31
I0
tp584
a(g2
I32
I0
tp585
a(g2
I33
I0
tp586
a(g2
I34
I0
tp587
a(g2
I35
I0
tp588
a(g2
I36
I0
tp589
a(g2
I37
I0
tp590
a(g2
I38
I0
tp591
a(g2
I39
g48
(g52
S'\xf9U\xcd\x14R\xbd^@'
p592
tp593
Rp594
tp595
a(g2
I40
I0
tp596
a(g2
I41
g48
(g52
S'\xb0\xae<\x01\xf27B@'
p597
tp598
Rp599
tp600
a(g2
I42
g48
(g52
S'L\xdc$\xfd\xe5\xcdL@'
p601
tp602
Rp603
tp604
a(g2
I43
I0
tp605
a(g2
I44
g48
(g52
S'$\xf5\xd3\x10\xcf\xb7@@'
p606
tp607
Rp608
tp609
a(g2
I45
I0
tp610
a(g2
I46
g48
(g52
S'b\xb6K\xfe\xbf\x9be@'
p611
tp612
Rp613
tp614
a(g2
I47
g48
(g52
S'\xc6fi\xf3\xb6iC@'
p615
tp616
Rp617
tp618
a(g2
I48
g48
(g52
S'\xd6\xc2\x94\xcb\xa2\x19b@'
p619
tp620
Rp621
tp622
a(g2
I49
g48
(g52
S'|\xee\xc9\xd2\xc8\xd3G@'
p623
tp624
Rp625
tp626
a(g2
I50
g48
(g52
S'\xc8*Te\x1b\x05t@'
p627
tp628
Rp629
tp630
a(g2
I51
g48
(g52
S'\xe2\x87c\xfe\xb8\x17i@'
p631
tp632
Rp633
tp634
a(g2
I52
g48
(g52
S'\x05\\\xfd\xdeT\x03\x86@'
p635
tp636
Rp637
tp638
a(g2
I53
g48
(g52
S'\xbe\x96w\x18|\xa5\x8c@'
p639
tp640
Rp641
tp642
a(g2
I54
g48
(g52
S'\xcf?\xec(\x15,\x88@'
p643
tp644
Rp645
tp646
a(g2
I55
g48
(g52
S'\xca/\xef\xed\x13a\x89@'
p647
tp648
Rp649
tp650
a(g2
I56
g48
(g52
S'\xfa\x8c\x07Wva\x9e@'
p651
tp652
Rp653
tp654
a(g2
I57
g48
(g52
S'3\xa5\x04\x8f\xb4\x1c\xa3@'
p655
tp656
Rp657
tp658
a(g2
I58
g48
(g52
S'\xb2F0gq\x0e\xa0@'
p659
tp660
Rp661
tp662
a(g2
I59
g48
(g52
S'\xe8\xa5\x14A\xe3Q\xa4@'
p663
tp664
Rp665
tp666
a(g2
I60
g48
(g52
S'>\xb4:\x90\xb3\x1c\xa3@'
p667
tp668
Rp669
tp670
a(g2
I61
g48
(g52
S'x81\xd9\x13V\xab@'
p671
tp672
Rp673
tp674
a(g2
I62
g48
(g52
S'|w%5^r\xad@'
p675
tp676
Rp677
tp678
a(g2
I63
g48
(g52
S'\x1ba\x01\xc8\x0e\xab\xae@'
p679
tp680
Rp681
tp682
a(g2
I64
g48
(g52
S'\xc02\xa6\xad\x0c\x14\xb7@'
p683
tp684
Rp685
tp686
a(g2
I65
g48
(g52
S"\xe7\x07\xaa\xab\x18'\xb7@"
p687
tp688
Rp689
tp690
a(g2
I66
g48
(g52
S'\x94\xdc\x96\x1c\xecq\xb9@'
p691
tp692
Rp693
tp694
a(g2
I67
g48
(g52
S'\x91/\xf4\x8f/Q\xb2@'
p695
tp696
Rp697
tp698
a(g2
I68
g48
(g52
S'\xa7\xb4\x8f\xbd\x17\xb9\xb7@'
p699
tp700
Rp701
tp702
a(g2
I69
g48
(g52
S'\xe9*\xbc\x9e-r\xba@'
p703
tp704
Rp705
tp706
a(g2
I70
g48
(g52
S'A\xdc\xfd7\xe4\xc1\xb1@'
p707
tp708
Rp709
tp710
a(g2
I71
g48
(g52
S'\xa6\xd4{\xb2\te\xb9@'
p711
tp712
Rp713
tp714
a(g2
I72
g48
(g52
S'@{\x83\xa6V\xfa\xbc@'
p715
tp716
Rp717
tp718
a(g2
I73
g48
(g52
S'\x94\xe5\nc\xf8\xf4\xba@'
p719
tp720
Rp721
tp722
a(g2
I74
g48
(g52
S'\x7fg\xab`\xcc\x0b\xc5@'
p723
tp724
Rp725
tp726
a(g2
I75
g48
(g52
S'ec\xc1\x1b\x14/\xbe@'
p727
tp728
Rp729
tp730
a(g2
I76
g48
(g52
S'\xe6\xdd\xac\xe2Y\xce\xc0@'
p731
tp732
Rp733
tp734
a(g2
I77
g48
(g52
S'\xab\xbb2\x1e\x81\xd0\xc4@'
p735
tp736
Rp737
tp738
a(g2
I78
g48
(g52
S'\x12\x1bgD\xfe\xc4\xc5@'
p739
tp740
Rp741
tp742
a(g2
I79
g48
(g52
S'\xcc\x07\x08\x8cVv\xc0@'
p743
tp744
Rp745
tp746
a(g2
I80
g48
(g52
S'\xe3\xe7\x85N\x13\xbe\xc1@'
p747
tp748
Rp749
tp750
a(g2
I81
g48
(g52
S'\x12\xb1\xd5K&\xd1\xc3@'
p751
tp752
Rp753
tp754
a(g2
I82
g48
(g52
S'\x1f\x1e\x81R\n\xdc\xc4@'
p755
tp756
Rp757
tp758
a(g2
I83
g48
(g52
S'L\x96\x95\x9b\xb0G\xc5@'
p759
tp760
Rp761
tp762
a(g2
I84
g48
(g52
S'\xba[\x14;\xaa#\xc5@'
p763
tp764
Rp765
tp766
a(g2
I85
g48
(g52
S'.\xf4\xd7\x80\xc59\xc9@'
p767
tp768
Rp769
tp770
a(g2
I86
g48
(g52
S'\n<\xf4G@\xf7\xc3@'
p771
tp772
Rp773
tp774
a(g2
I87
g48
(g52
S'mr\xdd}\xa9\x86\xca@'
p775
tp776
Rp777
tp778
a(g2
I88
g48
(g52
S'\x88{Z\x16w\xec\xc9@'
p779
tp780
Rp781
tp782
a(g2
I89
g48
(g52
S'>\xe7.\x19:\x18\xc8@'
p783
tp784
Rp785
tp786
a(g2
I90
g48
(g52
S'\xeb\xe1\xbf\x1a3\x0f\xc6@'
p787
tp788
Rp789
tp790
a(g2
I91
g48
(g52
S'\\B`gf7\xce@'
p791
tp792
Rp793
tp794
a(g2
I92
g48
(g52
S'\x8a\xcc\xa1\xab:\x06\xcd@'
p795
tp796
Rp797
tp798
a(g2
I93
g48
(g52
S'\x87\xf1]\xc1A\xca\xcc@'
p799
tp800
Rp801
tp802
a(g2
I94
g48
(g52
S'\x8d\xb0\x08\x03d\x9c\xd1@'
p803
tp804
Rp805
tp806
a(g2
I95
g48
(g52
S'\t\xe6\xe3\x06\xf3_\xcc@'
p807
tp808
Rp809
tp810
a(g2
I96
g48
(g52
S'\x10hP\x03\xda!\xc7@'
p811
tp812
Rp813
tp814
a(g2
I97
g48
(g52
S'\xe9\xde3k\xc8\x9f\xcf@'
p815
tp816
Rp817
tp818
a(g2
I98
g48
(g52
S'\x88\\W(\xcb\x14\xd0@'
p819
tp820
Rp821
tp822
a(g2
I99
g48
(g52
S'\xa8\x18\xfb\xc3\nB\xce@'
p823
tp824
Rp825
tp826
a(g2
I100
g48
(g52
S'I\xd3\xac\xd6\r\xdd\xd3@'
p827
tp828
Rp829
tp830
a(g2
I101
g48
(g52
S'1<\x93\xd9r\x9d\xd2@'
p831
tp832
Rp833
tp834
a(g2
I102
g48
(g52
S'\t\x10\xc6\x02\x98R\xd1@'
p835
tp836
Rp837
tp838
a(g2
I103
g48
(g52
S'\x8fk\x1ea9\x96\xd1@'
p839
tp840
Rp841
tp842
aa.