(lp0
(lp1
(S'Week = '
p2
I0
I0
tp3
a(g2
I1
I1
tp4
a(g2
I2
I0
tp5
a(g2
I3
I0
tp6
a(g2
I4
I0
tp7
a(g2
I5
I0
tp8
a(g2
I6
I0
tp9
a(g2
I7
I0
tp10
a(g2
I8
I0
tp11
a(g2
I9
I1
tp12
a(g2
I10
I1
tp13
a(g2
I11
I0
tp14
a(g2
I12
I0
tp15
a(g2
I13
I1
tp16
a(g2
I14
I1
tp17
a(g2
I15
I1
tp18
a(g2
I16
I0
tp19
a(g2
I17
I1
tp20
a(g2
I18
I3
tp21
a(g2
I19
I4
tp22
a(g2
I20
I2
tp23
a(g2
I21
I3
tp24
a(g2
I22
I3
tp25
a(g2
I23
I3
tp26
a(g2
I24
I3
tp27
a(g2
I25
I2
tp28
a(g2
I26
I4
tp29
a(g2
I27
I3
tp30
a(g2
I28
I5
tp31
a(g2
I29
I7
tp32
a(g2
I30
I6
tp33
a(g2
I31
I7
tp34
a(g2
I32
I10
tp35
a(g2
I33
I12
tp36
a(g2
I34
I11
tp37
a(g2
I35
I17
tp38
a(g2
I36
I9
tp39
a(g2
I37
I19
tp40
a(g2
I38
I8
tp41
a(g2
I39
I20
tp42
a(g2
I40
I26
tp43
a(g2
I41
I20
tp44
a(g2
I42
I30
tp45
a(g2
I43
I39
tp46
a(g2
I44
I31
tp47
a(g2
I45
I47
tp48
a(g2
I46
I41
tp49
a(g2
I47
I59
tp50
a(g2
I48
I61
tp51
a(g2
I49
I66
tp52
a(g2
I50
I77
tp53
a(g2
I51
I78
tp54
a(g2
I52
I84
tp55
a(g2
I53
I93
tp56
a(g2
I54
I105
tp57
a(g2
I55
I106
tp58
a(g2
I56
I113
tp59
a(g2
I57
I117
tp60
a(g2
I58
I128
tp61
a(g2
I59
I130
tp62
a(g2
I60
I144
tp63
a(g2
I61
I147
tp64
a(g2
I62
I161
tp65
a(g2
I63
I157
tp66
a(g2
I64
I160
tp67
a(g2
I65
I165
tp68
a(g2
I66
I179
tp69
a(g2
I67
I173
tp70
a(g2
I68
I193
tp71
a(g2
I69
I192
tp72
a(g2
I70
I205
tp73
a(g2
I71
I206
tp74
a(g2
I72
I215
tp75
a(g2
I73
I222
tp76
a(g2
I74
I227
tp77
a(g2
I75
I229
tp78
a(g2
I76
I240
tp79
a(g2
I77
I245
tp80
a(g2
I78
I254
tp81
a(g2
I79
I246
tp82
a(g2
I80
I268
tp83
a(g2
I81
I262
tp84
a(g2
I82
I271
tp85
a(g2
I83
I277
tp86
a(g2
I84
I282
tp87
a(g2
I85
I286
tp88
a(g2
I86
I290
tp89
a(g2
I87
I296
tp90
a(g2
I88
I292
tp91
a(g2
I89
I293
tp92
a(g2
I90
I302
tp93
a(g2
I91
I316
tp94
a(g2
I92
I313
tp95
a(g2
I93
I334
tp96
a(g2
I94
I326
tp97
a(g2
I95
I353
tp98
a(g2
I96
I341
tp99
a(g2
I97
I361
tp100
a(g2
I98
I356
tp101
a(g2
I99
I366
tp102
a(g2
I100
I365
tp103
a(g2
I101
I355
tp104
a(g2
I102
I369
tp105
a(g2
I103
I361
tp106
aa(lp107
(g2
F499.0
I0
tp108
a(g2
F500.0
I0
tp109
a(g2
F501.0
I0
tp110
a(g2
F502.0
I0
tp111
a(g2
F503.0
I0
tp112
a(g2
F504.0
I1
tp113
a(g2
F505.0
I1
tp114
a(g2
F506.0
I1
tp115
a(g2
F507.0
I0
tp116
a(g2
F508.0
I3
tp117
a(g2
F509.0
I0
tp118
a(g2
F510.0
I0
tp119
a(g2
F511.0
I2
tp120
a(g2
F512.0
I1
tp121
a(g2
F513.0
I1
tp122
a(g2
F514.0
I1
tp123
a(g2
F515.0
I1
tp124
a(g2
F516.0
I1
tp125
a(g2
F517.0
I0
tp126
a(g2
F518.0
I0
tp127
a(g2
F519.0
I2
tp128
a(g2
F520.0
I1
tp129
a(g2
F521.0
I3
tp130
a(g2
F522.0
I5
tp131
a(g2
F523.0
I5
tp132
a(g2
F524.0
I6
tp133
a(g2
F525.0
I3
tp134
a(g2
F526.0
I5
tp135
a(g2
F527.0
I7
tp136
a(g2
F528.0
I8
tp137
a(g2
F529.0
I11
tp138
a(g2
F530.0
I9
tp139
a(g2
F531.0
I12
tp140
a(g2
F532.0
I11
tp141
a(g2
F533.0
I10
tp142
a(g2
F534.0
I11
tp143
a(g2
F535.0
I14
tp144
a(g2
F536.0
I9
tp145
a(g2
F537.0
I13
tp146
a(g2
F538.0
I10
tp147
a(g2
F539.0
I18
tp148
a(g2
F540.0
I15
tp149
a(g2
F541.0
I21
tp150
a(g2
F542.0
I35
tp151
a(g2
F543.0
I34
tp152
a(g2
F544.0
I42
tp153
a(g2
F545.0
I42
tp154
a(g2
F546.0
I53
tp155
a(g2
F547.0
I64
tp156
a(g2
F548.0
I74
tp157
a(g2
F549.0
I80
tp158
a(g2
F550.0
I87
tp159
a(g2
F551.0
I93
tp160
a(g2
F552.0
I107
tp161
a(g2
F553.0
I104
tp162
a(g2
F554.0
I125
tp163
a(g2
F555.0
I131
tp164
a(g2
F556.0
I140
tp165
a(g2
F557.0
I146
tp166
a(g2
F558.0
I153
tp167
a(g2
F559.0
I169
tp168
a(g2
F560.0
I163
tp169
a(g2
F561.0
I173
tp170
a(g2
F562.0
I178
tp171
a(g2
F563.0
I186
tp172
a(g2
F564.0
I191
tp173
a(g2
F565.0
I210
tp174
a(g2
F566.0
I195
tp175
a(g2
F567.0
I216
tp176
a(g2
F568.0
I211
tp177
a(g2
F569.0
I228
tp178
a(g2
F570.0
I214
tp179
a(g2
F571.0
I241
tp180
a(g2
F572.0
I226
tp181
a(g2
F573.0
I243
tp182
a(g2
F574.0
I241
tp183
a(g2
F575.0
I260
tp184
a(g2
F576.0
I249
tp185
a(g2
F577.0
I269
tp186
a(g2
F578.0
I268
tp187
a(g2
F579.0
I275
tp188
a(g2
F580.0
I272
tp189
a(g2
F581.0
I288
tp190
a(g2
F582.0
I288
tp191
a(g2
F583.0
I294
tp192
a(g2
F584.0
I293
tp193
a(g2
F585.0
I302
tp194
a(g2
F586.0
I303
tp195
a(g2
F587.0
I308
tp196
a(g2
F588.0
I302
tp197
a(g2
F589.0
I307
tp198
a(g2
F590.0
I304
tp199
a(g2
F591.0
I307
tp200
a(g2
F592.0
I307
tp201
a(g2
F593.0
I308
tp202
a(g2
F594.0
I308
tp203
a(g2
F595.0
I312
tp204
a(g2
F596.0
I310
tp205
a(g2
F597.0
I319
tp206
a(g2
F598.0
I325
tp207
a(g2
F599.0
I332
tp208
a(g2
F600.0
I332
tp209
a(g2
F601.0
I342
tp210
a(g2
F602.0
I345
tp211
aa(lp212
(g2
F948.0
I0
tp213
a(g2
F949.0
I0
tp214
a(g2
F950.0
I0
tp215
a(g2
F951.0
I1
tp216
a(g2
F952.0
I1
tp217
a(g2
F953.0
I0
tp218
a(g2
F954.0
I0
tp219
a(g2
F955.0
I1
tp220
a(g2
F956.0
I2
tp221
a(g2
F957.0
I0
tp222
a(g2
F958.0
I2
tp223
a(g2
F959.0
I2
tp224
a(g2
F960.0
I1
tp225
a(g2
F961.0
I0
tp226
a(g2
F962.0
I2
tp227
a(g2
F963.0
I0
tp228
a(g2
F964.0
I2
tp229
a(g2
F965.0
I1
tp230
a(g2
F966.0
I1
tp231
a(g2
F967.0
I3
tp232
a(g2
F968.0
I1
tp233
a(g2
F969.0
I2
tp234
a(g2
F970.0
I1
tp235
a(g2
F971.0
I1
tp236
a(g2
F972.0
I4
tp237
a(g2
F973.0
I7
tp238
a(g2
F974.0
I6
tp239
a(g2
F975.0
I6
tp240
a(g2
F976.0
I6
tp241
a(g2
F977.0
I6
tp242
a(g2
F978.0
I10
tp243
a(g2
F979.0
I7
tp244
a(g2
F980.0
I11
tp245
a(g2
F981.0
I7
tp246
a(g2
F982.0
I14
tp247
a(g2
F983.0
I10
tp248
a(g2
F984.0
I9
tp249
a(g2
F985.0
I14
tp250
a(g2
F986.0
I19
tp251
a(g2
F987.0
I20
tp252
a(g2
F988.0
I24
tp253
a(g2
F989.0
I30
tp254
a(g2
F990.0
I36
tp255
a(g2
F991.0
I34
tp256
a(g2
F992.0
I50
tp257
a(g2
F993.0
I58
tp258
a(g2
F994.0
I56
tp259
a(g2
F995.0
I66
tp260
a(g2
F996.0
I74
tp261
a(g2
F997.0
I73
tp262
a(g2
F998.0
I81
tp263
a(g2
F999.0
I87
tp264
a(g2
F1000.0
I106
tp265
a(g2
F1001.0
I116
tp266
a(g2
F1002.0
I107
tp267
a(g2
F1003.0
I122
tp268
a(g2
F1004.0
I130
tp269
a(g2
F1005.0
I137
tp270
a(g2
F1006.0
I156
tp271
a(g2
F1007.0
I161
tp272
a(g2
F1008.0
I178
tp273
a(g2
F1009.0
I173
tp274
a(g2
F1010.0
I180
tp275
a(g2
F1011.0
I177
tp276
a(g2
F1012.0
I185
tp277
a(g2
F1013.0
I191
tp278
a(g2
F1014.0
I194
tp279
a(g2
F1015.0
I202
tp280
a(g2
F1016.0
I203
tp281
a(g2
F1017.0
I209
tp282
a(g2
F1018.0
I212
tp283
a(g2
F1019.0
I219
tp284
a(g2
F1020.0
I217
tp285
a(g2
F1021.0
I227
tp286
a(g2
F1022.0
I232
tp287
a(g2
F1023.0
I241
tp288
a(g2
F1024.0
I252
tp289
a(g2
F1025.0
I251
tp290
a(g2
F1026.0
I258
tp291
a(g2
F1027.0
I263
tp292
a(g2
F1028.0
I264
tp293
a(g2
F1029.0
I278
tp294
a(g2
F1030.0
I282
tp295
a(g2
F1031.0
I286
tp296
a(g2
F1032.0
I283
tp297
a(g2
F1033.0
I285
tp298
a(g2
F1034.0
I285
tp299
a(g2
F1035.0
I291
tp300
a(g2
F1036.0
I295
tp301
a(g2
F1037.0
I292
tp302
a(g2
F1038.0
I298
tp303
a(g2
F1039.0
I302
tp304
a(g2
F1040.0
I310
tp305
a(g2
F1041.0
I299
tp306
a(g2
F1042.0
I314
tp307
a(g2
F1043.0
I315
tp308
a(g2
F1044.0
I324
tp309
a(g2
F1045.0
I311
tp310
a(g2
F1046.0
I327
tp311
a(g2
F1047.0
I323
tp312
a(g2
F1048.0
I339
tp313
a(g2
F1049.0
I345
tp314
a(g2
F1050.0
I350
tp315
a(g2
F1051.0
I339
tp316
aa.