(lp0
(lp1
(S'week = '
p2
I0
cnumpy.core.multiarray
scalar
p3
(cnumpy
dtype
p4
(S'f8'
p5
I0
I1
tp6
Rp7
(I3
S'<'
p8
NNNI-1
I-1
I0
tp9
bS'B\x98\x11%\x8c\xe4R@'
p10
tp11
Rp12
tp13
a(g2
I1
g3
(g7
S'\x88<\x10\x15\xf7*r@'
p14
tp15
Rp16
tp17
a(g2
I2
I0
tp18
a(g2
I3
g3
(g7
S'\xfd\x85\x84\x07X\xefq@'
p19
tp20
Rp21
tp22
a(g2
I4
g3
(g7
S'S\to\xd2\xd5\x0b]@'
p23
tp24
Rp25
tp26
a(g2
I5
g3
(g7
S' x\x87\x01,\xd3]@'
p27
tp28
Rp29
tp30
a(g2
I6
g3
(g7
S'b7\xa6oF\xa1V@'
p31
tp32
Rp33
tp34
a(g2
I7
g3
(g7
S'(\xd2Z\xc4\xed\x1d\x0b\xc0'
p35
tp36
Rp37
tp38
a(g2
I8
g3
(g7
S'\xb6\xd7\xb3H\xfc\xd6R@'
p39
tp40
Rp41
tp42
a(g2
I9
g3
(g7
S'1\xb5"j1\x7fb@'
p43
tp44
Rp45
tp46
a(g2
I10
g3
(g7
S"\xca\xc1\x1fS0'`@"
p47
tp48
Rp49
tp50
a(g2
I11
g3
(g7
S'\n\xcb\xc6\x80\xfe W@'
p51
tp52
Rp53
tp54
a(g2
I12
g3
(g7
S'\xf255\xf3\x16\x97_@'
p55
tp56
Rp57
tp58
a(g2
I13
g3
(g7
S"\xd2>L'(~Y@"
p59
tp60
Rp61
tp62
a(g2
I14
g3
(g7
S'Q\xa1\x1c(\xa0]`@'
p63
tp64
Rp65
tp66
a(g2
I15
g3
(g7
S'2\xb3Y+\xc3>S@'
p67
tp68
Rp69
tp70
a(g2
I16
g3
(g7
S'^~\x97C\xd4\xa1P@'
p71
tp72
Rp73
tp74
a(g2
I17
g3
(g7
S'\x13\x08\xf9<\xb3\xedU@'
p75
tp76
Rp77
tp78
a(g2
I18
g3
(g7
S'\xbf\x92s+\xd3\xa5U@'
p79
tp80
Rp81
tp82
a(g2
I19
g3
(g7
S':\x03\xca\xe9\xac\xff\\@'
p83
tp84
Rp85
tp86
a(g2
I20
g3
(g7
S'\xe7\xdc\xff0\xb9\xb2l@'
p87
tp88
Rp89
tp90
a(g2
I21
g3
(g7
S'h7\xc5"p"Q@'
p91
tp92
Rp93
tp94
a(g2
I22
g3
(g7
S'a\xfaw\x84\x84\xa5W@'
p95
tp96
Rp97
tp98
a(g2
I23
g3
(g7
S' {p:\xc1[`@'
p99
tp100
Rp101
tp102
a(g2
I24
g3
(g7
S'\x7f\x85\xda2\x04\x87`@'
p103
tp104
Rp105
tp106
a(g2
I25
g3
(g7
S')\xe0\xdb.!\xa0V@'
p107
tp108
Rp109
tp110
a(g2
I26
g3
(g7
S'a\x94\xd9\r\xec\xf9k@'
p111
tp112
Rp113
tp114
a(g2
I27
g3
(g7
S'\xdf9\xe0\xfc\x95\x0eT@'
p115
tp116
Rp117
tp118
a(g2
I28
g3
(g7
S'\x0b\xb3h\x03]\xe8X@'
p119
tp120
Rp121
tp122
a(g2
I29
g3
(g7
S'\xfe\x9b7zh\xa3b@'
p123
tp124
Rp125
tp126
a(g2
I30
g3
(g7
S'\x07b@\x1ck\xa5b@'
p127
tp128
Rp129
tp130
a(g2
I31
g3
(g7
S'\xd2\xef\xec\xc3bx\\@'
p131
tp132
Rp133
tp134
a(g2
I32
g3
(g7
S'"\x19\x88\xa0\x07\xfcY@'
p135
tp136
Rp137
tp138
a(g2
I33
g3
(g7
S'8\xac\x1d\x9b.\xe1`@'
p139
tp140
Rp141
tp142
a(g2
I34
g3
(g7
S'D\xb7\x82\x1dKq]@'
p143
tp144
Rp145
tp146
a(g2
I35
g3
(g7
S'\x80\xf1cV_\x8c]@'
p147
tp148
Rp149
tp150
a(g2
I36
g3
(g7
S'\xb3?.\xbd\xe2\xf3]@'
p151
tp152
Rp153
tp154
a(g2
I37
g3
(g7
S'\x84\xda\x07w\xc8\x16b@'
p155
tp156
Rp157
tp158
a(g2
I38
g3
(g7
S'\x8d\xe5\xfe\xf6\x91=a@'
p159
tp160
Rp161
tp162
a(g2
I39
g3
(g7
S'\xc449\x10\xd9\xfcb@'
p163
tp164
Rp165
tp166
a(g2
I40
g3
(g7
S'\x8c\x89\tp\x85p[@'
p167
tp168
Rp169
tp170
a(g2
I41
g3
(g7
S'\rZ\xe5\xe1*\x93Z@'
p171
tp172
Rp173
tp174
a(g2
I42
g3
(g7
S'l\xae\xd2\x08\x034Z@'
p175
tp176
Rp177
tp178
a(g2
I43
g3
(g7
S'~\x89j\x83\x0e\xe3\\@'
p179
tp180
Rp181
tp182
a(g2
I44
g3
(g7
S'r\xe2!\x8da\x1a`@'
p183
tp184
Rp185
tp186
a(g2
I45
g3
(g7
S'{c\xafD\xcc\x85c@'
p187
tp188
Rp189
tp190
a(g2
I46
g3
(g7
S'\x16\x1cw\x92%\x17X@'
p191
tp192
Rp193
tp194
a(g2
I47
g3
(g7
S'\xafk\x7fj\x0e\xf8\\@'
p195
tp196
Rp197
tp198
a(g2
I48
g3
(g7
S'\x02\x86%\x12\xb8[Z@'
p199
tp200
Rp201
tp202
a(g2
I49
g3
(g7
S'Ij]l\\n^@'
p203
tp204
Rp205
tp206
a(g2
I50
g3
(g7
S'3\x8es[\x0c\x18b@'
p207
tp208
Rp209
tp210
a(g2
I51
g3
(g7
S'\xd4\x0ci"o\xba[@'
p211
tp212
Rp213
tp214
a(g2
I52
g3
(g7
S'\xb0\xe2s+E\x11_@'
p215
tp216
Rp217
tp218
a(g2
I53
g3
(g7
S'X\xd9P\xfe\xd9\x07a@'
p219
tp220
Rp221
tp222
a(g2
I54
g3
(g7
S'\x15\xb4\n\x89\x85U`@'
p223
tp224
Rp225
tp226
a(g2
I55
g3
(g7
S'}\xfeE\x7f\x91\xf0Z@'
p227
tp228
Rp229
tp230
a(g2
I56
g3
(g7
S'\xec\xb8\xac\n\xbb\xeaa@'
p231
tp232
Rp233
tp234
a(g2
I57
g3
(g7
S'\xd5\xc9P^\xfc\x92]@'
p235
tp236
Rp237
tp238
a(g2
I58
g3
(g7
S'Y[\xce<\xff\xe8[@'
p239
tp240
Rp241
tp242
a(g2
I59
g3
(g7
S'\xd5\x91\xca|\xbe\x96^@'
p243
tp244
Rp245
tp246
a(g2
I60
g3
(g7
S'd\xfb\x93\x0b\x1f\x9b`@'
p247
tp248
Rp249
tp250
a(g2
I61
g3
(g7
S'\x93=\xc0\xeb\xa9\xc9[@'
p251
tp252
Rp253
tp254
a(g2
I62
g3
(g7
S'\xb8\xae\x81@\x1a"`@'
p255
tp256
Rp257
tp258
a(g2
I63
g3
(g7
S'\xea\xcb@\xc7\xceA^@'
p259
tp260
Rp261
tp262
a(g2
I64
g3
(g7
S'\x0e\x03\xe3\x03\xe6\xe2_@'
p263
tp264
Rp265
tp266
a(g2
I65
g3
(g7
S'\xab}\xa9\x1c\xf8\xf4`@'
p267
tp268
Rp269
tp270
a(g2
I66
g3
(g7
S'_\x91,6\xf1\xdd_@'
p271
tp272
Rp273
tp274
a(g2
I67
g3
(g7
S'a\x12q\x91Y$b@'
p275
tp276
Rp277
tp278
a(g2
I68
g3
(g7
S'\x10\x89Eu(\x04_@'
p279
tp280
Rp281
tp282
a(g2
I69
g3
(g7
S'\x9e\x1d4\x81\xf1\x05`@'
p283
tp284
Rp285
tp286
a(g2
I70
g3
(g7
S'\xfb\x97s\xe6\x9a\xd4]@'
p287
tp288
Rp289
tp290
a(g2
I71
g3
(g7
S'\xad\x97\x1e\xa5\x13db@'
p291
tp292
Rp293
tp294
a(g2
I72
g3
(g7
S'\x07\x19\xb3\x83D\xbf`@'
p295
tp296
Rp297
tp298
a(g2
I73
g3
(g7
S'\x9b\x90\xfc\xe0v\xcb]@'
p299
tp300
Rp301
tp302
a(g2
I74
g3
(g7
S"\x07\x1cY\xc4'\x95W@"
p303
tp304
Rp305
tp306
a(g2
I75
g3
(g7
S'\xed\xb1\x8a]\x7f5`@'
p307
tp308
Rp309
tp310
a(g2
I76
g3
(g7
S'\rF_\x9f\xfa\r`@'
p311
tp312
Rp313
tp314
a(g2
I77
g3
(g7
S'O\xac\xd0\xbb9\\`@'
p315
tp316
Rp317
tp318
a(g2
I78
g3
(g7
S"\xd9\xf3\x89\xa4'm]@"
p319
tp320
Rp321
tp322
a(g2
I79
g3
(g7
S'\xf1\x8d\x94:\xd7\xe8]@'
p323
tp324
Rp325
tp326
a(g2
I80
g3
(g7
S'\x91|\xf3y;\xe1b@'
p327
tp328
Rp329
tp330
a(g2
I81
g3
(g7
S'N\x0b\xeaZ\xa2~`@'
p331
tp332
Rp333
tp334
a(g2
I82
g3
(g7
S'\x9a\xc4o\xa3-+`@'
p335
tp336
Rp337
tp338
a(g2
I83
g3
(g7
S'\x10\r4\xc4\x96\xef`@'
p339
tp340
Rp341
tp342
a(g2
I84
g3
(g7
S'\x19\xf3\xc6M\x85\x99a@'
p343
tp344
Rp345
tp346
a(g2
I85
g3
(g7
S'\x07\x95xQ\xdf\xe9]@'
p347
tp348
Rp349
tp350
a(g2
I86
g3
(g7
S'<,p\x16\x84\xc9`@'
p351
tp352
Rp353
tp354
a(g2
I87
g3
(g7
S'6\xcb\xfdS\x87\xb2[@'
p355
tp356
Rp357
tp358
a(g2
I88
g3
(g7
S'>\xa737\x86\xa3_@'
p359
tp360
Rp361
tp362
a(g2
I89
g3
(g7
S'e\xd5M\xcc\xce+^@'
p363
tp364
Rp365
tp366
a(g2
I90
g3
(g7
S'\x91\xb6\xce~\xac\xeb]@'
p367
tp368
Rp369
tp370
a(g2
I91
g3
(g7
S'\xbb*\x81\xc8\xa0\xd7\\@'
p371
tp372
Rp373
tp374
a(g2
I92
g3
(g7
S'\\%\x84\x0e7\xfe_@'
p375
tp376
Rp377
tp378
a(g2
I93
g3
(g7
S'\xd9X\xea\x8a &^@'
p379
tp380
Rp381
tp382
a(g2
I94
g3
(g7
S"X\x94'\xb9O\xd7\\@"
p383
tp384
Rp385
tp386
a(g2
I95
g3
(g7
S'c\x0f\xd6\x95\xf3\x8e_@'
p387
tp388
Rp389
tp390
a(g2
I96
g3
(g7
S'\xe4\xcc\x15\x08\xbcM_@'
p391
tp392
Rp393
tp394
a(g2
I97
g3
(g7
S'\xae\xe7I\x8f\xf9@`@'
p395
tp396
Rp397
tp398
a(g2
I98
g3
(g7
S'\x91\x15\x05A-\xfd[@'
p399
tp400
Rp401
tp402
a(g2
I99
g3
(g7
S'\x18\xde\xa2\x7f*\n_@'
p403
tp404
Rp405
tp406
a(g2
I100
g3
(g7
S'\xb9\r\xebj\xa2\x05_@'
p407
tp408
Rp409
tp410
a(g2
I101
g3
(g7
S'\x81\xf1\xa3\x8a\xc2\x97`@'
p411
tp412
Rp413
tp414
a(g2
I102
g3
(g7
S'\xb5%\x1ev\x15@]@'
p415
tp416
Rp417
tp418
a(g2
I103
g3
(g7
S'\xb8S\xb5\x1c\xa9\x84]@'
p419
tp420
Rp421
tp422
aa(lp423
(g2
I0
I0
tp424
a(g2
I1
g3
(g7
S'\xe9\xd7\xc9\x1d\x9d+T@'
p425
tp426
Rp427
tp428
a(g2
I2
g3
(g7
S'\xcd\xb0\xad\xadMdZ@'
p429
tp430
Rp431
tp432
a(g2
I3
g3
(g7
S'mn.\x1b\xb4\xb7R@'
p433
tp434
Rp435
tp436
a(g2
I4
g3
(g7
S'n.(Gf\xf8V@'
p437
tp438
Rp439
tp440
a(g2
I5
g3
(g7
S'\xbd@*aM\x91]@'
p441
tp442
Rp443
tp444
a(g2
I6
g3
(g7
S'Gnq(U\xdaa@'
p445
tp446
Rp447
tp448
a(g2
I7
I0
tp449
a(g2
I8
g3
(g7
S'\xf7P\x05#\xdd|j@'
p450
tp451
Rp452
tp453
a(g2
I9
g3
(g7
S'[\x15\x829\x1c\xe8_@'
p454
tp455
Rp456
tp457
a(g2
I10
g3
(g7
S'\x89Na\xa1\xf8\x91`@'
p458
tp459
Rp460
tp461
a(g2
I11
g3
(g7
S'\xbe\xa1?r\x10b_@'
p462
tp463
Rp464
tp465
a(g2
I12
g3
(g7
S'\x08ta\xca\xb3\xf5L@'
p466
tp467
Rp468
tp469
a(g2
I13
g3
(g7
S'\x177\xe4\xb7]\xa7V@'
p470
tp471
Rp472
tp473
a(g2
I14
g3
(g7
S'\xb4Y\xae\xe0\xda\x8c`@'
p474
tp475
Rp476
tp477
a(g2
I15
g3
(g7
S'(\x9du\xdc5Tc@'
p478
tp479
Rp480
tp481
a(g2
I16
g3
(g7
S'\xaf\x16\xb0B\x16RP@'
p482
tp483
Rp484
tp485
a(g2
I17
g3
(g7
S'@e\xb8\x1c\xdd\xf4`@'
p486
tp487
Rp488
tp489
a(g2
I18
g3
(g7
S'\x88: =|\xccU@'
p490
tp491
Rp492
tp493
a(g2
I19
g3
(g7
S'\x05\x08B\x92\x97b\\@'
p494
tp495
Rp496
tp497
a(g2
I20
g3
(g7
S'\x8c\xb7\x01h\xd3_`@'
p498
tp499
Rp500
tp501
a(g2
I21
g3
(g7
S'iVDL\x1b&b@'
p502
tp503
Rp504
tp505
a(g2
I22
g3
(g7
S'\xe7\xf7<o\x13\xba[@'
p506
tp507
Rp508
tp509
a(g2
I23
g3
(g7
S'\xb4\xa0\xcd\x0c6\xaee@'
p510
tp511
Rp512
tp513
a(g2
I24
g3
(g7
S'\xb7\xca \x99\x02\x8eb@'
p514
tp515
Rp516
tp517
a(g2
I25
g3
(g7
S'\x03J\xc1\x9d\xb3\xf2Z@'
p518
tp519
Rp520
tp521
a(g2
I26
g3
(g7
S'\x02\xd4\xdfn*\x05c@'
p522
tp523
Rp524
tp525
a(g2
I27
g3
(g7
S'\x16\xbeW\xf3\x08\xc7X@'
p526
tp527
Rp528
tp529
a(g2
I28
g3
(g7
S'\x1d"1K\x07\\a@'
p530
tp531
Rp532
tp533
a(g2
I29
g3
(g7
S'\xf3\xc5:\xbe\x06>T@'
p534
tp535
Rp536
tp537
a(g2
I30
g3
(g7
S'\xedF\xba\x0f\xeb=f@'
p538
tp539
Rp540
tp541
a(g2
I31
g3
(g7
S'\xcf^\xae\x0e\x1d@V@'
p542
tp543
Rp544
tp545
a(g2
I32
g3
(g7
S'b\x8f(sj([@'
p546
tp547
Rp548
tp549
a(g2
I33
g3
(g7
S'\x97\x81\x87\x90\xe1\xb3^@'
p550
tp551
Rp552
tp553
a(g2
I34
g3
(g7
S'\n\xcbt\x00$\xb7X@'
p554
tp555
Rp556
tp557
a(g2
I35
g3
(g7
S'P5T\xafJ\x9cX@'
p558
tp559
Rp560
tp561
a(g2
I36
g3
(g7
S'\x1e\xa4%\xdf\xe9\xee[@'
p562
tp563
Rp564
tp565
a(g2
I37
g3
(g7
S'I\x80\xf1\x89\xd8\xb7]@'
p566
tp567
Rp568
tp569
a(g2
I38
g3
(g7
S'\xf2\xcd\xca\x9e\xba\xc5a@'
p570
tp571
Rp572
tp573
a(g2
I39
g3
(g7
S'A\x93-a<x\\@'
p574
tp575
Rp576
tp577
a(g2
I40
g3
(g7
S'YP\x84Y\x98<_@'
p578
tp579
Rp580
tp581
a(g2
I41
g3
(g7
S'\xc8O\xb0\xab5\xc4X@'
p582
tp583
Rp584
tp585
a(g2
I42
g3
(g7
S'\xea$\x8f\\v\x9eU@'
p586
tp587
Rp588
tp589
a(g2
I43
g3
(g7
S'\x1fg\xb3\x87_\x95\\@'
p590
tp591
Rp592
tp593
a(g2
I44
g3
(g7
S'\x0b-K_j\xb2a@'
p594
tp595
Rp596
tp597
a(g2
I45
g3
(g7
S'\xb2;\r\xfa\x9d\x1db@'
p598
tp599
Rp600
tp601
a(g2
I46
g3
(g7
S'\xcf\xaf\x1c\x01Dk_@'
p602
tp603
Rp604
tp605
a(g2
I47
g3
(g7
S'\xfa\xa0\x9e\x9bZ\x03Z@'
p606
tp607
Rp608
tp609
a(g2
I48
g3
(g7
S'y\xdd\xb6\x0e\xbc\x8c]@'
p610
tp611
Rp612
tp613
a(g2
I49
g3
(g7
S'\xc2w\x00w\x12\xfbb@'
p614
tp615
Rp616
tp617
a(g2
I50
g3
(g7
S'nGLf\xfb\xea\\@'
p618
tp619
Rp620
tp621
a(g2
I51
g3
(g7
S'?\xbd\x98d|\x05\\@'
p622
tp623
Rp624
tp625
a(g2
I52
g3
(g7
S'\x1d\xdec\xec\r\xf4Z@'
p626
tp627
Rp628
tp629
a(g2
I53
g3
(g7
S'/*\xc7\xf8\xc7\xfc^@'
p630
tp631
Rp632
tp633
a(g2
I54
g3
(g7
S'\xdf\x0b"\n\x82\xce]@'
p634
tp635
Rp636
tp637
a(g2
I55
g3
(g7
S')\r8k\xe0*Z@'
p638
tp639
Rp640
tp641
a(g2
I56
g3
(g7
S'w\xcc\x99\xb0\x08\x11^@'
p642
tp643
Rp644
tp645
a(g2
I57
g3
(g7
S'\x18\x01\xd1L\xbe\x99`@'
p646
tp647
Rp648
tp649
a(g2
I58
g3
(g7
S'\x06\xe0BL\x9a\x8e]@'
p650
tp651
Rp652
tp653
a(g2
I59
g3
(g7
S'`\xeb\x96\xc5l\x97\\@'
p654
tp655
Rp656
tp657
a(g2
I60
g3
(g7
S'\xe3\x13\\C\xa8\x01^@'
p658
tp659
Rp660
tp661
a(g2
I61
g3
(g7
S'\xf5\x1c\x8c+\x89\x18X@'
p662
tp663
Rp664
tp665
a(g2
I62
g3
(g7
S't\x19\x91\xc3T\x15Z@'
p666
tp667
Rp668
tp669
a(g2
I63
g3
(g7
S'\xd0\xc9\xa1\xcb\xba\xa9\\@'
p670
tp671
Rp672
tp673
a(g2
I64
g3
(g7
S'\x10v\xaeh\x10\xb9`@'
p674
tp675
Rp676
tp677
a(g2
I65
g3
(g7
S'\xdd\x85\xb0\x0bD^`@'
p678
tp679
Rp680
tp681
a(g2
I66
g3
(g7
S'\x1d<,\x7f\xff%^@'
p682
tp683
Rp684
tp685
a(g2
I67
g3
(g7
S'4\xce\x05O\xf9\xd5]@'
p686
tp687
Rp688
tp689
a(g2
I68
g3
(g7
S'\x1a\xb9\xaf\xf2;n^@'
p690
tp691
Rp692
tp693
a(g2
I69
g3
(g7
S"6y\x9f\xba'b`@"
p694
tp695
Rp696
tp697
a(g2
I70
g3
(g7
S'\xf1u\x86\x0c\xe7q]@'
p698
tp699
Rp700
tp701
a(g2
I71
g3
(g7
S'\x82\x9e\x0f\x8c\xec\xfca@'
p702
tp703
Rp704
tp705
a(g2
I72
g3
(g7
S'\xe4\xe2\xb0E!8[@'
p706
tp707
Rp708
tp709
a(g2
I73
g3
(g7
S'\x99i\xd1\t\xb4\x84_@'
p710
tp711
Rp712
tp713
a(g2
I74
g3
(g7
S'x\xa6\xaeI\\\xc1a@'
p714
tp715
Rp716
tp717
a(g2
I75
g3
(g7
S'q\xb2\xfc\xdb\xabNZ@'
p718
tp719
Rp720
tp721
a(g2
I76
g3
(g7
S'\x86P#\xea\x98\xec[@'
p722
tp723
Rp724
tp725
a(g2
I77
g3
(g7
S'#\x98ki\xb0H_@'
p726
tp727
Rp728
tp729
a(g2
I78
g3
(g7
S'\xe8k\x8cg\xe0%]@'
p730
tp731
Rp732
tp733
a(g2
I79
g3
(g7
S'\x19\x7f\x11k\xacG[@'
p734
tp735
Rp736
tp737
a(g2
I80
g3
(g7
S'\xdbY|d|N]@'
p738
tp739
Rp740
tp741
a(g2
I81
g3
(g7
S'\x14(KN\xa5\xbd\\@'
p742
tp743
Rp744
tp745
a(g2
I82
g3
(g7
S'I\x9eb\x07\xab\x08_@'
p746
tp747
Rp748
tp749
a(g2
I83
g3
(g7
S'\xff\xe7\x18\xa0]\x90`@'
p750
tp751
Rp752
tp753
a(g2
I84
g3
(g7
S'\x80\x8b\x9eu\x97\xe7\\@'
p754
tp755
Rp756
tp757
a(g2
I85
g3
(g7
S'\x82\xb4O\xb6D\x9a^@'
p758
tp759
Rp760
tp761
a(g2
I86
g3
(g7
S'R\x82\xf6\x0e\x00\xd1^@'
p762
tp763
Rp764
tp765
a(g2
I87
g3
(g7
S'\xcc\x0b\xd5\xe7W~\\@'
p766
tp767
Rp768
tp769
a(g2
I88
g3
(g7
S'\x86\xfb>\x8b\x1e\xf7_@'
p770
tp771
Rp772
tp773
a(g2
I89
g3
(g7
S'\xbf\xd2Zw\x8e,^@'
p774
tp775
Rp776
tp777
a(g2
I90
g3
(g7
S'$Y\x0c\xaf\xba.`@'
p778
tp779
Rp780
tp781
a(g2
I91
g3
(g7
S'\xf8=J\xeb&{\\@'
p782
tp783
Rp784
tp785
a(g2
I92
g3
(g7
S'D\x7f8\x97\xb12_@'
p786
tp787
Rp788
tp789
a(g2
I93
g3
(g7
S'\\\x93)\xccY\xc5_@'
p790
tp791
Rp792
tp793
a(g2
I94
g3
(g7
S'\x0f@\xd1\xd87\xcd]@'
p794
tp795
Rp796
tp797
a(g2
I95
g3
(g7
S'O\xfcq8\xd2\xdc^@'
p798
tp799
Rp800
tp801
a(g2
I96
g3
(g7
S'\xea\tK\x9cy\xd1_@'
p802
tp803
Rp804
tp805
a(g2
I97
g3
(g7
S'\xa9\x9a\xbd\xfe\x05%]@'
p806
tp807
Rp808
tp809
a(g2
I98
g3
(g7
S'\xdd\xd0B\n\x9aa`@'
p810
tp811
Rp812
tp813
a(g2
I99
g3
(g7
S'Tc\x98\xb9B4`@'
p814
tp815
Rp816
tp817
a(g2
I100
g3
(g7
S'0\x10;p\x8a;_@'
p818
tp819
Rp820
tp821
a(g2
I101
g3
(g7
S'2\x80\xcc\xec&\xf4\\@'
p822
tp823
Rp824
tp825
a(g2
I102
g3
(g7
S'\xd5\xdb\xc3(m\x19_@'
p826
tp827
Rp828
tp829
a(g2
I103
g3
(g7
S'\xecL{eq\xd0`@'
p830
tp831
Rp832
tp833
aa(lp834
(g2
I0
g3
(g7
S'\x1e\x1ex\x01q\x14\x0c@'
p835
tp836
Rp837
tp838
a(g2
I1
g3
(g7
S'\x91d\xffV\x01=b@'
p839
tp840
Rp841
tp842
a(g2
I2
g3
(g7
S'\x9b\x81\xee\xfa*\xf5!@'
p843
tp844
Rp845
tp846
a(g2
I3
g3
(g7
S'\xfc\xd3\x15\xd3\xbeXB@'
p847
tp848
Rp849
tp850
a(g2
I4
g3
(g7
S'\x10\xf0\x08\xdf\xaa\xa9#\xc0'
p851
tp852
Rp853
tp854
a(g2
I5
g3
(g7
S']\x18r\xb0\xd3\xf3O@'
p855
tp856
Rp857
tp858
a(g2
I6
g3
(g7
S'\x85\x89h8`\x00N@'
p859
tp860
Rp861
tp862
a(g2
I7
g3
(g7
S'{\x8d\\\x88^D`@'
p863
tp864
Rp865
tp866
a(g2
I8
g3
(g7
S'\x10\x91@\x7f\x8e\xf3T@'
p867
tp868
Rp869
tp870
a(g2
I9
g3
(g7
S'\xf6\x06\x1aS\xaa\xeca@'
p871
tp872
Rp873
tp874
a(g2
I10
g3
(g7
S'i\rl{\x1dxX@'
p875
tp876
Rp877
tp878
a(g2
I11
g3
(g7
S'#\xe6h:~\xc8h@'
p879
tp880
Rp881
tp882
a(g2
I12
g3
(g7
S'\x1a\xa14\x12\xbe\xa4K@'
p883
tp884
Rp885
tp886
a(g2
I13
g3
(g7
S'\xb2\xd0j\xa3\x81\xa5Z@'
p887
tp888
Rp889
tp890
a(g2
I14
g3
(g7
S'0\xb6~lZ\xd4c@'
p891
tp892
Rp893
tp894
a(g2
I15
g3
(g7
S'L\x05Q\xf9\x1e\x8eR@'
p895
tp896
Rp897
tp898
a(g2
I16
g3
(g7
S'[\xfa\x88\xa3\xab\xe9h@'
p899
tp900
Rp901
tp902
a(g2
I17
g3
(g7
S'\xde\xf3P4\xa3!a@'
p903
tp904
Rp905
tp906
a(g2
I18
g3
(g7
S'\n\xbc\xbb\xf9\x99\xdaW@'
p907
tp908
Rp909
tp910
a(g2
I19
g3
(g7
S'm\x07L\xfa\x19]Z@'
p911
tp912
Rp913
tp914
a(g2
I20
g3
(g7
S'\xdd\x0b\x7f\xbf@\xdad@'
p915
tp916
Rp917
tp918
a(g2
I21
g3
(g7
S'\x16>\xf2\x90@\x89\\@'
p919
tp920
Rp921
tp922
a(g2
I22
g3
(g7
S'\xae\xd3F\xa7|\xb0e@'
p923
tp924
Rp925
tp926
a(g2
I23
g3
(g7
S'M$$\xf8\xc5\xbcZ@'
p927
tp928
Rp929
tp930
a(g2
I24
g3
(g7
S':\xa3(wYma@'
p931
tp932
Rp933
tp934
a(g2
I25
g3
(g7
S'\x02\xfeP4\x8f\xf4^@'
p935
tp936
Rp937
tp938
a(g2
I26
g3
(g7
S'"\xb1@\xdbFXR@'
p939
tp940
Rp941
tp942
a(g2
I27
g3
(g7
S'9\xd8\xb5\xc4\xf1\xb4b@'
p943
tp944
Rp945
tp946
a(g2
I28
g3
(g7
S'a\xc9\x17Q\xb6YX@'
p947
tp948
Rp949
tp950
a(g2
I29
g3
(g7
S'\x1c*g$ \xd5\\@'
p951
tp952
Rp953
tp954
a(g2
I30
g3
(g7
S',V\x89\xe5\xb2oU@'
p955
tp956
Rp957
tp958
a(g2
I31
g3
(g7
S'c\x95\x7f\xa0\x16\x03`@'
p959
tp960
Rp961
tp962
a(g2
I32
g3
(g7
S'\x909\xcb\x90v7e@'
p963
tp964
Rp965
tp966
a(g2
I33
g3
(g7
S'n\xfe\xaa\x1b\xaa\xe1`@'
p967
tp968
Rp969
tp970
a(g2
I34
g3
(g7
S'\xb4\x1fOBJ;]@'
p971
tp972
Rp973
tp974
a(g2
I35
g3
(g7
S'\x90\x8a\xbd|\xb2\x19\\@'
p975
tp976
Rp977
tp978
a(g2
I36
g3
(g7
S'\x82e\x1b\x88>^U@'
p979
tp980
Rp981
tp982
a(g2
I37
g3
(g7
S'8~\xb2\x89/\xf6Z@'
p983
tp984
Rp985
tp986
a(g2
I38
g3
(g7
S'7\xf7\xd3\xad2\x1dU@'
p987
tp988
Rp989
tp990
a(g2
I39
g3
(g7
S'n\x03\xc1^\x01\x81^@'
p991
tp992
Rp993
tp994
a(g2
I40
g3
(g7
S'\xa8~\x86\xf6\xd4\xaf_@'
p995
tp996
Rp997
tp998
a(g2
I41
g3
(g7
S'\xc3K?\xf0\xc7Rb@'
p999
tp1000
Rp1001
tp1002
a(g2
I42
g3
(g7
S'\xfc\xfa\xea|\xe3\xbe^@'
p1003
tp1004
Rp1005
tp1006
a(g2
I43
g3
(g7
S'\x13\xc3\xd8\xa3\xff\xbda@'
p1007
tp1008
Rp1009
tp1010
a(g2
I44
g3
(g7
S'\x84r4Xo\x00e@'
p1011
tp1012
Rp1013
tp1014
a(g2
I45
g3
(g7
S'E\x03\xa7\x89\xdeS_@'
p1015
tp1016
Rp1017
tp1018
a(g2
I46
g3
(g7
S'\x16\x0b\xa1\xac*.`@'
p1019
tp1020
Rp1021
tp1022
a(g2
I47
g3
(g7
S'osS\x9d\xe2\xa0\\@'
p1023
tp1024
Rp1025
tp1026
a(g2
I48
g3
(g7
S'\x07"?\xbeX\x0ca@'
p1027
tp1028
Rp1029
tp1030
a(g2
I49
g3
(g7
S'\xa2\x03.-\x87pc@'
p1031
tp1032
Rp1033
tp1034
a(g2
I50
g3
(g7
S'9\x06\x1ek&\xc7^@'
p1035
tp1036
Rp1037
tp1038
a(g2
I51
g3
(g7
S'\xf5d\x87\xd2\x96\xbaa@'
p1039
tp1040
Rp1041
tp1042
a(g2
I52
g3
(g7
S'_\xaa\xca\xd0a\xfc`@'
p1043
tp1044
Rp1045
tp1046
a(g2
I53
g3
(g7
S'\x9cY\xa7=\x08\xbc^@'
p1047
tp1048
Rp1049
tp1050
a(g2
I54
g3
(g7
S'$\xfc\xd2K\x15M^@'
p1051
tp1052
Rp1053
tp1054
a(g2
I55
g3
(g7
S'\x94\xd4\x81\x80-\xe4`@'
p1055
tp1056
Rp1057
tp1058
a(g2
I56
g3
(g7
S';\xccBj\xf5Bb@'
p1059
tp1060
Rp1061
tp1062
a(g2
I57
g3
(g7
S'\xda\xbf\xdc\xe1\x99(Z@'
p1063
tp1064
Rp1065
tp1066
a(g2
I58
g3
(g7
S'\xea\x1c\xd8#\x92m`@'
p1067
tp1068
Rp1069
tp1070
a(g2
I59
g3
(g7
S'\x98\x90\xa7\xfe]Va@'
p1071
tp1072
Rp1073
tp1074
a(g2
I60
g3
(g7
S'8\x94G\xebd\x9b`@'
p1075
tp1076
Rp1077
tp1078
a(g2
I61
g3
(g7
S',D\n\x02A\x00\\@'
p1079
tp1080
Rp1081
tp1082
a(g2
I62
g3
(g7
S'_\x13;\x02\xda3_@'
p1083
tp1084
Rp1085
tp1086
a(g2
I63
g3
(g7
S'\xfe\x97\x12d\xf5\x95]@'
p1087
tp1088
Rp1089
tp1090
a(g2
I64
g3
(g7
S'6\xe0\xd9\xf4K\xe9`@'
p1091
tp1092
Rp1093
tp1094
a(g2
I65
g3
(g7
S'\xd5\x04\x13\xe9\xaf\x8d\\@'
p1095
tp1096
Rp1097
tp1098
a(g2
I66
g3
(g7
S'\x11);\x8f\x18Qa@'
p1099
tp1100
Rp1101
tp1102
a(g2
I67
g3
(g7
S'\xcf\x0f\xa6\xf1-i^@'
p1103
tp1104
Rp1105
tp1106
a(g2
I68
g3
(g7
S'v\x86X\xa8\x85\xa2b@'
p1107
tp1108
Rp1109
tp1110
a(g2
I69
g3
(g7
S'L\x81h\xf3\xbd\xa4[@'
p1111
tp1112
Rp1113
tp1114
a(g2
I70
g3
(g7
S'\x14\xf7\xa9$$\xa0[@'
p1115
tp1116
Rp1117
tp1118
a(g2
I71
g3
(g7
S':\xaa\xe7n\xda^\\@'
p1119
tp1120
Rp1121
tp1122
a(g2
I72
g3
(g7
S'\x8c\x88\xe7\xa9\xc3\x1b_@'
p1123
tp1124
Rp1125
tp1126
a(g2
I73
g3
(g7
S'(\x07|2"s_@'
p1127
tp1128
Rp1129
tp1130
a(g2
I74
g3
(g7
S'\r(\xdaV\x01\xff]@'
p1131
tp1132
Rp1133
tp1134
a(g2
I75
g3
(g7
S'\xd1#\xdb\xb5\xab\xb8a@'
p1135
tp1136
Rp1137
tp1138
a(g2
I76
g3
(g7
S'w\xdf\x93\xb7\xee ]@'
p1139
tp1140
Rp1141
tp1142
a(g2
I77
g3
(g7
S'\x90-.\xe1\x9e\x02b@'
p1143
tp1144
Rp1145
tp1146
a(g2
I78
g3
(g7
S'\x0b\xa1\x9d\x9c\xf4\xbe_@'
p1147
tp1148
Rp1149
tp1150
a(g2
I79
g3
(g7
S'F\n\x00\xeb\xf3X]@'
p1151
tp1152
Rp1153
tp1154
a(g2
I80
g3
(g7
S'\xa0c\x98B\xfeb^@'
p1155
tp1156
Rp1157
tp1158
a(g2
I81
g3
(g7
S's4\x99\x8a\x8c\x06]@'
p1159
tp1160
Rp1161
tp1162
a(g2
I82
g3
(g7
S'f\xf7\x98\x99%7\\@'
p1163
tp1164
Rp1165
tp1166
a(g2
I83
g3
(g7
S'#\x94\xfa1%J`@'
p1167
tp1168
Rp1169
tp1170
a(g2
I84
g3
(g7
S'DJG\xaa\xb6\xbe_@'
p1171
tp1172
Rp1173
tp1174
a(g2
I85
g3
(g7
S'\x92\xd0\xb5-\xcd\xba_@'
p1175
tp1176
Rp1177
tp1178
a(g2
I86
g3
(g7
S'3\xc1bP>\xb1_@'
p1179
tp1180
Rp1181
tp1182
a(g2
I87
g3
(g7
S'-\t\x17\xda\x0fJ^@'
p1183
tp1184
Rp1185
tp1186
a(g2
I88
g3
(g7
S'\xe4@\xee\x05\x8d\xfa]@'
p1187
tp1188
Rp1189
tp1190
a(g2
I89
g3
(g7
S'\xabce\x19i\xef]@'
p1191
tp1192
Rp1193
tp1194
a(g2
I90
g3
(g7
S'9\xb0\xdc\xfeD\x1f]@'
p1195
tp1196
Rp1197
tp1198
a(g2
I91
g3
(g7
S'\xbe\x19\x93\x88\xfa\xc1^@'
p1199
tp1200
Rp1201
tp1202
a(g2
I92
g3
(g7
S'I\x19\x821\xc9\x88a@'
p1203
tp1204
Rp1205
tp1206
a(g2
I93
g3
(g7
S'KgI\xa5b\xcdc@'
p1207
tp1208
Rp1209
tp1210
a(g2
I94
g3
(g7
S'9~Q\xdd\n\x92_@'
p1211
tp1212
Rp1213
tp1214
a(g2
I95
g3
(g7
S'\xb16B/\x10\xa9_@'
p1215
tp1216
Rp1217
tp1218
a(g2
I96
g3
(g7
S'\n-\x84\xf7\x8b7]@'
p1219
tp1220
Rp1221
tp1222
a(g2
I97
g3
(g7
S'\xee\xe8\x1d\x0b 4\\@'
p1223
tp1224
Rp1225
tp1226
a(g2
I98
g3
(g7
S'\x03Hj\xd1v\x82^@'
p1227
tp1228
Rp1229
tp1230
a(g2
I99
g3
(g7
S'\x0f<*\x1a\xf2X_@'
p1231
tp1232
Rp1233
tp1234
a(g2
I100
g3
(g7
S'\xa1\x93\xbd\xbc\x0c\xaf`@'
p1235
tp1236
Rp1237
tp1238
a(g2
I101
g3
(g7
S'\x02\xdc\xf1\xb2f\x86`@'
p1239
tp1240
Rp1241
tp1242
a(g2
I102
g3
(g7
S'\xa4\x8c\x0f\xaa\x9d0`@'
p1243
tp1244
Rp1245
tp1246
a(g2
I103
g3
(g7
S'\xa3v\xe6l\xebQ]@'
p1247
tp1248
Rp1249
tp1250
aa.